(dp0
S'XJyS25Yg27'
p1
(dp2
S'X5eS5kvC8h'
p3
F1.0
sS'34f4oB5Cod'
p4
F1.0
sS'XL0eQIoG72'
p5
F1.0
sS'i8f2gg51r5'
p6
F1.0
sS'y5009rpZ12'
p7
F1.0
sS'Hd9GW3f95j'
p8
F1.0
sS'1kKxS8urAH'
p9
F1.0
sS's19Mo891H5'
p10
F1.0
sS'8gH5u019ZH'
p11
F1.0
sS'k3jBd30ocz'
p12
F1.0
sS'ajPRq0Q08b'
p13
F1.0
sS'dvG32rxRzQ'
p14
F1.0
sS'saNy7ix5ZY'
p15
F1.0
sS'h0UbH181l8'
p16
F1.0
sS'EfN583275t'
p17
F1.0
sS'Gwk4z777oU'
p18
F1.0
sS'78t79xOebG'
p19
F1.0
ssS'M7hLaVJGvX'
p20
(dp21
S'MPqJdqnPtc'
p22
F1.0
sg11
F1.0
ssS'Fx8d98DRud'
p23
(dp24
g13
F1.0
ssS'l8bH01vT7z'
p25
(dp26
sS'9eV0EGVC6j'
p27
(dp28
sS'6bJ4auIa8L'
p29
(dp30
g13
F1.0
sg5
F1.0
sS'l5eh0S53tB'
p31
F1.0
sg7
F1.0
sS'yf2V5ll9mN'
p32
F1.0
sg12
F1.0
sS'qL6HDg57R9'
p33
F1.0
sS'OS2vxzjz6W'
p34
F1.0
sg14
F1.0
sg6
F1.0
sS'5a5qA8VLfI'
p35
F1.0
sg16
F1.0
sS'YNGlv7F45C'
p36
F1.0
ssS'8csPxY44OZ'
p37
(dp38
sS'0GlR30c2Mt'
p39
(dp40
g13
F1.0
sS'X4ZaxfDz3Q'
p41
F0.75
sg7
F0.8333333333333333
sS'81E41tTtV9'
p42
F0.75
sg31
F0.6666666666666666
sS'tyU2s0MBzm'
p43
F0.6666666666666666
ssS'77y7iIIXuv'
p44
(dp45
S'apCLF0uF21'
p46
F1.0
sg18
F1.0
sg13
F1.0
sg5
F1.0
sg31
F1.0
sg7
F1.0
sS'02i5jCrfQK'
p47
F1.0
sS'c1zVCHxCEz'
p48
F1.0
sg10
F1.0
sS'11fnXrq9Jf'
p49
F1.0
sS'4X3016rdOZ'
p50
F1.0
sg12
F1.0
sg6
F1.0
sg35
F1.0
sS'6jCygPdswz'
p51
F1.0
sS'EWHJMBPf94'
p52
F1.0
sS'SoEcLAeJi1'
p53
F1.0
sS'242fhbKRf9'
p54
F1.0
sS'0U9x5pNv8t'
p55
F1.0
ssS'R398qG76GC'
p56
(dp57
sS'88Uhb8760x'
p58
(dp59
S'f45jOmRd4S'
p60
F1.0
sg13
F1.0
sg31
F1.0
sg7
F1.0
sg33
F1.0
sg14
F1.0
sS'4pzSijxuK6'
p61
F1.0
sg35
F1.0
sg54
F1.0
ssS'PrH19Z5q87'
p62
(dp63
sS'vpuUyzUJ0z'
p64
(dp65
S'IQ98biy227'
p66
F1.0
sS'c3Ee3W8hyq'
p67
F1.0
sg34
F1.0
ssS'2IaH8665Ha'
p68
(dp69
sS'verm1Wp12u'
p70
(dp71
sS'XTXYl6nJ7J'
p72
(dp73
sS'OPv5PP9Bi4'
p74
(dp75
sS'm64Rgy40OF'
p76
(dp77
g13
F0.6666666666666666
sg31
F0.75
sg7
F0.75
sS'LnVZmUuwc8'
p78
F0.75
sg53
F0.75
sg33
F0.75
sS'ZP886G3Z76'
p79
F0.75
ssS'1bJbgQ32E3'
p80
(dp81
g13
F0.75
sg5
F1.0
sg10
F1.0
sg33
F1.0
sg14
F1.0
sg51
F0.7777777777777778
sg16
F0.75
sg79
F1.0
ssS'E38It7fjg0'
p82
(dp83
S'5LMy832c47'
p84
F0.75
sg51
F0.75
sS'z9svx3mA4s'
p85
F0.75
sg3
F1.0
ssS'35F52CG565'
p86
(dp87
sg31
(dp88
g46
F1.0
sg18
F0.7777777777777778
sg13
F0.8484848484848485
sg5
F1.0
sg43
F1.0
sS'Qwq8d0du28'
p89
F1.0
sg47
F1.0
sg42
F1.0
sg10
F1.0
sg29
F1.0
sS'3hSu07XfGd'
p90
F1.0
sg39
F1.0
sg16
F1.0
sg44
F1.0
sS'Dmq6441349'
p91
F1.0
sg66
F1.0
sg58
F1.0
sg7
F1.0
sg9
F1.0
sS'EV28POlwE4'
p92
F1.0
sg34
F1.0
sg54
F1.0
sg76
F1.0
sg35
F1.0
sg51
F1.0
sg50
F1.0
sg53
F1.0
sg8
F1.0
sg60
F1.0
sg3
F0.6666666666666666
sg14
F1.0
sg41
F1.0
sg78
F1.0
sg15
F1.0
sg33
F1.0
sg6
F1.0
sg52
F1.0
sg36
F1.0
sS'mNzo8mGzu9'
p93
F1.0
sg55
F1.0
sS'USdRVl9AOe'
p94
F1.0
sS'668lBbaKFE'
p95
F1.0
sS'z1iLCTB32T'
p96
F1.0
sg79
F1.0
sg12
F1.0
sg61
F1.0
sS'1CI7f2R98c'
p97
F1.0
sS'9EAa0nJjb1'
p98
F1.0
ssS'46z59pQP58'
p99
(dp100
S'66Ak255E3j'
p101
F0.75
sg89
F1.0
sg7
F1.0
ssg85
(dp102
g14
F0.7777777777777778
sg5
F1.0
sg43
F1.0
sS'6O31vedZbI'
p103
F0.75
sS'CZDz8OSRfI'
p104
F1.0
sS'LM96hW22T2'
p105
F1.0
sg61
F1.0
sg51
F1.0
sg66
F1.0
sg82
F0.75
sg67
F1.0
ssS'8d194g9ccT'
p106
(dp107
sS'02ZjVTxC34'
p108
(dp109
sS'7y5NJZ7S6u'
p110
(dp111
g46
F1.0
sg17
F1.0
ssg15
(dp112
g1
F0.75
sg13
F0.8333333333333334
sg31
F0.8333333333333333
sg7
F0.6666666666666666
sg78
F1.0
sg12
F1.0
sg18
F0.75
sg79
F0.75
sg14
F0.75
sg6
F0.75
sg36
F1.0
sg8
F1.0
sg55
F0.75
ssS'rnOGP59582'
p113
(dp114
sS'PhzyUqi1yE'
p115
(dp116
sS'075kbY53c1'
p117
(dp118
g9
F1.0
ssS'7RB2G4NbCn'
p119
(dp120
sS'276487SwvF'
p121
(dp122
sS'UmsZ3gHcg7'
p123
(dp124
sg95
(dp125
g13
F1.0
sS'LP15lX652E'
p126
F1.0
sg31
F1.0
sg92
F1.0
ssS'6c2Im3PZdL'
p127
(dp128
sg96
(dp129
g31
F1.0
ssS'7YX78oEdjZ'
p130
(dp131
sS'DkXJps09H6'
p132
(dp133
sS'1Nf2932GeH'
p134
(dp135
sS'2J2SH6Fk63'
p136
(dp137
g13
F1.0
sg43
F1.0
sg93
F1.0
ssS'0KS4yy9G96'
p138
(dp139
sS'PE6x6PxZ42'
p140
(dp141
g3
F1.0
sg13
F1.0
sg43
F1.0
sg7
F1.0
sg94
F1.0
sg49
F1.0
sg89
F1.0
sg12
F1.0
sg103
F1.0
sg14
F1.0
sg105
F1.0
sg6
F1.0
sg66
F1.0
sS'9QD9297moO'
p142
F1.0
sg19
F1.0
sg41
F1.0
ssg19
(dp143
g1
F1.0
sg13
F1.0
sg9
F1.0
sg12
F1.0
sg6
F1.0
sg140
F1.0
sg8
F1.0
sg55
F1.0
ssS'nybp7zY98z'
p144
(dp145
sg18
(dp146
g46
F1.0
sg1
F1.0
sS'yuB6nxh3FX'
p147
F0.75
sg5
F1.0
sg43
F1.0
sg42
F1.0
sg48
F1.0
sg90
F1.0
sg13
F1.0
sg44
F1.0
sg84
F0.75
sg66
F1.0
sg7
F1.0
sg9
F1.0
sg34
F1.0
sg51
F1.0
sg3
F1.0
sg31
F1.0
sg78
F1.0
sg15
F1.0
sg17
F1.0
sg6
F1.0
sg55
F1.0
sg12
F1.0
sg16
F1.0
ssg147
(dp148
g18
F1.0
sg13
F0.6666666666666666
sg5
F0.6666666666666666
sg43
F0.75
sg7
F0.75
sg103
F0.75
sg34
F1.0
sg16
F0.75
sg51
F1.0
sg66
F0.7777777777777777
sg55
F1.0
ssS'bt0ZuHaCGY'
p149
(dp150
g43
F1.0
sg7
F1.0
sS'hwF4tyWU50'
p151
F1.0
ssg89
(dp152
g13
F1.0
sg5
F1.0
sg7
F1.0
sS'56dTCKdr74'
p153
F1.0
sg47
F1.0
sg99
F1.0
sg11
F1.0
sg12
F1.0
sg14
F1.0
sg34
F1.0
sS'Si4v9635O3'
p154
F1.0
sg17
F1.0
sg6
F1.0
sg140
F1.0
sg50
F1.0
sg31
F1.0
ssS'5VZLSGPT10'
p155
(dp156
sS'2AMmebFl86'
p157
(dp158
sS'FrPh305pw8'
p159
(dp160
sS'QS4cvQ8w0o'
p161
(dp162
sg91
(dp163
g51
F0.75
sg31
F0.6666666666666666
sg36
F0.75
ssg104
(dp164
g61
F1.0
sg51
F0.75
sg85
F0.75
ssg7
(dp165
g46
F1.0
sg1
F1.0
sg13
F1.0
sg5
F1.0
sg43
F1.0
sg89
F1.0
sg42
F1.0
sg53
F1.0
sg29
F1.0
sg18
F1.0
sg90
F1.0
sg39
F1.0
sg12
F1.0
sg44
F1.0
sg34
F1.0
sg66
F1.0
sg31
F1.0
sg149
F1.0
sg58
F1.0
sS'Wi92e1D7bp'
p166
F1.0
sg32
F1.0
sg92
F1.0
sg151
F1.0
sg76
F1.0
sg35
F1.0
sg140
F1.0
sg142
F1.0
sg79
F1.0
sg8
F1.0
sg60
F1.0
sg41
F1.0
sg14
F1.0
sS't4K5z0e2NZ'
p167
F1.0
sg78
F1.0
sg99
F1.0
sg15
F1.0
sg33
F1.0
sg17
F1.0
sg6
F1.0
sg36
F1.0
sg54
F1.0
sg55
F1.0
sg147
F1.0
sg94
F1.0
sg9
F1.0
sg16
F1.0
sg61
F1.0
sg50
F1.0
ssg32
(dp168
g14
F1.0
sg5
F1.0
sg7
F1.0
sg13
F1.0
sg29
F1.0
sg12
F1.0
sg61
F1.0
sg35
F1.0
sg66
F1.0
ssg66
(dp169
g46
F1.0
sg18
F1.0
sg147
F0.7777777777777777
sg5
F1.0
sg43
F1.0
sS'bcoY3s64sj'
p170
F0.75
sg13
F1.0
sg7
F1.0
sg32
F1.0
sg64
F1.0
sg103
F0.75
sg34
F1.0
sg35
F1.0
sg51
F1.0
sg50
F1.0
sg14
F1.0
sg31
F1.0
sg153
F1.0
sg85
F1.0
sg33
F1.0
sg17
F1.0
sg6
F1.0
sg36
F1.0
sg54
F1.0
sg55
F1.0
sg140
F1.0
sg12
F1.0
sg16
F1.0
sg67
F1.0
ssg103
(dp171
S'45TTYcotWk'
p172
F1.0
sg147
F1.0
sg43
F1.0
sg85
F1.0
sg170
F1.0
sg13
F1.0
sg140
F1.0
sg66
F1.0
ssg172
(dp173
g103
F0.75
ssS'Vu26QoCms4'
p174
(dp175
sg51
(dp176
g46
F1.0
sg18
F1.0
sg13
F1.0
sg10
F1.0
sg90
F1.0
sg147
F0.75
sg44
F1.0
sg91
F1.0
sg66
F1.0
sg31
F1.0
sg34
F1.0
sg35
F1.0
sg80
F1.0
sg53
F1.0
sg3
F1.0
sg14
F1.0
sg167
F1.0
sg78
F1.0
sg85
F1.0
sS'm58s5oOZCm'
p177
F1.0
sg36
F1.0
sg54
F1.0
sg98
F1.0
sg82
F0.75
sg104
F1.0
sg16
F1.0
sg61
F1.0
sg97
F1.0
ssS'QQTAp3k3UP'
p178
(dp179
sS'v52MhQAVT9'
p180
(dp181
sg3
(dp182
g1
F1.0
sg13
F1.0
sg31
F1.0
sg140
F1.0
sg78
F1.0
sg18
F1.0
sg34
F1.0
sg50
F1.0
sg51
F1.0
sg82
F1.0
sg55
F1.0
ssg41
(dp183
g13
F1.0
sg43
F1.0
sg7
F1.0
sg42
F1.0
sg39
F1.0
sg140
F0.75
sg31
F1.0
ssg78
(dp184
g3
F0.8333333333333333
sg13
F1.0
sg31
F1.0
sg7
F1.0
sg10
F0.75
sg18
F0.75
sg14
F0.75
sg79
F1.0
sg15
F1.0
sg33
F1.0
sg34
F0.75
sg76
F1.0
sg51
F0.75
sg53
F1.0
ssS'mI0bEZaepz'
p185
(dp186
sS'c8Gl35DPn4'
p187
(dp188
sS'5yasLi1Avt'
p189
(dp190
sS'HvghFVBS5v'
p191
(dp192
g9
F1.0
sg35
F1.0
sg16
F1.0
sg46
F1.0
sg90
F1.0
ssS'ftgrG3jT2m'
p193
(dp194
sg36
(dp195
g46
F1.0
sg13
F1.0
sg31
F0.8333333333333334
sg7
F0.6666666666666666
sg66
F0.6875
sg29
F0.75
sg33
F0.75
sg34
F0.75
sg15
F1.0
sg14
F0.75
sg17
F1.0
sg6
F0.6666666666666666
sg91
F0.75
sg35
F0.6666666666666666
sg12
F1.0
sg51
F0.75
sg50
F1.0
sg79
F0.75
sg8
F1.0
sg55
F0.75
ssS'3C1dH8H8v3'
p196
(dp197
sg55
(dp198
g46
F1.0
sg3
F1.0
sg13
F1.0
sg147
F1.0
sg31
F1.0
sg7
F1.0
sg48
F1.0
sg18
F1.0
sg15
F1.0
sg12
F1.0
sg44
F1.0
sg17
F1.0
sg6
F1.0
sg66
F1.0
sg36
F1.0
sg19
F1.0
ssg4
(dp199
g1
F1.0
sg13
F1.0
sg5
F1.0
ssS'5x5fHvFFLv'
p200
(dp201
S'oEt3YTvS4G'
p202
F1.0
ssg94
(dp203
g13
F1.0
sg31
F1.0
sg7
F1.0
sg49
F1.0
sg12
F1.0
sg6
F1.0
sg140
F1.0
sg8
F1.0
sg50
F1.0
ssS'D1VwdFc01t'
p204
(dp205
sg61
(dp206
g13
F1.0
sg58
F1.0
sg167
F0.75
sg7
F1.0
sg153
F1.0
sg166
F1.0
sg32
F1.0
sg85
F0.75
sg92
F1.0
sg104
F1.0
sg42
F1.0
sg16
F1.0
sg5
F1.0
sg51
F0.75
sg142
F1.0
sg31
F1.0
sg43
F1.0
ssS'46K8Eq75fJ'
p207
(dp208
sS'y4Vg256UzB'
p209
(dp210
sg97
(dp211
g46
F0.75
sg13
F0.8
sg31
F0.6666666666666666
sg90
F0.75
sg16
F0.75
sg51
F0.75
sg54
F0.75
sg98
F0.75
ssg17
(dp212
g46
F1.0
sg1
F0.7777777777777777
sg13
F1.0
sg5
F0.8333333333333334
sg89
F1.0
sg7
F0.75
sg11
F1.0
sg66
F0.75
sg12
F1.0
sg18
F0.75
sg14
F0.75
sg90
F0.6666666666666666
sg110
F1.0
sg154
F1.0
sg16
F1.0
sg36
F1.0
sg55
F0.75
ssg46
(dp213
g18
F0.75
sg13
F1.0
sg5
F0.8333333333333333
sg31
F0.8333333333333333
sg7
F0.75
sg9
F1.0
sg98
F0.75
sg12
F1.0
sg90
F0.75
sg110
F1.0
sg16
F1.0
sg44
F0.75
sg17
F1.0
sg191
F1.0
sg35
F0.75
sg97
F0.75
sg51
F0.75
sg66
F0.75
sg36
F1.0
sg54
F1.0
sg55
F0.75
ssg13
(dp214
g46
F1.0
sg1
F0.6666666666666666
sg147
F0.75
sg5
F0.8333333333333334
sg43
F0.5833333333333334
sg23
F0.6666666666666666
sg15
F0.8333333333333334
sg42
F0.75
sg48
F0.8333333333333333
sg53
F0.75
sg29
F0.6666666666666666
sg18
F0.6666666666666666
sS'tlJn3I40bf'
p215
F0.7777777777777777
sg90
F0.75
sg39
F1.0
sg16
F0.8888888888888888
sg44
F0.75
sS'ey9rvMnU57'
p216
F0.75
sg34
F0.7777777777777777
sg66
F0.6666666666666666
sg41
F0.75
sg105
F1.0
sg58
F1.0
sg89
F0.75
sg7
F0.6458333333333334
sg9
F1.0
sg103
F0.75
sg92
F1.0
sg80
F0.8333333333333333
sg151
F0.75
sg154
F0.75
sg76
F0.6666666666666666
sg35
F0.7777777777777778
sg126
F1.0
sg98
F0.75
sg51
F0.75
sg142
F1.0
sg79
F0.7777777777777777
sg8
F0.75
sg60
F1.0
sg3
F0.8333333333333334
sg14
F0.7777777777777778
sg31
F0.75
sg153
F0.75
sg78
F0.75
sg49
F0.6666666666666666
sg177
F1.0
sS'yB480DNZ70'
p217
F0.75
sg33
F0.7777777777777777
sg17
F1.0
sg6
F0.7000000000000001
sg36
F1.0
sg54
F1.0
sg55
F0.75
sg4
F0.75
sg94
F0.7777777777777778
sg95
F1.0
sg50
F1.0
sg32
F0.75
sg12
F0.75
sg61
F0.75
sg136
F0.75
sg97
F0.75
sg140
F0.64
sg19
F0.6666666666666666
ssg5
(dp218
g46
F0.75
sg1
F0.6666666666666666
sg147
F1.0
sg89
F0.75
sg47
F0.6666666666666666
sg10
F0.75
sg29
F1.0
sg18
F0.75
sg90
F0.8333333333333334
sg13
F0.7777777777777778
sg44
F0.75
sg66
F1.0
sg7
F0.7777777777777777
sg32
F0.75
sg35
F1.0
sg98
F1.0
sg80
F0.6666666666666666
sg14
F0.7777777777777778
sg31
F0.6666666666666666
sg153
F0.75
sg85
F1.0
sg33
F1.0
sg17
F0.6666666666666666
sg50
F0.75
sg4
F0.75
sg12
F0.75
sg16
F0.8333333333333334
sg61
F0.75
ssg43
(dp219
g18
F1.0
sg13
F1.0
sg147
F0.75
sg31
F1.0
sg7
F1.0
sg42
F1.0
sg136
F1.0
sg85
F1.0
sg103
F0.75
sg41
F1.0
sg170
F0.75
sg39
F1.0
sg16
F1.0
sg61
F1.0
sg66
F1.0
sg140
F1.0
sg142
F1.0
sg151
F1.0
sg149
F1.0
ssg47
(dp220
g14
F1.0
sg5
F1.0
sg31
F1.0
sg89
F1.0
sg10
F1.0
sg44
F1.0
sg35
F1.0
sg50
F1.0
ssg42
(dp221
g18
F1.0
sg13
F1.0
sg43
F1.0
sg7
F1.0
sg9
F1.0
sg166
F1.0
sg39
F1.0
sg12
F1.0
sg61
F1.0
sg41
F1.0
sg31
F1.0
ssg48
(dp222
g18
F1.0
sg13
F1.0
sg34
F1.0
sg44
F1.0
sg6
F1.0
sg35
F1.0
sg54
F1.0
sg55
F1.0
ssg53
(dp223
g13
F1.0
sg31
F1.0
sg7
F1.0
sg78
F1.0
sS'jR1rpwLHNu'
p224
F1.0
sg177
F1.0
sg33
F1.0
sg44
F1.0
sg76
F1.0
sg51
F1.0
sg79
F1.0
ssg224
(dp225
g53
F1.0
ssS'K4IIshw37g'
p226
(dp227
sS'rPj8YeG1I5'
p228
(dp229
sg90
(dp230
g46
F1.0
sg18
F1.0
sg14
F1.0
sg5
F1.0
sg31
F1.0
sg7
F1.0
sg9
F1.0
sg191
F1.0
sg12
F1.0
sg13
F1.0
sg16
F1.0
sg17
F1.0
sg35
F1.0
sg97
F1.0
sg51
F1.0
sg54
F1.0
sg98
F1.0
ssg22
(dp231
g20
F1.0
ssS'80nlN05JQ6'
p232
(dp233
sS'stK4H8Vit6'
p234
(dp235
sg216
(dp236
g13
F1.0
sg151
F1.0
ssg202
(dp237
g200
F1.0
ssg84
(dp238
g18
F1.0
sg82
F1.0
ssS'dTIQk6Xt3r'
p239
(dp240
sS'BpYaFX7hkQ'
p241
(dp242
sS'4EUt9uDfjG'
p243
(dp244
sS'pgHmAyjLe1'
p245
(dp246
sg54
(dp247
g46
F1.0
sg13
F1.0
sg58
F1.0
sg31
F0.8333333333333334
sg7
F0.6666666666666666
sg48
F0.8333333333333333
sg14
F0.75
sg12
F1.0
sg33
F0.75
sg90
F0.75
sg16
F1.0
sg44
F0.75
sg34
F0.7777777777777777
sg6
F0.6666666666666666
sg35
F0.8125
sg97
F0.75
sg51
F0.75
sg66
F0.75
sg98
F0.75
sg50
F1.0
ssg151
(dp248
g149
F1.0
sg13
F1.0
sg216
F1.0
sg7
F1.0
sg43
F1.0
ssS'fTCaypQv7J'
p249
(dp250
sg154
(dp251
g217
F1.0
sg13
F1.0
sg12
F1.0
sg17
F1.0
sg89
F1.0
ssg101
(dp252
g99
F1.0
ssS'562xzTNuI6'
p253
(dp254
sg98
(dp255
g46
F1.0
sg13
F1.0
sg5
F0.6666666666666666
sg31
F1.0
sg90
F1.0
sg16
F1.0
sg35
F1.0
sg97
F1.0
sg51
F1.0
sg54
F1.0
ssS'f4fNYL73Z2'
p256
(dp257
sS'K8b2FfNFdp'
p258
(dp259
sS'vkQ059OE0u'
p260
(dp261
sS'tB4vqSxzqo'
p262
(dp263
sg167
(dp264
g51
F1.0
sg61
F1.0
sg7
F1.0
ssS'w5famqnV15'
p265
(dp266
sS'l0KpN7IKom'
p267
(dp268
sS's39qS245G2'
p269
(dp270
sg6
(dp271
g1
F1.0
sg13
F1.0
sg89
F1.0
sg48
F1.0
sg29
F1.0
sg18
F1.0
sg16
F1.0
sg44
F1.0
sg66
F1.0
sg7
F1.0
sg34
F1.0
sg35
F1.0
sg140
F1.0
sg8
F1.0
sg14
F1.0
sg31
F1.0
sg33
F1.0
sg36
F1.0
sg54
F1.0
sg50
F1.0
sg94
F1.0
sg12
F1.0
sg55
F1.0
sg15
F1.0
sg19
F1.0
ssS'589M2uPIY4'
p272
(dp273
sS'V2p98HHF6o'
p274
(dp275
sg93
(dp276
g9
F1.0
sg136
F1.0
sg52
F1.0
sg31
F1.0
ssS'N1K15JE4tN'
p277
(dp278
sS'RajLsf9Q1z'
p279
(dp280
sg10
(dp281
g1
F1.0
sg14
F1.0
sg5
F1.0
sg31
F1.0
sg78
F1.0
sg47
F1.0
sg16
F0.75
sg44
F1.0
sg51
F0.75
sg80
F1.0
sg50
F1.0
ssS'zfYl0YECr0'
p282
(dp283
sg79
(dp284
g13
F1.0
sg31
F1.0
sg7
F1.0
sg78
F1.0
sg53
F1.0
sg15
F1.0
sg33
F1.0
sg76
F1.0
sg80
F1.0
sg36
F1.0
ssS'15V4J8fDs3'
p285
(dp286
sS'EWo6L00OAS'
p287
(dp288
sg12
(dp289
g46
F1.0
sg1
F0.75
sg13
F0.875
sg5
F0.8333333333333333
sg89
F1.0
sg11
F1.0
sg42
F1.0
sg29
F0.75
sg18
F0.7777777777777778
sg90
F0.6666666666666666
sg16
F1.0
sg44
F0.75
sg66
F0.75
sg7
F0.7916666666666666
sg9
F1.0
sg34
F0.75
sg154
F1.0
sg35
F0.75
sg140
F1.0
sg50
F1.0
sg8
F1.0
sg14
F0.75
sg31
F0.8333333333333334
sg33
F0.75
sg17
F1.0
sg6
F0.75
sg36
F1.0
sg54
F1.0
sg55
F0.75
sg94
F1.0
sg32
F1.0
sg15
F1.0
sg19
F1.0
ssS'PUH9Se529L'
p290
(dp291
sg67
(dp292
g64
F1.0
sg14
F1.0
sg85
F1.0
sg66
F1.0
sg34
F1.0
ssS'84qYt0yA5y'
p293
(dp294
sS'Dl62lXJbK1'
p295
(dp296
sg11
(dp297
g1
F1.0
sg12
F1.0
sg20
F1.0
sg17
F1.0
sg89
F1.0
ssS'Ru21xRreim'
p298
(dp299
sS'CaA0123UJL'
p300
(dp301
sg215
(dp302
g13
F1.0
sg92
F1.0
ssg170
(dp303
g66
F1.0
sg103
F1.0
sg43
F1.0
ssS'NnA4UfdJ5k'
p304
(dp305
sg16
(dp306
g46
F1.0
sg1
F0.7777777777777777
sg147
F0.75
sg5
F0.8333333333333334
sg43
F1.0
sg10
F0.75
sg29
F0.75
sg18
F0.75
sg90
F0.75
sg13
F1.0
sg66
F0.75
sg7
F0.7777777777777778
sg9
F1.0
sg35
F0.7777777777777778
sg51
F0.7777777777777777
sg80
F0.8333333333333333
sg14
F0.75
sg31
F0.8333333333333333
sg153
F1.0
sg33
F0.75
sg17
F1.0
sg6
F0.75
sg54
F1.0
sg98
F0.75
sg191
F1.0
sg12
F1.0
sg61
F1.0
sg97
F0.75
ssS'31ApG55XoV'
p307
(dp308
sS'517LN52NOL'
p309
(dp310
sS'gPaagaJ8aq'
p311
(dp312
sS'hqew2E2l61'
p313
(dp314
sg105
(dp315
g13
F1.0
sg85
F0.75
sg140
F0.75
ssS'39Uc7ru04l'
p316
(dp317
sS'CEA35ELhs4'
p318
(dp319
sg9
(dp320
g46
F1.0
sg1
F0.75
sg13
F1.0
sg31
F0.7777777777777777
sg7
F0.8333333333333333
sg42
F0.75
sg191
F0.8125
sg12
F0.75
sg18
F0.75
sg90
F1.0
sg16
F1.0
sg93
F1.0
sg35
F0.75
sg19
F0.75
sg117
F1.0
ssS'DS5ecUMGJi'
p321
(dp322
sS'eD0u9WOep7'
p323
(dp324
sg92
(dp325
g13
F1.0
sg31
F1.0
sg7
F1.0
sg95
F1.0
sg215
F1.0
sg61
F1.0
ssg34
(dp326
g18
F0.875
sg13
F1.0
sg89
F1.0
sg48
F1.0
sg29
F1.0
sg147
F0.75
sg66
F1.0
sg7
F1.0
sg64
F1.0
sg35
F1.0
sg51
F1.0
sg3
F1.0
sg14
F1.0
sg31
F1.0
sg78
F1.0
sg33
F1.0
sg6
F1.0
sg36
F1.0
sg54
F1.0
sg50
F1.0
sg12
F1.0
sg67
F1.0
ssS'VHCF3iE0a4'
p327
(dp328
sg35
(dp329
g46
F1.0
sg13
F1.0
sg5
F1.0
sg47
F1.0
sg48
F1.0
sg29
F1.0
sg90
F1.0
sg16
F1.0
sg44
F1.0
sg66
F1.0
sg58
F1.0
sg7
F1.0
sg9
F1.0
sg34
F1.0
sg51
F1.0
sg14
F1.0
sg31
F1.0
sg33
F1.0
sg6
F1.0
sg36
F1.0
sg54
F1.0
sg50
F1.0
sg191
F1.0
sg32
F1.0
sg12
F1.0
sg98
F1.0
ssS'nxe3l4KD0z'
p330
(dp331
sg142
(dp332
g13
F1.0
sg61
F0.75
sg43
F0.6666666666666666
sg7
F0.75
sg140
F1.0
ssg8
(dp333
g1
F1.0
sg13
F1.0
sg31
F1.0
sg7
F1.0
sg94
F1.0
sg15
F1.0
sg12
F1.0
sg6
F1.0
sg36
F1.0
sg19
F1.0
ssg60
(dp334
g13
F1.0
sg33
F1.0
sg58
F1.0
sg31
F1.0
sg7
F1.0
ssS'wY56ZI2gyL'
p335
(dp336
sg14
(dp337
g1
F1.0
sg13
F0.7777777777777777
sg5
F0.75
sg89
F1.0
sg47
F1.0
sg10
F1.0
sg29
F0.7777777777777778
sg90
F1.0
sg16
F0.75
sg66
F0.7777777777777777
sg58
F1.0
sg7
F0.75
sg32
F0.75
sg34
F1.0
sg35
F1.0
sg51
F1.0
sg80
F1.0
sg31
F1.0
sg153
F0.75
sg78
F1.0
sg85
F0.7777777777777777
sg15
F1.0
sg33
F1.0
sg17
F1.0
sg6
F1.0
sg36
F1.0
sg54
F1.0
sg50
F1.0
sg140
F0.75
sg12
F1.0
sg67
F1.0
ssS'12M70dm49w'
p338
(dp339
sg153
(dp340
g13
F1.0
sg5
F1.0
sg89
F1.0
sg14
F1.0
sg16
F1.0
sg61
F1.0
sg66
F1.0
ssS'e7uv9PqtYY'
p341
(dp342
sg49
(dp343
g94
F1.0
sg13
F1.0
sg44
F1.0
sg140
F1.0
ssg177
(dp344
g53
F0.75
sg13
F1.0
sg51
F0.75
ssg217
(dp345
g13
F0.75
sg154
F0.75
ssg33
(dp346
g13
F1.0
sg5
F1.0
sg53
F1.0
sg29
F1.0
sg16
F1.0
sg66
F1.0
sg58
F0.7777777777777778
sg7
F1.0
sg34
F1.0
sg76
F1.0
sg35
F1.0
sg80
F0.75
sg79
F1.0
sg60
F1.0
sg14
F0.7777777777777778
sg31
F1.0
sg78
F1.0
sg6
F1.0
sg36
F1.0
sg54
F1.0
sg50
F1.0
sg12
F1.0
ssg52
(dp347
g44
F1.0
sg31
F1.0
sg93
F1.0
ssg50
(dp348
g3
F0.8333333333333333
sg13
F1.0
sg5
F0.8333333333333333
sg31
F0.8333333333333334
sg7
F0.6666666666666666
sg47
F0.8333333333333333
sg94
F1.0
sg10
F0.75
sg89
F1.0
sg12
F1.0
sg14
F0.75
sg34
F0.75
sg33
F0.75
sg44
F0.75
sg6
F0.6666666666666666
sg35
F0.75
sg66
F0.75
sg36
F1.0
sg54
F1.0
ssS'740FTSQ19O'
p349
(dp350
sS't0fI2c7EMH'
p351
(dp352
sS'h9Tx9ulI5Q'
p353
(dp354
sg166
(dp355
g42
F1.0
sg61
F1.0
sg7
F1.0
ssS'vzYx9SZ29x'
p356
(dp357
sS'4ajdr1a4Kc'
p358
(dp359
sg126
(dp360
g95
F1.0
sg13
F1.0
ssS'7XQtQA55O7'
p361
(dp362
sS'odPTXtfS78'
p363
(dp364
s.