(dp0
S'QER9PsCgBT'
p1
(dp2
sS'Ugr5eIIEf0'
p3
(dp4
sS'b2W4ZO3uLV'
p5
(dp6
sS'tyU2s0MBzm'
p7
(dp8
sS'Qwq8d0du28'
p9
(dp10
sS'C18qWKq212'
p11
(dp12
sS'5ey2xUDZTA'
p13
(dp14
sS'dvG32rxRzQ'
p15
(dp16
sS'879eYkR2Wu'
p17
(dp18
sS'PpTLi2Qz8E'
p19
(dp20
sS'iyLqACAFyl'
p21
(dp22
sS'i8f2gg51r5'
p23
(dp24
sS'8rsfNQdio8'
p25
(dp26
sS'XL0eQIoG72'
p27
(dp28
sS'6jCygPdswz'
p29
(dp30
sS'IQ98biy227'
p31
(dp32
sS'6Ax4SKe470'
p33
(dp34
sS'l5eh0S53tB'
p35
(dp36
sS'XNEgfvXx50'
p37
(dp38
s.