(dp0
S'XJyS25Yg27'
p1
(dp2
S'X5eS5kvC8h'
p3
F1.0
sS'34f4oB5Cod'
p4
F1.0
sS'XL0eQIoG72'
p5
F1.0
sS'i8f2gg51r5'
p6
F1.0
sS'y5009rpZ12'
p7
F1.0
sS'Hd9GW3f95j'
p8
F1.0
sS'1kKxS8urAH'
p9
F1.0
sS's19Mo891H5'
p10
F1.0
sS'8gH5u019ZH'
p11
F1.0
sS'ajPRq0Q08b'
p12
F1.0
sS'dvG32rxRzQ'
p13
F1.0
sS'saNy7ix5ZY'
p14
F1.0
sS'h0UbH181l8'
p15
F1.0
sS'EfN583275t'
p16
F1.0
sS'Gwk4z777oU'
p17
F1.0
sS'78t79xOebG'
p18
F1.0
ssS'M7hLaVJGvX'
p19
(dp20
S'MPqJdqnPtc'
p21
F1.0
sg11
F1.0
ssS'dTIQk6Xt3r'
p22
(dp23
sS'6bJ4auIa8L'
p24
(dp25
g12
F1.0
sg5
F1.0
sS'l5eh0S53tB'
p26
F1.0
sg7
F1.0
sS'yf2V5ll9mN'
p27
F1.0
sS'qL6HDg57R9'
p28
F1.0
sS'OS2vxzjz6W'
p29
F1.0
sg13
F1.0
sg6
F1.0
sS'5a5qA8VLfI'
p30
F1.0
sg15
F1.0
sS'YNGlv7F45C'
p31
F1.0
ssS'Zl09dc50NB'
p32
(dp33
sS'J76B3lyQG9'
p34
(dp35
sS'0GlR30c2Mt'
p36
(dp37
g12
F1.0
sS'X4ZaxfDz3Q'
p38
F0.75
sg7
F0.8333333333333333
sS'81E41tTtV9'
p39
F0.75
sg26
F0.6666666666666666
sS'tyU2s0MBzm'
p40
F0.6666666666666666
ssS'77y7iIIXuv'
p41
(dp42
S'apCLF0uF21'
p43
F1.0
sS'6W08a98ZQV'
p44
F1.0
sg12
F1.0
sg5
F1.0
sg26
F1.0
sg7
F1.0
sS'02i5jCrfQK'
p45
F1.0
sS'rE6U5574qn'
p46
F1.0
sS'c1zVCHxCEz'
p47
F1.0
sg10
F1.0
sS'11fnXrq9Jf'
p48
F1.0
sg17
F1.0
sS'U9iFacSl34'
p49
F1.0
sS'4X3016rdOZ'
p50
F1.0
sg6
F1.0
sg30
F1.0
sS'6jCygPdswz'
p51
F1.0
sS'EWHJMBPf94'
p52
F1.0
sS'SoEcLAeJi1'
p53
F1.0
sS'242fhbKRf9'
p54
F1.0
sS'0U9x5pNv8t'
p55
F1.0
ssS'i5Y9A05Ph8'
p56
(dp57
sS'D4md1bS6DC'
p58
(dp59
g12
F1.0
ssS'a43DzeQWut'
p60
(dp61
sS'88Uhb8760x'
p62
(dp63
g12
F1.0
sg26
F1.0
sg7
F1.0
sg28
F1.0
sg13
F1.0
sS'4pzSijxuK6'
p64
F1.0
sg30
F1.0
sS'5AhC6ORULJ'
p65
F1.0
sg54
F1.0
sS'XNEgfvXx50'
p66
F1.0
ssS'2kb387yOiG'
p67
(dp68
sS'xH487WMLoS'
p69
(dp70
sS'2IaH8665Ha'
p71
(dp72
sS'Axp5cwW7T8'
p73
(dp74
sg39
(dp75
g17
F1.0
sg12
F1.0
sg40
F1.0
sg7
F1.0
sg9
F1.0
sS'Wi92e1D7bp'
p76
F1.0
sg36
F1.0
sg64
F1.0
sg38
F1.0
sg26
F1.0
ssS'9TvPity5px'
p77
(dp78
sg49
(dp79
g5
F1.0
sg41
F1.0
sg11
F1.0
ssg54
(dp80
g43
F1.0
sg12
F1.0
sg62
F1.0
sg26
F0.8333333333333334
sg7
F0.6666666666666666
sS'9aw67h1Z47'
p81
F0.75
sg47
F0.8333333333333333
sg13
F0.75
sg28
F0.75
sS'3hSu07XfGd'
p82
F0.75
sg15
F1.0
sg41
F0.75
sg29
F0.7777777777777777
sg6
F0.6666666666666666
sg30
F0.8125
sS'1CI7f2R98c'
p83
F0.75
sg51
F0.75
sS'IQ98biy227'
p84
F0.75
sS'9EAa0nJjb1'
p85
F0.75
sg50
F1.0
ssS'm64Rgy40OF'
p86
(dp87
g12
F0.6666666666666666
sg26
F0.75
sg7
F0.75
sS'LnVZmUuwc8'
p88
F0.75
sg53
F0.75
sg28
F0.75
sS'ZP886G3Z76'
p89
F0.75
ssg47
(dp90
g17
F1.0
sg12
F1.0
sg29
F1.0
sg41
F1.0
sg6
F1.0
sg30
F1.0
sS'6Ax4SKe470'
p91
F1.0
sg54
F1.0
sg55
F1.0
ssS'wwSQeRjs22'
p92
(dp93
g12
F0.8
sg51
F0.75
sg85
F0.75
sg82
F0.75
ssS'1bJbgQ32E3'
p94
(dp95
g13
F1.0
sg5
F1.0
sg12
F0.75
sg10
F1.0
sg28
F1.0
sS'0jSb6S70X1'
p96
F1.0
sg51
F0.7777777777777778
sg15
F0.75
sg89
F1.0
ssS'E38It7fjg0'
p97
(dp98
S'5LMy832c47'
p99
F0.75
sg51
F0.75
sS'z9svx3mA4s'
p100
F0.75
sg3
F1.0
ssS'XqBaV46VbC'
p101
(dp102
sg44
(dp103
g43
F1.0
sg12
F0.75
sg5
F1.0
sg26
F0.75
sg7
F0.75
sg88
F0.75
sg53
F0.75
sS'hwF4tyWU50'
p104
F0.75
sg28
F0.75
sg41
F1.0
sS'ey9rvMnU57'
p105
F0.75
sg52
F0.75
sg89
F0.75
sS'mNzo8mGzu9'
p106
F0.75
sg16
F1.0
ssg26
(dp107
g43
F1.0
sg17
F0.7777777777777778
sg12
F0.8484848484848485
sg5
F1.0
sg40
F1.0
sS'Qwq8d0du28'
p108
F1.0
sg45
F1.0
sg39
F1.0
sg10
F1.0
sg24
F1.0
sg3
F0.6666666666666666
sg82
F1.0
sg36
F1.0
sg15
F1.0
sg41
F1.0
sS'Dmq6441349'
p109
F1.0
sg84
F1.0
sg66
F0.7777777777777777
sg62
F1.0
sg7
F1.0
sg9
F1.0
sS'EV28POlwE4'
p110
F1.0
sg29
F1.0
sg46
F1.0
sg54
F1.0
sg86
F1.0
sg30
F1.0
sg51
F1.0
sg50
F1.0
sg53
F1.0
sg8
F1.0
sg44
F1.0
sg13
F1.0
sg38
F1.0
sg88
F1.0
sg81
F1.0
sg28
F1.0
sg6
F1.0
sg52
F1.0
sg31
F1.0
sg106
F1.0
sg55
F1.0
sS'g209g5Vve6'
p111
F1.0
sS'USdRVl9AOe'
p112
F1.0
sS'668lBbaKFE'
p113
F1.0
sS'z1iLCTB32T'
p114
F1.0
sg89
F1.0
sg14
F1.0
sg64
F1.0
sg96
F1.0
sg83
F1.0
sg85
F1.0
ssS'46z59pQP58'
p115
(dp116
S'66Ak255E3j'
p117
F0.75
sg108
F1.0
sg7
F1.0
sS'Uml72Q91Du'
p118
F1.0
ssg100
(dp119
g13
F0.7777777777777778
sg5
F1.0
sg40
F1.0
sS'6O31vedZbI'
p120
F0.75
sS'CZDz8OSRfI'
p121
F1.0
sS'LM96hW22T2'
p122
F1.0
sg64
F1.0
sg51
F1.0
sg84
F1.0
sg97
F0.75
sS'c3Ee3W8hyq'
p123
F1.0
ssS'1793z4bHHR'
p124
(dp125
sS'7y5NJZ7S6u'
p126
(dp127
g43
F1.0
sg16
F1.0
ssg14
(dp128
g1
F0.75
sg12
F0.8333333333333334
sg6
F0.75
sg7
F0.6666666666666666
sg88
F1.0
sg17
F0.75
sg89
F0.75
sg13
F0.75
sg96
F0.75
sg55
F0.75
sg31
F1.0
sg8
F1.0
sg26
F0.8333333333333333
ssS'rA9d62o2bb'
p129
(dp130
sS'6d2wZ1x370'
p131
(dp132
sS'075kbY53c1'
p133
(dp134
g9
F1.0
ssS'5ZR29q8c56'
p135
(dp136
sS'UmsZ3gHcg7'
p137
(dp138
sg113
(dp139
g12
F1.0
sS'LP15lX652E'
p140
F1.0
sg26
F1.0
sg110
F1.0
ssS'1to8tgu4IT'
p141
(dp142
sg114
(dp143
g26
F1.0
ssS'081u59Iq1D'
p144
(dp145
sg65
(dp146
g12
F1.0
sg62
F1.0
sg88
F1.0
sg89
F1.0
sg13
F1.0
sg6
F1.0
sg84
F1.0
sg31
F1.0
sg66
F1.0
ssS'SH1cSNDIA8'
p147
(dp148
sS'2J2SH6Fk63'
p149
(dp150
g12
F1.0
sg40
F1.0
sg106
F1.0
ssg18
(dp151
g1
F1.0
sg12
F1.0
sg9
F1.0
sg46
F1.0
sg6
F1.0
sS'PE6x6PxZ42'
p152
F1.0
sg8
F1.0
sg55
F1.0
ssg17
(dp153
g43
F1.0
sg1
F1.0
sS'yuB6nxh3FX'
p154
F0.75
sg5
F1.0
sg40
F1.0
sg39
F1.0
sg47
F1.0
sg82
F1.0
sg12
F1.0
sg41
F1.0
sg99
F0.75
sg84
F1.0
sg91
F1.0
sg66
F1.0
sg7
F1.0
sg9
F1.0
sg29
F1.0
sg51
F1.0
sg3
F1.0
sg26
F1.0
sg88
F1.0
sg14
F1.0
sg16
F1.0
sg6
F1.0
sg55
F1.0
sg15
F1.0
ssg154
(dp155
g17
F1.0
sg12
F0.6666666666666666
sg5
F0.6666666666666666
sg40
F0.75
sg7
F0.75
sg120
F0.75
sg29
F1.0
sg15
F0.75
sg51
F1.0
sg84
F0.7777777777777777
sg55
F1.0
ssS'bt0ZuHaCGY'
p156
(dp157
g40
F1.0
sg7
F1.0
sg104
F1.0
ssg108
(dp158
g12
F1.0
sg5
F1.0
sg7
F1.0
sS'56dTCKdr74'
p159
F1.0
sg45
F1.0
sg115
F1.0
sg11
F1.0
sg13
F1.0
sg29
F1.0
sg81
F1.0
sS'Si4v9635O3'
p160
F1.0
sg16
F1.0
sg6
F1.0
sg118
F1.0
sg152
F1.0
sg50
F1.0
sS'93YVE85s1x'
p161
F1.0
sg26
F1.0
ssS'zUlk9c7UEv'
p162
(dp163
sS'1k3GIfwBw6'
p164
(dp165
sS'5VZLSGPT10'
p166
(dp167
sS'yDO9pl8GC0'
p168
(dp169
sS'QS4cvQ8w0o'
p170
(dp171
sS'R62GeR4qce'
p172
(dp173
sS'YvD7H8XduF'
p174
(dp175
sg109
(dp176
g51
F0.75
sg26
F0.6666666666666666
sg31
F0.75
ssS'F9WJ1RKM4L'
p177
(dp178
sg91
(dp179
g17
F1.0
sg12
F1.0
sg45
F1.0
sg47
F1.0
sg13
F1.0
sg16
F1.0
ssS'Un24RpQEWg'
p180
(dp181
sS'9hs21hUG5O'
p182
(dp183
sg7
(dp184
g43
F1.0
sg1
F1.0
sg12
F1.0
sg5
F1.0
sg40
F1.0
sg108
F1.0
sg39
F1.0
sg53
F1.0
sg24
F1.0
sg17
F1.0
sg82
F1.0
sg36
F1.0
sg15
F1.0
sg41
F1.0
sg29
F1.0
sg84
F1.0
sg26
F1.0
sg156
F1.0
sg62
F1.0
sg76
F1.0
sg9
F1.0
sg110
F1.0
sg104
F1.0
sg86
F1.0
sg30
F1.0
sg66
F1.0
sS'9QD9297moO'
p185
F1.0
sg89
F1.0
sg8
F1.0
sg44
F1.0
sg13
F1.0
sS't4K5z0e2NZ'
p186
F1.0
sg88
F1.0
sg115
F1.0
sg28
F1.0
sg16
F1.0
sg6
F1.0
sg118
F1.0
sg31
F1.0
sg54
F1.0
sg55
F1.0
sg152
F1.0
sg154
F1.0
sg112
F1.0
sg27
F1.0
sg14
F1.0
sg64
F1.0
sg38
F1.0
sg50
F1.0
ssg27
(dp187
g13
F1.0
sg5
F1.0
sg7
F1.0
sg24
F1.0
sg12
F1.0
sg64
F1.0
sg30
F1.0
sg84
F1.0
ssS'7oiAa7MlW2'
p188
(dp189
sg120
(dp190
S'45TTYcotWk'
p191
F1.0
sg154
F1.0
sg40
F1.0
sg100
F1.0
sS'bcoY3s64sj'
p192
F1.0
sg12
F1.0
sg152
F1.0
sg84
F1.0
ssg191
(dp193
g120
F0.75
ssS'j0D7C5VG29'
p194
(dp195
sS'WmIXxzmmD3'
p196
(dp197
sg51
(dp198
g43
F1.0
sg17
F1.0
sg12
F1.0
sg10
F1.0
sg82
F1.0
sg154
F0.75
sg41
F1.0
sg109
F1.0
sg84
F1.0
sg26
F1.0
sg29
F1.0
sg30
F1.0
sg94
F1.0
sg53
F1.0
sg3
F1.0
sg13
F1.0
sg186
F1.0
sg88
F1.0
sg100
F1.0
sg92
F1.0
sg31
F1.0
sg54
F1.0
sg85
F1.0
sS'Kt1mv62gCP'
p199
F1.0
sg97
F0.75
sg121
F1.0
sg15
F1.0
sg64
F1.0
sg83
F1.0
ssS'Fm7ESoRh9v'
p200
(dp201
sS'971l4W5kQs'
p202
(dp203
sS'0KS4yy9G96'
p204
(dp205
sS'D08sSQFrq3'
p206
(dp207
sg3
(dp208
g1
F1.0
sg12
F1.0
sg26
F1.0
sg152
F1.0
sg88
F1.0
sg17
F1.0
sg29
F1.0
sg50
F1.0
sg51
F1.0
sg97
F1.0
sg55
F1.0
ssg38
(dp209
g12
F1.0
sg40
F1.0
sg7
F1.0
sg39
F1.0
sg36
F1.0
sg152
F0.75
sg26
F1.0
ssg88
(dp210
g44
F1.0
sg12
F1.0
sg26
F1.0
sg7
F1.0
sg10
F0.75
sg86
F1.0
sg3
F0.8333333333333333
sg13
F0.75
sg89
F1.0
sg65
F1.0
sg14
F1.0
sg28
F1.0
sg29
F0.75
sg17
F0.75
sg51
F0.75
sg53
F1.0
ssS'9iQ6dU8Ooj'
p211
(dp212
sS'UEArk7W20r'
p213
(dp214
sS'5yasLi1Avt'
p215
(dp216
sS'HvghFVBS5v'
p217
(dp218
g43
F1.0
sg9
F1.0
sS'8o0mJnIpFH'
p219
F1.0
sg82
F1.0
sg15
F1.0
sg118
F1.0
sg30
F1.0
ssg21
(dp220
g19
F1.0
ssS'dN4g3pRdSO'
p221
(dp222
sS'GBwY1iQUSw'
p223
(dp224
sg31
(dp225
g43
F1.0
sg111
F1.0
sg12
F1.0
sg26
F0.8333333333333334
sg7
F0.6666666666666666
sg84
F0.6875
sg24
F0.75
sg28
F0.75
sg29
F0.75
sg65
F0.75
sg14
F1.0
sg13
F0.75
sg16
F1.0
sg6
F0.6666666666666666
sg109
F0.75
sg30
F0.6666666666666666
sg51
F0.75
sg50
F1.0
sg89
F0.75
sg8
F1.0
sg55
F0.75
ssS'3C1dH8H8v3'
p226
(dp227
sg55
(dp228
g43
F1.0
sg3
F1.0
sg12
F1.0
sg6
F1.0
sg7
F1.0
sg47
F1.0
sg17
F1.0
sg14
F1.0
sg154
F1.0
sg41
F1.0
sg16
F1.0
sg96
F1.0
sg84
F1.0
sg31
F1.0
sg18
F1.0
sg26
F1.0
ssg4
(dp229
g1
F1.0
sg12
F1.0
sg5
F1.0
ssg112
(dp230
g12
F1.0
sg26
F1.0
sg7
F1.0
sg48
F1.0
sS'52vEY7f17k'
p231
F1.0
sg6
F1.0
sg152
F1.0
sg8
F1.0
sg50
F1.0
ssS'oWh48s12mR'
p232
(dp233
sS'5yM8I4Uut9'
p234
(dp235
sg64
(dp236
g12
F1.0
sg62
F1.0
sg186
F0.75
sg7
F1.0
sg159
F1.0
sg76
F1.0
sg27
F1.0
sg100
F0.75
sg110
F1.0
sg121
F1.0
sg39
F1.0
sg15
F1.0
sg5
F1.0
sg51
F0.75
sg185
F1.0
sg26
F1.0
sg40
F1.0
ssS'R440Y09vu3'
p237
(dp238
sg83
(dp239
g43
F0.75
sg12
F0.8
sg26
F0.6666666666666666
sg82
F0.75
sg15
F0.75
sg51
F0.75
sg54
F0.75
sg85
F0.75
ssg16
(dp240
g43
F1.0
sg44
F0.75
sg12
F1.0
sg5
F0.8333333333333334
sg108
F1.0
sg7
F0.75
sg11
F1.0
sg31
F1.0
sg84
F0.75
sg1
F0.7777777777777777
sg13
F0.75
sg82
F0.6666666666666666
sg126
F1.0
sg160
F1.0
sS'ljX78ko847'
p241
F0.75
sg17
F0.75
sg15
F1.0
sg91
F0.7777777777777778
sg55
F0.75
ssg43
(dp242
g17
F0.75
sg12
F1.0
sg5
F0.8333333333333333
sg219
F1.0
sg82
F0.75
sg15
F1.0
sg41
F0.75
sg84
F0.75
sg7
F0.75
sg9
F1.0
sg30
F0.75
sg51
F0.75
sg44
F0.75
sg26
F0.8333333333333333
sg126
F1.0
sS'tLgc420s9N'
p243
F1.0
sg16
F1.0
sg118
F1.0
sg31
F1.0
sg54
F1.0
sg85
F0.75
sg217
F1.0
sg199
F1.0
sg55
F0.75
sg83
F0.75
ssg12
(dp244
g43
F1.0
sg1
F0.6666666666666666
sg154
F0.75
sg5
F0.8333333333333334
sg40
F0.5833333333333334
sg108
F0.75
sg39
F0.75
sg47
F0.8333333333333333
sg53
F0.75
sg24
F0.6666666666666666
sg3
F0.8333333333333334
sS'tlJn3I40bf'
p245
F0.7777777777777777
sg82
F0.75
sg36
F1.0
sg15
F0.8888888888888888
sg41
F0.75
sg105
F0.75
sg17
F0.6666666666666666
sg58
F0.75
sg29
F0.7777777777777777
sg84
F0.6666666666666666
sg91
F0.75
sg66
F1.0
sg122
F1.0
sg62
F1.0
sg7
F0.6458333333333334
sg9
F1.0
sg120
F0.75
sg110
F1.0
sg94
F0.8333333333333333
sg104
F0.75
sg160
F0.75
sg65
F0.7777777777777777
sg86
F0.6666666666666666
sg30
F0.7777777777777778
sg140
F1.0
sg85
F0.75
sg51
F0.75
sg185
F1.0
sg89
F0.7777777777777777
sg8
F0.75
sg44
F0.6666666666666666
sg13
F0.7777777777777778
sg26
F0.75
sg159
F0.75
sg88
F0.75
sg81
F0.75
sg48
F0.6666666666666666
sg50
F1.0
sg92
F0.75
sS'yB480DNZ70'
p246
F0.75
sg28
F0.7777777777777777
sg16
F1.0
sg6
F0.7000000000000001
sg31
F1.0
sg54
F1.0
sg55
F0.75
sg4
F0.75
sg112
F0.7777777777777778
sg113
F1.0
sg27
F0.75
sg14
F0.8333333333333334
sg64
F0.75
sg96
F0.8888888888888888
sg149
F0.75
sg83
F0.75
sg38
F0.75
sg152
F0.64
sg18
F0.6666666666666666
ssg5
(dp247
g43
F0.75
sg1
F0.6666666666666666
sg154
F1.0
sg108
F0.75
sg45
F0.6666666666666666
sg10
F0.75
sg24
F1.0
sg17
F0.75
sg82
F0.8333333333333334
sg12
F0.7777777777777778
sg41
F0.75
sg84
F1.0
sg66
F0.75
sg7
F0.7777777777777777
sg27
F0.75
sg30
F1.0
sg85
F1.0
sg94
F0.6666666666666666
sg44
F0.75
sg13
F0.7777777777777778
sg26
F0.6666666666666666
sg159
F0.75
sg81
F1.0
sg100
F1.0
sg49
F0.75
sg28
F1.0
sg16
F0.6666666666666666
sg50
F0.75
sg4
F0.75
sg15
F0.8333333333333334
sg64
F0.75
ssg40
(dp248
g17
F1.0
sg12
F1.0
sg154
F0.75
sg26
F1.0
sg7
F1.0
sg39
F1.0
sg149
F1.0
sg100
F1.0
sg120
F0.75
sg38
F1.0
sg192
F0.75
sg36
F1.0
sg15
F1.0
sg64
F1.0
sg84
F1.0
sg152
F1.0
sg185
F1.0
sg104
F1.0
sg156
F1.0
ssg45
(dp249
g13
F1.0
sg5
F1.0
sg26
F1.0
sg108
F1.0
sg10
F1.0
sg41
F1.0
sg30
F1.0
sg91
F1.0
sg50
F1.0
ssS'9493h91NUB'
p250
(dp251
sg219
(dp252
g9
F1.0
sg43
F1.0
sg217
F1.0
ssg53
(dp253
g44
F1.0
sg12
F1.0
sg26
F1.0
sg7
F1.0
sg88
F1.0
sg28
F1.0
sg41
F1.0
sg86
F1.0
sg51
F1.0
sg89
F1.0
ssg118
(dp254
g43
F0.75
sg108
F1.0
sg7
F1.0
sg115
F1.0
sg217
F0.75
sg82
F0.6666666666666666
sg9
F0.75
sg15
F0.6666666666666666
ssS'7o7172ufx2'
p255
(dp256
sg82
(dp257
g43
F1.0
sg17
F1.0
sg13
F1.0
sg5
F1.0
sg26
F1.0
sg7
F1.0
sg92
F1.0
sg9
F1.0
sg217
F1.0
sg12
F1.0
sg199
F1.0
sg81
F1.0
sg15
F1.0
sg243
F1.0
sg16
F1.0
sg118
F1.0
sg30
F1.0
sg83
F1.0
sg51
F1.0
sg54
F1.0
sg85
F1.0
ssS'80nlN05JQ6'
p258
(dp259
S'5SXHhHKGxC'
p260
F1.0
ssS'stK4H8Vit6'
p261
(dp262
sg105
(dp263
g44
F1.0
sg12
F1.0
sg104
F1.0
ssg99
(dp264
g17
F1.0
sg97
F1.0
sg241
F1.0
ssg84
(dp265
g43
F1.0
sg17
F1.0
sg154
F0.7777777777777777
sg5
F1.0
sg40
F1.0
sg192
F0.75
sg12
F1.0
sg66
F1.0
sg7
F1.0
sg27
F1.0
sg120
F0.75
sg29
F1.0
sg65
F1.0
sg30
F1.0
sg51
F1.0
sg50
F1.0
sg13
F1.0
sg26
F1.0
sg159
F1.0
sg81
F1.0
sg100
F1.0
sg28
F1.0
sg16
F1.0
sg6
F1.0
sg31
F1.0
sg54
F1.0
sg55
F1.0
sg152
F1.0
sg260
F1.0
sg15
F1.0
sg123
F1.0
ssg66
(dp266
g17
F1.0
sg12
F1.0
sg62
F1.0
sg26
F1.0
sg7
F1.0
sg28
F1.0
sg30
F0.75
sg5
F0.75
sg84
F1.0
sg65
F1.0
ssS'verm1Wp12u'
p267
(dp268
sS'XGFd357i6u'
p269
(dp270
sS'k4gaj1r2bT'
p271
(dp272
sS'12ws2Vy47j'
p273
(dp274
sg104
(dp275
g44
F1.0
sg12
F1.0
sg156
F1.0
sg7
F1.0
sg105
F1.0
sg40
F1.0
ssS'jx1ndu85oq'
p276
(dp277
sg160
(dp278
g246
F1.0
sg12
F1.0
sg16
F1.0
sg108
F1.0
ssg117
(dp279
g115
F1.0
ssg85
(dp280
g43
F1.0
sg12
F1.0
sg5
F0.6666666666666666
sg26
F1.0
sg82
F1.0
sg92
F1.0
sg15
F1.0
sg30
F1.0
sg83
F1.0
sg51
F1.0
sg54
F1.0
ssg89
(dp281
g44
F1.0
sg12
F1.0
sg26
F1.0
sg7
F1.0
sg88
F1.0
sg53
F1.0
sg65
F1.0
sg14
F1.0
sg28
F1.0
sg86
F1.0
sg94
F1.0
sg31
F1.0
ssS'K8b2FfNFdp'
p282
(dp283
sS'tB4vqSxzqo'
p284
(dp285
sg186
(dp286
g51
F1.0
sg64
F1.0
sg7
F1.0
ssg81
(dp287
g12
F1.0
sg5
F1.0
sg26
F1.0
sg108
F0.6666666666666666
sg13
F1.0
sg82
F0.8333333333333333
sg15
F0.8333333333333333
sg84
F1.0
sg54
F1.0
sg50
F1.0
ssS'Q0Fp6Da7G1'
p288
(dp289
sS'b4NIYojEYn'
p290
(dp291
sg231
(dp292
g112
F1.0
ssg243
(dp293
g43
F1.0
sg82
F1.0
ssS'9FFmzviIHD'
p294
(dp295
sg6
(dp296
g1
F1.0
sg12
F1.0
sg108
F1.0
sg47
F1.0
sg24
F1.0
sg17
F1.0
sg15
F1.0
sg41
F1.0
sg84
F1.0
sg7
F1.0
sg29
F1.0
sg65
F1.0
sg30
F1.0
sg152
F1.0
sg8
F1.0
sg13
F1.0
sg26
F1.0
sg28
F1.0
sg31
F1.0
sg54
F1.0
sg50
F1.0
sg112
F1.0
sg55
F1.0
sg14
F1.0
sg18
F1.0
ssS'45euP7C062'
p297
(dp298
sS'ySs2g6X4Jx'
p299
(dp300
sg106
(dp301
g9
F1.0
sg149
F1.0
sg44
F1.0
sg52
F1.0
sg26
F1.0
ssS'QDsPNlZ5i1'
p302
(dp303
sg111
(dp304
g26
F1.0
sg31
F1.0
ssS'8cSO1GK90W'
p305
(dp306
sS'P5t2zh16z0'
p307
(dp308
sS'448d2Kv3hw'
p309
(dp310
sg199
(dp311
g43
F1.0
sg15
F1.0
sg51
F1.0
sg82
F1.0
ssg121
(dp312
g64
F1.0
sg51
F0.75
sg100
F0.75
ssS'jw3jOU9C8I'
p313
(dp314
sS'i5dD6Xy8jL'
p315
(dp316
sS'Vc0J7iVot4'
p317
(dp318
sS'0BrbPbwCMz'
p319
(dp320
sS'MCA1W52H2T'
p321
(dp322
sg123
(dp323
g84
F1.0
sg13
F1.0
sg100
F1.0
sg29
F1.0
ssg11
(dp324
g1
F1.0
sg19
F1.0
sg108
F1.0
sg49
F1.0
sg16
F1.0
sS'6A16l70g5Q'
p325
F1.0
ssS'Ru21xRreim'
p326
(dp327
sg10
(dp328
g1
F1.0
sg13
F1.0
sg5
F1.0
sg26
F1.0
sg88
F1.0
sg45
F1.0
sg15
F0.75
sg41
F1.0
sg51
F0.75
sg94
F1.0
sg50
F1.0
ssg245
(dp329
g12
F1.0
sg110
F1.0
ssS'lKsX609E6x'
p330
(dp331
sg192
(dp332
g84
F1.0
sg120
F1.0
sg40
F1.0
ssg241
(dp333
g99
F1.0
sg15
F1.0
sg16
F1.0
ssg15
(dp334
g43
F1.0
sg1
F0.7777777777777777
sg154
F0.75
sg5
F0.8333333333333334
sg40
F1.0
sg10
F0.75
sg24
F0.75
sg17
F0.75
sg82
F0.75
sg241
F0.75
sg12
F1.0
sg84
F0.75
sg7
F0.7777777777777778
sg9
F1.0
sg30
F0.7777777777777778
sg51
F0.7777777777777777
sg94
F0.8333333333333333
sg13
F0.75
sg26
F0.8333333333333333
sg159
F1.0
sg81
F0.75
sg28
F0.75
sg16
F1.0
sg6
F0.75
sg118
F1.0
sg54
F1.0
sg85
F0.75
sg217
F1.0
sg260
F1.0
sg199
F1.0
sg64
F1.0
sg83
F0.75
ssS'c7A4cZK28M'
p335
(dp336
sS'QUcO70Q91P'
p337
(dp338
sS'gPaagaJ8aq'
p339
(dp340
sS'uz40H610bF'
p341
(dp342
sg122
(dp343
g12
F1.0
sg100
F0.75
sg152
F0.75
ssS'39Uc7ru04l'
p344
(dp345
sS'694Y3fju01'
p346
(dp347
sg9
(dp348
g43
F1.0
sg1
F0.75
sg12
F1.0
sg26
F0.7777777777777777
sg7
F0.8333333333333333
sg39
F0.75
sg219
F1.0
sg118
F1.0
sg17
F0.75
sg82
F1.0
sg15
F1.0
sg106
F1.0
sg96
F1.0
sg217
F0.8125
sg30
F0.75
sg18
F0.75
sg133
F1.0
ssS'41qrfb88lU'
p349
(dp350
sS'DS5ecUMGJi'
p351
(dp352
sg110
(dp353
g12
F1.0
sg26
F1.0
sg7
F1.0
sg113
F1.0
sg245
F1.0
sg64
F1.0
ssg29
(dp354
g3
F1.0
sg12
F1.0
sg154
F0.75
sg26
F1.0
sg7
F1.0
sg88
F1.0
sg47
F1.0
sg108
F1.0
sg24
F1.0
sg17
F0.875
sg13
F1.0
sg28
F1.0
sg54
F1.0
sg6
F1.0
sg30
F1.0
sg51
F1.0
sg84
F1.0
sg31
F1.0
sg123
F1.0
sg50
F1.0
ssg30
(dp355
g43
F1.0
sg12
F1.0
sg5
F1.0
sg45
F1.0
sg47
F1.0
sg24
F1.0
sg82
F1.0
sg15
F1.0
sg41
F1.0
sg84
F1.0
sg66
F1.0
sg62
F1.0
sg7
F1.0
sg9
F1.0
sg29
F1.0
sg51
F1.0
sg13
F1.0
sg26
F1.0
sg28
F1.0
sg6
F1.0
sg31
F1.0
sg54
F1.0
sg50
F1.0
sg217
F1.0
sg27
F1.0
sg85
F1.0
ssg325
(dp356
g13
F1.0
sg11
F1.0
ssg152
(dp357
g3
F1.0
sg12
F1.0
sg40
F1.0
sg7
F1.0
sg112
F1.0
sg84
F1.0
sg108
F1.0
sg48
F1.0
sg120
F1.0
sg13
F1.0
sg46
F1.0
sg122
F1.0
sg6
F1.0
sg185
F1.0
sg18
F1.0
sg38
F1.0
ssg185
(dp358
g12
F1.0
sg64
F0.75
sg40
F0.6666666666666666
sg7
F0.75
sg152
F1.0
ssg8
(dp359
g1
F1.0
sg12
F1.0
sg26
F1.0
sg7
F1.0
sg112
F1.0
sg14
F1.0
sg6
F1.0
sg31
F1.0
sg18
F1.0
ssg13
(dp360
g1
F1.0
sg12
F0.7777777777777777
sg5
F0.75
sg108
F1.0
sg45
F1.0
sg10
F1.0
sg24
F0.7777777777777778
sg82
F1.0
sg15
F0.75
sg84
F0.7777777777777777
sg91
F1.0
sg62
F1.0
sg7
F0.75
sg27
F0.75
sg29
F1.0
sg65
F1.0
sg30
F1.0
sg325
F1.0
sg51
F1.0
sg94
F1.0
sg26
F1.0
sg159
F0.75
sg88
F1.0
sg81
F1.0
sg100
F0.7777777777777777
sg28
F1.0
sg16
F1.0
sg6
F1.0
sg31
F1.0
sg54
F1.0
sg50
F1.0
sg152
F0.75
sg14
F1.0
sg123
F1.0
ssS'12M70dm49w'
p361
(dp362
sg159
(dp363
g12
F1.0
sg5
F1.0
sg108
F1.0
sg13
F1.0
sg15
F1.0
sg64
F1.0
sg84
F1.0
ssS'y8BlGe62E7'
p364
(dp365
sg46
(dp366
g152
F1.0
sg41
F0.75
sg26
F0.75
sg18
F1.0
ssg48
(dp367
g112
F1.0
sg12
F1.0
sg41
F1.0
sg152
F1.0
sg96
F1.0
ssS'183ppvOXp8'
p368
(dp369
sg246
(dp370
g12
F0.75
sg160
F0.75
ssg28
(dp371
g12
F1.0
sg5
F1.0
sg53
F1.0
sg24
F1.0
sg15
F1.0
sg84
F1.0
sg66
F1.0
sg62
F0.7777777777777778
sg7
F1.0
sg29
F1.0
sg86
F1.0
sg30
F1.0
sg94
F0.75
sg89
F1.0
sg44
F1.0
sg13
F0.7777777777777778
sg26
F1.0
sg88
F1.0
sg6
F1.0
sg31
F1.0
sg54
F1.0
sg50
F1.0
sg96
F1.0
ssS'3008m5T78s'
p372
(dp373
sg161
(dp374
g108
F1.0
ssg52
(dp375
g44
F1.0
sg41
F1.0
sg26
F1.0
sg106
F1.0
ssg50
(dp376
g3
F0.8333333333333333
sg12
F1.0
sg5
F0.8333333333333333
sg26
F0.8333333333333334
sg7
F0.6666666666666666
sg45
F0.8333333333333333
sg112
F1.0
sg10
F0.75
sg108
F1.0
sg13
F0.75
sg29
F0.75
sg81
F0.75
sg28
F0.75
sg41
F0.75
sg6
F0.6666666666666666
sg30
F0.75
sg84
F0.75
sg31
F1.0
sg54
F1.0
ssS'9Ydzn1ubPe'
p377
(dp378
sS'd6MRvZi66J'
p379
(dp380
sg260
(dp381
g258
F1.0
sg15
F1.0
sg84
F1.0
ssg76
(dp382
g39
F1.0
sg64
F1.0
sg7
F1.0
ssg140
(dp383
g113
F1.0
sg12
F1.0
ssg96
(dp384
g12
F1.0
sg26
F0.6666666666666666
sg9
F1.0
sg48
F0.6666666666666666
sg28
F1.0
sg14
F0.8333333333333333
sg94
F0.6666666666666666
sg55
F0.8888888888888888
ssS'odPTXtfS78'
p385
(dp386
s.