(dp0
S'46vx97eEK0'
p1
(dp2
sS'XJyS25Yg27'
p3
(dp4
S'7cEjwssz1R'
p5
F1.0
sS'X5eS5kvC8h'
p6
F1.0
sS'ajPRq0Q08b'
p7
F1.0
sS'XL0eQIoG72'
p8
F1.0
sS'i8f2gg51r5'
p9
F1.0
sS'y5009rpZ12'
p10
F1.0
sS'm64Rgy40OF'
p11
F1.0
sS'Gwk4z777oU'
p12
F1.0
sS'dvG32rxRzQ'
p13
F1.0
sS'34f4oB5Cod'
p14
F1.0
sS'EfN583275t'
p15
F1.0
sS'0jSb6S70X1'
p16
F1.0
sS'5a5qA8VLfI'
p17
F1.0
sS'0U9x5pNv8t'
p18
F1.0
sS'h0UbH181l8'
p19
F1.0
sS'242fhbKRf9'
p20
F1.0
sS'l5eh0S53tB'
p21
F1.0
ssS'MMecgbY11h'
p22
(dp23
sS'8MG4r9aMdu'
p24
(dp25
sS'D08sSQFrq3'
p26
(dp27
sS'J76B3lyQG9'
p28
(dp29
sg7
(dp30
g12
F0.7
sS'yuB6nxh3FX'
p31
F0.8333333333333334
sg8
F0.7740740740740741
sS'02i5jCrfQK'
p32
F0.8214285714285714
sS'c1zVCHxCEz'
p33
F1.0
sg3
F0.7777777777777778
sS'3hSu07XfGd'
p34
F0.890625
sg19
F0.7142857142857143
sS'77y7iIIXuv'
p35
F0.8571428571428572
sS'Dmq6441349'
p36
F1.0
sS'IQ98biy227'
p37
F0.8409090909090909
sS'6Ax4SKe470'
p38
F0.8503401360544218
sS'MrZ99Q697y'
p39
F0.5833333333333334
sg10
F0.8111888111888113
sS'OS2vxzjz6W'
p40
F0.8571428571428571
sg11
F0.75
sg17
F1.0
sS'6jCygPdswz'
p41
F0.9285714285714286
sS'1bJbgQ32E3'
p42
F0.9166666666666666
sg5
F0.7777777777777777
sg6
F0.8285714285714285
sg13
F0.8283333333333334
sg21
F0.8393939393939394
sS'9aw67h1Z47'
p43
F1.0
sS'qL6HDg57R9'
p44
F1.0
sg15
F0.76
sg9
F0.7645502645502646
sg20
F1.0
sg18
F0.8730158730158729
sg14
F0.6071428571428571
sS'5ZR29q8c56'
p45
F1.0
sS'B7l5Zfxxu6'
p46
F1.0
sg16
F1.0
sS'4X3016rdOZ'
p47
F0.9
sS'9EAa0nJjb1'
p48
F0.8611111111111112
ssg35
(dp49
g12
F1.0
sS'Ugr5eIIEf0'
p50
F1.0
sg8
F1.0
sg32
F1.0
sg33
F1.0
sg34
F1.0
sg7
F1.0
sg36
F1.0
sg37
F1.0
sg38
F1.0
sg39
F1.0
sS'88Uhb8760x'
p51
F1.0
sg10
F1.0
sS'8gH5u019ZH'
p52
F1.0
sS'2IaH8665Ha'
p53
F1.0
sg40
F1.0
sg20
F1.0
sS'stK4H8Vit6'
p54
F1.0
sg41
F1.0
sg42
F1.0
sg13
F1.0
sg21
F1.0
sg44
F1.0
sg9
F1.0
sS'mNzo8mGzu9'
p55
F1.0
sg18
F1.0
sg45
F1.0
sS'HvghFVBS5v'
p56
F1.0
sg19
F1.0
sS'odPTXtfS78'
p57
F1.0
sg47
F1.0
sg48
F1.0
ssS'i5Y9A05Ph8'
p58
(dp59
sS'R398qG76GC'
p60
(dp61
sg51
(dp62
g50
F0.7777777777777777
sg52
F1.0
sg33
F0.7916666666666666
sg53
F0.7777777777777777
sg35
F1.0
sg17
F0.8333333333333334
sg20
F1.0
ssS'qvGwtJZv09'
p63
(dp64
sS'EaUoBdvBdC'
p65
(dp66
g56
F1.0
ssg53
(dp67
g33
F1.0
sg52
F1.0
sg35
F1.0
sg51
F1.0
ssS'Axp5cwW7T8'
p68
(dp69
g19
F0.75
ssS'81E41tTtV9'
p70
(dp71
sS'075kbY53c1'
p72
(dp73
sg11
(dp74
g3
F0.875
sg14
F0.6666666666666666
sg8
F0.6666666666666666
sg9
F0.75
sg10
F0.8888888888888888
sg7
F0.7363636363636363
sg33
F1.0
sg13
F0.71875
sg6
F1.0
sg44
F0.75
sg19
F0.6666666666666666
sg12
F0.75
sg17
F0.75
sg18
F0.7777777777777778
sg42
F1.0
sg38
F0.8333333333333334
sg48
F0.8333333333333334
sg21
F0.7878787878787877
ssS'2J2SH6Fk63'
p75
(dp76
sg42
(dp77
g7
F0.8012820512820512
sg8
F1.0
sg32
F0.8333333333333334
sg33
F1.0
sg34
F1.0
sg19
F1.0
sg35
F1.0
sg36
F1.0
sg37
F1.0
sg38
F1.0
sg39
F0.6666666666666666
sg10
F1.0
sg40
F0.6666666666666666
sg11
F0.8333333333333333
sg41
F0.8541666666666666
sg6
F0.75
sg13
F0.875
sg21
F0.75
sg44
F0.8666666666666666
sg15
F0.7777777777777777
sg9
F0.75
sg20
F1.0
sg48
F0.7777777777777777
sg18
F1.0
sg16
F1.0
ssS'E38It7fjg0'
p78
(dp79
sS'3EWyQLUo83'
p80
(dp81
sS'XqBaV46VbC'
p82
(dp83
sg21
(dp84
g12
F0.6428571428571428
sg7
F0.730769230769231
sg8
F0.8285714285714285
sg32
F0.6785714285714286
sg33
F1.0
sg3
F1.0
sg34
F0.75
sg19
F0.6938775510204083
sg35
F0.8125
sg36
F1.0
sg37
F0.8888888888888888
sg38
F0.82
sg39
F0.75
sg10
F0.9
sS'EV28POlwE4'
p85
F1.0
sg40
F0.6875
sg11
F0.6629629629629631
sg17
F1.0
sg41
F0.8333333333333334
sg42
F1.0
sg6
F0.6249999999999999
sg13
F0.8095238095238094
sg43
F1.0
sg44
F0.826530612244898
sg15
F1.0
sg9
F0.7307692307692308
sg20
F1.0
sg18
F0.8541666666666666
sg14
F0.6666666666666666
sg31
F0.9
sS'z1iLCTB32T'
p86
F0.875
sg45
F1.0
sg46
F1.0
sS'4pzSijxuK6'
p87
F0.8800000000000001
sg16
F0.75
sg47
F0.9
sg48
F0.8666666666666666
ssS'm9a501e1MM'
p88
(dp89
sS'7o7172ufx2'
p90
(dp91
sS'11fnXrq9Jf'
p92
(dp93
sS'7y5NJZ7S6u'
p94
(dp95
sg46
(dp96
g6
F1.0
sg7
F1.0
sg21
F1.0
sg33
F1.0
sS'QS4cvQ8w0o'
p97
F1.0
sg13
F1.0
sg36
F1.0
sg18
F1.0
ssS'LjgZcY49TV'
p98
(dp99
sS'rnOGP59582'
p100
(dp101
sg20
(dp102
g3
F0.625
sg50
F1.0
sg8
F1.0
sg32
F1.0
sg34
F1.0
sg7
F1.0
sg35
F1.0
sg36
F1.0
sg37
F0.8333333333333334
sg51
F1.0
sg10
F0.8
sg52
F0.7777777777777778
sg40
F1.0
sg17
F1.0
sS'6A16l70g5Q'
p103
F1.0
sg41
F1.0
sg42
F1.0
sg13
F1.0
sg21
F0.8571428571428571
sg43
F1.0
sg44
F0.8
sg15
F0.7777777777777777
sg9
F1.0
sg47
F0.75
sg18
F1.0
sg19
F1.0
sg48
F1.0
ssS'oeTCjHG37z'
p104
(dp105
sg45
(dp106
g7
F0.7777777777777777
sg8
F0.8333333333333333
sg21
F1.0
sg10
F0.75
sg33
F0.8333333333333334
sg34
F0.75
sg13
F1.0
sg35
F0.6666666666666666
sg9
F0.7777777777777777
sg36
F1.0
sg17
F1.0
sg41
F0.75
sg38
F0.7777777777777777
sg18
F1.0
ssg56
(dp107
S'1kKxS8urAH'
p108
F0.8571428571428571
sg65
F0.75
sg54
F0.85
sg35
F0.6666666666666666
sg57
F1.0
sg55
F1.0
ssS'1to8tgu4IT'
p109
(dp110
sg86
(dp111
S'rE6U5574qn'
p112
F0.75
sg87
F1.0
sg10
F1.0
sg85
F1.0
sg21
F1.0
ssS'55jl7IFg3z'
p113
(dp114
sS'x64anap2Kz'
p115
(dp116
sS'668lBbaKFE'
p117
(dp118
sS'78t79xOebG'
p119
(dp120
g112
F1.0
sg6
F1.0
sg18
F1.0
ssS'0u17bw7v7w'
p121
(dp122
sg12
(dp123
g3
F1.0
sg31
F0.6
sg8
F1.0
sg32
F1.0
sg33
F1.0
sS'K4IIshw37g'
p124
F1.0
sg34
F1.0
sg7
F1.0
sg35
F1.0
sg37
F0.8333333333333334
sg38
F1.0
sg10
F1.0
sg40
F1.0
sg11
F1.0
sg17
F1.0
sg41
F1.0
sg47
F1.0
sg6
F1.0
sg13
F1.0
sg21
F1.0
sg44
F1.0
sg15
F1.0
sg9
F1.0
sS'MPqJdqnPtc'
p125
F1.0
sg18
F1.0
sg19
F1.0
sg16
F1.0
sg48
F1.0
ssg31
(dp126
g12
F1.0
sg7
F1.0
sg8
F0.6666666666666666
sg21
F1.0
sg10
F0.7777777777777778
sg44
F1.0
sg40
F1.0
sg19
F0.7777777777777777
sg41
F1.0
sg37
F0.7777777777777777
ssS'Qwq8d0du28'
p127
(dp128
sS'P5t2zh16z0'
p129
(dp130
sS'yDO9pl8GC0'
p131
(dp132
sg97
(dp133
g46
F1.0
sS'z9svx3mA4s'
p134
F1.0
ssS'YvD7H8XduF'
p135
(dp136
sS'GBwY1iQUSw'
p137
(dp138
sg36
(dp139
g6
F1.0
sg14
F1.0
sg8
F1.0
sg21
F0.7777777777777778
sg10
F1.0
sg32
F1.0
sg33
F1.0
sg45
F1.0
sg13
F1.0
sg34
F1.0
sg46
F1.0
sg7
F1.0
sg35
F1.0
sg9
F1.0
sg37
F1.0
sg48
F1.0
sg41
F0.7333333333333334
sg42
F1.0
sg38
F1.0
sg20
F1.0
sg18
F1.0
ssg38
(dp140
g12
F0.8
sg7
F0.79004329004329
sg8
F0.7045454545454545
sg32
F0.8333333333333334
sg33
F0.9444444444444443
sg34
F0.75
sg19
F0.6666666666666666
sg35
F0.8333333333333333
sg36
F0.75
sg37
F0.9333333333333332
sg39
F0.6666666666666666
sg10
F1.0
sg40
F0.75
sg11
F0.7999999999999999
sg17
F1.0
sg41
F0.8888888888888888
sg42
F1.0
sg6
F0.75
sg13
F0.7333333333333334
sg21
F0.8666666666666666
sg44
F1.0
sg15
F1.0
sg9
F0.6444444444444445
sg47
F0.75
sg14
F0.6666666666666666
sg18
F0.75
sg45
F0.7777777777777778
sg48
F0.7777777777777777
ssg39
(dp141
g6
F1.0
sg7
F1.0
sg8
F1.0
sg21
F1.0
sg34
F0.75
sg13
F1.0
sg35
F1.0
sg9
F1.0
sg48
F1.0
sg42
F1.0
sg38
F1.0
sg18
F1.0
ssS'9hs21hUG5O'
p142
(dp143
sg10
(dp144
g3
F1.0
sg7
F0.9272727272727272
sg8
F0.9
sg32
F1.0
sg33
F1.0
sg12
F0.8125
sg34
F0.8333333333333334
sg19
F0.8333333333333334
sg35
F1.0
sg36
F1.0
sg37
F0.9047619047619048
sg38
F1.0
sg85
F1.0
sg40
F1.0
sg11
F0.7777777777777778
sg17
F1.0
sg41
F0.9
sg42
F1.0
sg13
F0.888888888888889
sg21
F1.0
sg43
F1.0
sg44
F1.0
sg15
F1.0
sg9
F0.9444444444444445
sg20
F1.0
sg18
F1.0
sg14
F0.7222222222222222
sg31
F1.0
sg86
F1.0
sg45
F1.0
sg87
F1.0
sg16
F1.0
sg47
F0.8333333333333334
sg48
F1.0
ssS'yf2V5ll9mN'
p145
(dp146
sS'7oiAa7MlW2'
p147
(dp148
sS'6O31vedZbI'
p149
(dp150
sS'45TTYcotWk'
p151
(dp152
sS'8ZPoEJbXB7'
p153
(dp154
g6
F0.75
ssS'z2VBXzb65e'
p155
(dp156
sg41
(dp157
g12
F0.875
sg31
F0.7222222222222223
sg8
F0.8888888888888888
sg32
F1.0
sg33
F1.0
sg34
F0.8611111111111112
sg7
F0.9047619047619048
sg35
F1.0
sg36
F1.0
sg37
F0.8333333333333334
sg38
F0.8333333333333334
sg10
F1.0
sg40
F1.0
sg17
F1.0
sg47
F0.75
sg42
F1.0
sg6
F1.0
sg13
F0.875
sg21
F1.0
sg44
F1.0
sg15
F1.0
sg9
F1.0
sg125
F1.0
sg20
F1.0
sg18
F1.0
sg14
F0.625
sg45
F1.0
sg19
F0.8400000000000001
sg48
F1.0
ssS'Fm7ESoRh9v'
p158
(dp159
sS'SH1cSNDIA8'
p160
(dp161
sg6
(dp162
g3
F1.0
sg7
F1.0
sg8
F1.0
sg32
F0.7222222222222222
sg33
F1.0
sg12
F0.75
sg19
F1.0
sg36
F1.0
sg38
F1.0
sg39
F1.0
sS'66Ak255E3j'
p163
F1.0
sg11
F1.0
sg153
F1.0
sg48
F1.0
sg42
F0.6666666666666666
sg5
F1.0
sg13
F1.0
sg21
F1.0
sg46
F1.0
sg9
F1.0
sg125
F0.8666666666666667
sg47
F1.0
sg41
F0.75
sg18
F1.0
sg119
F1.0
ssS'0493L6bGa9'
p164
(dp165
sS'pI9Tpj13ty'
p166
(dp167
sS's9O034dIc4'
p168
(dp169
sS'5yasLi1Avt'
p170
(dp171
sS'QQTAp3k3UP'
p172
(dp173
sg125
(dp174
g6
F0.7333333333333334
sg41
F1.0
sg12
F1.0
sS'txnqGG764s'
p175
F1.0
sg40
F0.75
ssS'u004wY493z'
p176
(dp177
sS'hwF4tyWU50'
p178
(dp179
sg48
(dp180
g12
F0.75
sg7
F0.8888888888888888
sg8
F0.85
sg32
F1.0
sg33
F1.0
sg34
F0.8400000000000001
sg19
F0.8400000000000001
sg35
F1.0
sg36
F1.0
sg37
F0.8333333333333334
sg38
F0.7777777777777777
sg39
F1.0
sg10
F1.0
sg11
F0.7777777777777777
sg17
F1.0
sg41
F1.0
sg42
F1.0
sg6
F1.0
sg13
F0.8833333333333333
sg21
F1.0
sg15
F1.0
sg9
F0.9166666666666666
sg20
F1.0
sg47
F1.0
sg18
F1.0
ssg14
(dp181
g3
F1.0
sg7
F1.0
sg8
F1.0
sg21
F1.0
sg10
F1.0
sg33
F1.0
sg11
F1.0
sg34
F1.0
sg13
F1.0
sg9
F1.0
sg36
F1.0
sg41
F1.0
sg37
F1.0
sg38
F1.0
sg18
F1.0
ssS'USdRVl9AOe'
p182
(dp183
sS'UEArk7W20r'
p184
(dp185
sS'5yM8I4Uut9'
p186
(dp187
sg87
(dp188
g86
F1.0
sg10
F1.0
sg85
F1.0
sg21
F1.0
ssg15
(dp189
g3
F1.0
sg7
F0.8857142857142858
sg8
F1.0
sg21
F0.7777777777777777
sg10
F0.7777777777777777
sg33
F1.0
sg13
F1.0
sg124
F0.6666666666666666
sg12
F0.8
sg44
F0.75
sg34
F1.0
sg19
F0.7916666666666666
sg48
F1.0
sg17
F1.0
sg37
F0.7777777777777778
sg41
F0.6666666666666666
sg42
F0.7777777777777777
sg38
F1.0
sg20
F0.8333333333333334
sg18
F0.8333333333333334
ssg50
(dp190
g51
F0.75
sg52
F1.0
sg33
F0.75
sg35
F1.0
sg17
F0.7777777777777777
sg103
F1.0
sg20
F1.0
ssg8
(dp191
g12
F0.8333333333333333
sg31
F1.0
sg32
F0.75
sg33
F1.0
sg3
F0.5333333333333333
sg34
F0.9027777777777778
sg7
F0.8888888888888888
sg35
F0.8333333333333333
sg36
F1.0
sg37
F1.0
sg38
F1.0
sg39
F0.6666666666666666
sg10
F0.8400000000000001
sg40
F0.75
sg11
F0.8333333333333334
sg17
F1.0
sg41
F1.0
sg42
F0.9
sg5
F0.75
sg6
F0.625
sg13
F0.8148148148148148
sg21
F0.783882783882784
sg43
F1.0
sg44
F1.0
sg15
F0.6875
sg9
F0.825
sg20
F1.0
sg18
F1.0
sg14
F0.7333333333333334
sg45
F1.0
sg19
F0.7857142857142857
sg16
F1.0
sg47
F0.7916666666666666
sg48
F0.8571428571428571
ssS'tyU2s0MBzm'
p192
(dp193
sg32
(dp194
g12
F1.0
sg7
F0.825
sg8
F0.8333333333333333
sg33
F1.0
sg34
F0.7777777777777777
sg19
F1.0
sg35
F0.8125
sg36
F0.6666666666666666
sg37
F0.6666666666666666
sg38
F1.0
sg10
F0.75
sg40
F1.0
sg17
F1.0
sg48
F1.0
sg42
F0.75
sg6
F1.0
sg13
F0.8214285714285714
sg21
F1.0
sg44
F1.0
sg9
F1.0
sg20
F0.75
sg47
F1.0
sg41
F0.8666666666666667
sg18
F0.6666666666666666
ssS'9493h91NUB'
p195
(dp196
sg33
(dp197
g12
F0.6499999999999999
sg50
F1.0
sg8
F0.7818181818181819
sg32
F0.625
sg34
F0.6944444444444445
sg7
F0.8269230769230769
sg35
F0.8
sg36
F0.75
sg37
F0.8571428571428572
sg38
F0.8333333333333334
sg51
F0.8125
sg10
F0.875
sg52
F0.75
sg53
F0.7777777777777777
sg40
F0.75
sg11
F1.0
sg17
F1.0
sg41
F0.875
sg42
F0.75
sg6
F1.0
sg13
F0.7962962962962963
sg21
F1.0
sg46
F1.0
sg44
F0.75
sg15
F1.0
sg9
F0.7555555555555555
sg18
F0.8
sg14
F0.6666666666666666
sg45
F0.8888888888888888
sg19
F0.6666666666666666
sg47
F0.8333333333333334
sg48
F0.875
ssg124
(dp198
S'740FTSQ19O'
p199
F1.0
sg12
F1.0
sg15
F1.0
ssg34
(dp200
g12
F1.0
sg7
F1.0
sg8
F1.0
sg32
F1.0
sg33
F1.0
sg19
F1.0
sg35
F1.0
sg36
F1.0
sg37
F1.0
sg38
F1.0
sg39
F1.0
sg10
F1.0
sg40
F1.0
sg41
F1.0
sg17
F1.0
sg48
F1.0
sg42
F1.0
sg13
F1.0
sg21
F1.0
sg43
F1.0
sg44
F1.0
sg15
F1.0
sg9
F1.0
sg20
F1.0
sg47
F1.0
sg14
F1.0
sg18
F1.0
sg45
F1.0
ssS'80nlN05JQ6'
p201
(dp202
sg54
(dp203
g108
F0.75
sg56
F0.8
sg35
F0.75
sg55
F1.0
ssS'YWe8V668Uz'
p204
(dp205
sS'5LMy832c47'
p206
(dp207
sg37
(dp208
g12
F1.0
sg31
F0.7777777777777777
sg8
F0.8484848484848485
sg32
F1.0
sg33
F0.875
sg34
F0.8400000000000001
sg7
F0.8828125
sg35
F0.8333333333333334
sg36
F0.75
sg38
F0.8333333333333334
sg10
F1.0
sg40
F1.0
sg17
F1.0
sg41
F0.8666666666666667
sg42
F0.75
sg13
F0.8701298701298701
sg21
F1.0
sg43
F1.0
sg44
F1.0
sg15
F1.0
sg9
F0.7916666666666666
sg20
F1.0
sg18
F0.8285714285714285
sg14
F1.0
sg19
F1.0
sg47
F1.0
sg48
F0.7777777777777777
ssS'XNEgfvXx50'
p209
(dp210
sS'XGFd357i6u'
p211
(dp212
sS'w33QZ9Q64W'
p213
(dp214
sS'74ouxlq51o'
p215
(dp216
sS'eZRzEYP9oJ'
p217
(dp218
sS'jx1ndu85oq'
p219
(dp220
sS'4tR4H9u4Zn'
p221
(dp222
sS'Si4v9635O3'
p223
(dp224
sg163
(dp225
g6
F1.0
sg18
F1.0
ssg18
(dp226
g12
F1.0
sg7
F1.0
sg8
F1.0
sg32
F1.0
sg33
F1.0
sg3
F1.0
sg34
F1.0
sg19
F1.0
sg35
F1.0
sg36
F1.0
sg37
F1.0
sg38
F1.0
sg39
F1.0
sg10
F1.0
sg40
F1.0
sg163
F1.0
sg11
F1.0
sg17
F1.0
sg41
F1.0
sg42
F1.0
sg6
F1.0
sg13
F1.0
sg21
F1.0
sg44
F1.0
sg15
F1.0
sg9
F1.0
sg20
F1.0
sg48
F1.0
sg14
F1.0
sg45
F1.0
sg46
F1.0
sg16
F1.0
sg119
F1.0
ssS'jdT9cZAxyb'
p227
(dp228
sg5
(dp229
g3
F1.0
sg7
F1.0
sg8
F1.0
sg6
F1.0
ssS't4K5z0e2NZ'
p230
(dp231
g199
F1.0
ssg175
(dp232
g125
F1.0
ssg43
(dp233
g7
F1.0
sg8
F1.0
sg21
F1.0
sg10
F0.75
sg37
F1.0
sg34
F0.8333333333333333
sg13
F1.0
sg19
F0.8333333333333333
sg20
F1.0
sg47
F1.0
ssS'HOjPAm59jv'
p234
(dp235
sS'b4NIYojEYn'
p236
(dp237
sS'3k85qY4Y2B'
p238
(dp239
sS'6s8DOcciCW'
p240
(dp241
sS'XUwJ9E07Zd'
p242
(dp243
sg9
(dp244
g3
F1.0
sg7
F0.9259259259259258
sg8
F0.9
sg32
F1.0
sg33
F1.0
sg12
F0.8125
sg34
F0.7777777777777778
sg19
F0.8400000000000001
sg35
F1.0
sg36
F1.0
sg37
F0.875
sg38
F0.8666666666666666
sg39
F1.0
sg10
F1.0
sg40
F1.0
sg11
F0.8333333333333333
sg17
F1.0
sg41
F1.0
sg42
F1.0
sg6
F1.0
sg13
F0.8833333333333333
sg21
F1.0
sg44
F1.0
sg47
F0.8333333333333334
sg20
F1.0
sg18
F1.0
sg14
F0.6666666666666666
sg45
F1.0
sg48
F1.0
ssS'ySs2g6X4Jx'
p245
(dp246
sg55
(dp247
g54
F0.8333333333333334
sg108
F1.0
sg57
F1.0
sg35
F0.7777777777777777
sg56
F1.0
ssS'g209g5Vve6'
p248
(dp249
sS'8cSO1GK90W'
p250
(dp251
sS'RajLsf9Q1z'
p252
(dp253
sS'S2KFxgwMsH'
p254
(dp255
sS'1k3GIfwBw6'
p256
(dp257
sS'nOkrXE4gnk'
p258
(dp259
sg52
(dp260
g50
F1.0
sg51
F1.0
sg33
F1.0
sg53
F1.0
sg35
F1.0
sg103
F1.0
sg20
F0.8333333333333334
ssS'2oNLCndtam'
p261
(dp262
sS'tlJn3I40bf'
p263
(dp264
sS'bcoY3s64sj'
p265
(dp266
sg19
(dp267
g3
F1.0
sg31
F1.0
sg8
F1.0
sg32
F1.0
sg33
F1.0
sg12
F1.0
sg34
F1.0
sg7
F1.0
sg35
F1.0
sg37
F1.0
sg38
F1.0
sg10
F1.0
sg40
F1.0
sg68
F1.0
sg11
F1.0
sg17
F1.0
sg41
F1.0
sg42
F0.7777777777777777
sg6
F1.0
sg13
F1.0
sg21
F1.0
sg43
F1.0
sg44
F0.8333333333333334
sg15
F0.8125
sg9
F1.0
sg20
F1.0
sg18
F1.0
sg47
F0.7916666666666667
sg48
F1.0
ssS'bnNE2RRUsd'
p268
(dp269
sg108
(dp270
g56
F0.761904761904762
sg54
F0.7777777777777777
sg55
F0.75
ssS'41qrfb88lU'
p271
(dp272
sS'xH487WMLoS'
p273
(dp274
sg85
(dp275
g87
F0.8125
sg86
F1.0
sg21
F0.9400000000000001
sg10
F0.8125
ssg40
(dp276
g12
F0.8888888888888888
sg7
F0.8690476190476191
sg8
F0.75
sg32
F1.0
sg33
F1.0
sg34
F0.75
sg19
F1.0
sg35
F0.75
sg37
F0.875
sg38
F1.0
sg10
F0.8
sg17
F1.0
sg41
F0.875
sg42
F0.6666666666666666
sg13
F0.7999999999999999
sg21
F1.0
sg44
F1.0
sg9
F1.0
sg125
F1.0
sg20
F0.75
sg47
F1.0
sg31
F0.7222222222222223
sg18
F0.6666666666666666
ssS'TF9ADS4g8k'
p277
(dp278
sg17
(dp279
g3
F1.0
sg50
F1.0
sg8
F0.8333333333333333
sg32
F0.6666666666666666
sg33
F1.0
sg12
F0.75
sg34
F0.8125
sg7
F0.8333333333333334
sg37
F1.0
sg38
F0.7777777777777777
sg51
F1.0
sg10
F0.75
sg40
F0.75
sg11
F1.0
sg41
F0.7777777777777777
sg13
F1.0
sg21
F1.0
sg44
F0.8125
sg15
F1.0
sg9
F0.8055555555555556
sg20
F1.0
sg47
F1.0
sg45
F1.0
sg18
F1.0
sg19
F0.8125
sg48
F1.0
ssg103
(dp280
g50
F1.0
sg20
F1.0
sg52
F1.0
ssS'9QD9297moO'
p281
(dp282
sS'Hd9GW3f95j'
p283
(dp284
sg13
(dp285
g3
F1.0
sg7
F0.925
sg8
F0.8968253968253967
sg32
F1.0
sg33
F1.0
sg12
F1.0
sg34
F1.0
sg19
F0.8400000000000001
sg35
F1.0
sg36
F1.0
sg37
F0.8714285714285713
sg38
F1.0
sg39
F1.0
sg10
F0.8571428571428572
sg40
F1.0
sg11
F1.0
sg17
F1.0
sg41
F1.0
sg42
F1.0
sg6
F1.0
sg21
F1.0
sg43
F1.0
sg44
F1.0
sg15
F1.0
sg9
F1.0
sg20
F1.0
sg18
F1.0
sg14
F1.0
sg45
F1.0
sg46
F1.0
sg47
F1.0
sg48
F1.0
ssS'12M70dm49w'
p286
(dp287
sS'56dTCKdr74'
p288
(dp289
sS'y8BlGe62E7'
p290
(dp291
sg112
(dp292
g86
F1.0
sg119
F1.0
ssg134
(dp293
g97
F0.75
ssS'7rP4RofmNF'
p294
(dp295
sS'183ppvOXp8'
p296
(dp297
sS'yB480DNZ70'
p298
(dp299
sg44
(dp300
g12
F1.0
sg31
F1.0
sg8
F0.8333333333333334
sg32
F1.0
sg33
F1.0
sg34
F0.7777777777777778
sg7
F0.7983193277310924
sg35
F0.75
sg37
F0.72
sg38
F1.0
sg10
F0.7678571428571429
sg40
F1.0
sg11
F0.6666666666666666
sg17
F1.0
sg41
F0.8095238095238094
sg42
F0.64
sg13
F0.6666666666666667
sg21
F0.8186813186813187
sg15
F1.0
sg9
F1.0
sg20
F0.7333333333333333
sg18
F0.5833333333333334
sg19
F1.0
sg16
F1.0
sg47
F1.0
ssg47
(dp301
g12
F0.75
sg7
F0.8333333333333333
sg8
F0.75
sg32
F0.7333333333333334
sg33
F0.8333333333333334
sg34
F0.6666666666666666
sg19
F0.65
sg35
F0.7777777777777777
sg37
F0.8333333333333334
sg38
F0.75
sg10
F0.75
sg40
F0.75
sg17
F1.0
sg41
F0.75
sg6
F1.0
sg13
F0.8666666666666667
sg21
F0.8666666666666668
sg43
F1.0
sg44
F0.75
sg9
F0.7777777777777778
sg20
F1.0
sg48
F1.0
ssg199
(dp302
g124
F1.0
sg230
F1.0
ssS'443ptPwtPd'
p303
(dp304
sS'd6MRvZi66J'
p305
(dp306
S'LP15lX652E'
p307
F0.75
ssS'h9Tx9ulI5Q'
p308
(dp309
sS'5SXHhHKGxC'
p310
(dp311
sS'694Y3fju01'
p312
(dp313
sS'6Kbx2aEeUm'
p314
(dp315
sg307
(dp316
g305
F1.0
ssg16
(dp317
g3
F0.75
sg7
F0.875
sg8
F0.75
sg21
F0.6666666666666666
sg10
F0.8333333333333333
sg12
F0.75
sg44
F1.0
sg42
F0.75
sg18
F0.8888888888888888
ssS'5g8708DBB0'
p318
(dp319
sg57
(dp320
g56
F1.0
sg35
F1.0
sg55
F1.0
ss.