(dp0
S'XJyS25Yg27'
p1
(dp2
S'7cEjwssz1R'
p3
F1.0
sS'ajPRq0Q08b'
p4
F1.0
sS'XL0eQIoG72'
p5
F1.0
sS'Ugr5eIIEf0'
p6
F1.0
sS'EfN583275t'
p7
F1.0
sS'Hd9GW3f95j'
p8
F1.0
ssg4
(dp9
g1
F0.7777777777777777
sg6
F0.8125
sS'b2W4ZO3uLV'
p10
F0.8
sS'tyU2s0MBzm'
p11
F0.8857142857142858
sS'Qwq8d0du28'
p12
F0.7380952380952381
sS'8gH5u019ZH'
p13
F0.7777777777777777
sS'9493h91NUB'
p14
F0.8125
sS'c1zVCHxCEz'
p15
F0.8958333333333334
sS'Gwk4z777oU'
p16
F0.6875
sS'yDO9pl8GC0'
p17
F0.75
sS'bcoY3s64sj'
p18
F0.75
sS'QS4cvQ8w0o'
p19
F1.0
sS'h0UbH181l8'
p20
F0.8163265306122448
sg5
F0.717032967032967
sS'5LMy832c47'
p21
F1.0
sS'IQ98biy227'
p22
F0.7592592592592592
sS'6Ax4SKe470'
p23
F0.8055555555555555
sS'XNEgfvXx50'
p24
F1.0
sS'bt0ZuHaCGY'
p25
F0.7708333333333334
sS'MrZ99Q697y'
p26
F0.5833333333333334
sS'88Uhb8760x'
p27
F1.0
sS'y5009rpZ12'
p28
F0.8271604938271605
sS'1kKxS8urAH'
p29
F0.75
sS'C18qWKq212'
p30
F0.8333333333333334
sS'hwF4tyWU50'
p31
F0.8333333333333334
sS'5a5qA8VLfI'
p32
F0.8125
sS'PE6x6PxZ42'
p33
F0.8666666666666667
sS'4X3016rdOZ'
p34
F0.8333333333333333
sS'E38It7fjg0'
p35
F0.72
sg8
F0.8333333333333334
sS'QER9PsCgBT'
p36
F0.8611111111111112
sg3
F0.6666666666666666
sS'iyLqACAFyl'
p37
F0.7777777777777777
sS'l5eh0S53tB'
p38
F0.8156299840510367
sS'9aw67h1Z47'
p39
F0.75
sS'11fnXrq9Jf'
p40
F1.0
sS'XUwJ9E07Zd'
p41
F1.0
sS'5ey2xUDZTA'
p42
F0.7777777777777778
sS'z9svx3mA4s'
p43
F1.0
sS'dvG32rxRzQ'
p44
F0.7291666666666667
sS'qL6HDg57R9'
p45
F0.8611111111111112
sg7
F0.8333333333333334
sS'i8f2gg51r5'
p46
F0.7395833333333334
sS'MPqJdqnPtc'
p47
F1.0
sS'3hSu07XfGd'
p48
F0.796875
sS'YNGlv7F45C'
p49
F1.0
sS'0U9x5pNv8t'
p50
F0.8730158730158729
sS'g209g5Vve6'
p51
F0.7777777777777777
sS'PpTLi2Qz8E'
p52
F0.6666666666666666
sS'ZP886G3Z76'
p53
F0.7777777777777778
sS'USdRVl9AOe'
p54
F0.7777777777777778
sS'5SXHhHKGxC'
p55
F1.0
sS'879eYkR2Wu'
p56
F1.0
sS'CZDz8OSRfI'
p57
F0.7999999999999999
sS'saNy7ix5ZY'
p58
F1.0
sS'4pzSijxuK6'
p59
F1.0
sS'0jSb6S70X1'
p60
F0.7777777777777778
sS'8rsfNQdio8'
p61
F1.0
sS'78t79xOebG'
p62
F1.0
sS'0u17bw7v7w'
p63
F1.0
ssg5
(dp64
g1
F0.7333333333333334
sg6
F0.75
sg10
F1.0
sg11
F0.8333333333333333
sg14
F0.75
sg15
F1.0
sg16
F0.8400000000000001
sg17
F0.75
sg19
F1.0
sg4
F0.8928571428571429
sg21
F0.75
sg22
F1.0
sg23
F1.0
sg25
F0.8333333333333334
sg27
F0.8125
sg28
F0.8400000000000001
sg29
F0.75
sg30
F0.8333333333333334
sg32
F1.0
sg35
F0.8125
sg8
F1.0
sg36
F1.0
sg3
F0.75
sg44
F0.798076923076923
sg38
F0.7857142857142858
sg41
F1.0
sg42
F0.75
sg43
F0.875
sg45
F1.0
sg7
F0.7777777777777778
sg48
F0.9027777777777778
sg54
F1.0
sg57
F1.0
sg20
F0.7857142857142857
sg59
F0.8400000000000001
sg61
F1.0
sg62
F1.0
sg63
F1.0
ssS'q9Pk62y29S'
p65
(dp66
sg27
(dp67
g4
F1.0
sg5
F1.0
sg25
F1.0
sg15
F1.0
sg48
F1.0
sg19
F1.0
sg22
F1.0
sg23
F0.7777777777777777
sg11
F1.0
sg28
F1.0
sg32
F1.0
sg24
F1.0
sg35
F1.0
sg44
F1.0
sg38
F1.0
sg45
F1.0
sg46
F1.0
sg49
F1.0
sg56
F1.0
sg57
F1.0
sg61
F1.0
sg62
F1.0
ssS'EaUoBdvBdC'
p68
(dp69
g39
F1.0
ssS'1bJbgQ32E3'
p70
(dp71
sg35
(dp72
g16
F0.7777777777777777
sg4
F0.82
sg10
F0.7999999999999999
sg11
F0.7916666666666667
sg15
F0.75
sg48
F0.7777777777777777
sg18
F1.0
sg19
F1.0
sg5
F0.78125
sg21
F0.8888888888888888
sg22
F1.0
sg23
F1.0
sg38
F0.7857142857142857
sg25
F0.7142857142857142
sg27
F1.0
sg29
F0.8333333333333333
sg32
F0.75
sS'6jCygPdswz'
p73
F0.7916666666666667
sg8
F0.75
sS'0KS4yy9G96'
p74
F0.6
sS'X5eS5kvC8h'
p75
F0.8125
sg44
F0.7575757575757575
sS't4K5z0e2NZ'
p76
F0.8
sg40
F1.0
sg43
F1.0
sg7
F0.7777777777777777
sg51
F1.0
sg33
F0.7333333333333334
sg54
F1.0
sg57
F0.8333333333333334
sg59
F0.8125
sg61
F0.75
sg62
F1.0
ssg38
(dp77
g16
F0.64
sg4
F0.6703030303030304
sg10
F0.75
sg11
F0.8333333333333334
sg12
F0.6785714285714286
sg14
F0.8125
sg15
F1.0
sg48
F0.75
sg18
F0.75
sS'80nlN05JQ6'
p78
F0.9166666666666666
sg44
F0.7999999999999999
sg5
F0.8285714285714285
sg21
F0.6666666666666666
sg22
F0.875
sg23
F0.82
sg24
F0.8125
sg25
F0.7333333333333334
sg26
F0.75
sg27
F1.0
sg28
F0.90625
sg29
F0.8285714285714285
sg30
F0.9
sg32
F1.0
sg33
F0.875
sg34
F0.8666666666666666
sg35
F0.6875
sg8
F0.8333333333333334
sg37
F0.7777777777777777
sg39
F1.0
sg42
F0.55
sg40
F0.75
sg45
F0.8055555555555557
sg7
F1.0
sg46
F0.7045454545454545
sg49
F0.8125
sg50
F0.8541666666666666
sg51
F0.8400000000000001
sg52
F0.6666666666666666
sg54
F0.6666666666666666
sg19
F1.0
sg56
F0.8775510204081632
sg57
F0.7999999999999999
sg58
F0.775
sg60
F1.0
sg61
F0.7959183673469388
sg62
F0.75
ssS'AQfVkV1aEx'
p79
(dp80
g48
F0.75
ssS'm9a501e1MM'
p81
(dp82
sg42
(dp83
g36
F0.75
sg26
F1.0
sg16
F1.0
sg4
F0.8401360544217688
sg5
F1.0
sg11
F0.75
sg28
F0.75
sg30
F1.0
sg41
F0.75
sg63
F0.7777777777777777
sg40
F0.75
sg44
F1.0
sg56
F1.0
sg20
F0.75
sg46
F1.0
sg50
F0.8333333333333334
sg22
F0.75
sg38
F0.8333333333333333
ssg40
(dp84
g25
F1.0
sg4
F1.0
sg10
F1.0
sg11
F1.0
sg28
F1.0
sg14
F1.0
sg30
F1.0
sg42
F1.0
sg54
F1.0
sg47
F1.0
sg58
F1.0
sg45
F1.0
sg33
F1.0
sg7
F1.0
sg60
F1.0
sg61
F1.0
sg50
F1.0
sg22
F1.0
sg35
F1.0
sg38
F1.0
ssg58
(dp85
g16
F0.6666666666666666
sg52
F0.6666666666666666
sg10
F0.6666666666666666
sg11
F1.0
sg28
F0.7777777777777778
sg29
F0.75
sg30
F0.75
sg40
F1.0
sg49
F1.0
sg54
F0.6666666666666666
sg4
F1.0
sg46
F0.6111111111111112
sg53
F0.75
sg60
F0.75
sg50
F0.7777777777777778
sg33
F0.8333333333333334
sg62
F1.0
sg38
F0.8055555555555556
ssS'075kbY53c1'
p86
(dp87
sg52
(dp88
g16
F1.0
sg4
F1.0
sg11
F1.0
sg28
F1.0
sg29
F1.0
sg30
F1.0
sg54
F1.0
sg58
F1.0
sg8
F1.0
sg46
F1.0
sg33
F1.0
sg62
F1.0
sg38
F1.0
ssS'HvghFVBS5v'
p89
(dp90
g29
F0.8571428571428571
sg30
F1.0
sg32
F1.0
ssS'1to8tgu4IT'
p91
(dp92
g73
F1.0
sg43
F1.0
sg76
F1.0
ssS'55jl7IFg3z'
p93
(dp94
g22
F1.0
sg11
F1.0
ssS'pI9Tpj13ty'
p95
(dp96
sg62
(dp97
g16
F0.75
sg4
F1.0
sg10
F0.8333333333333334
sg11
F0.7777777777777777
sg12
F0.8888888888888888
sg13
F0.8333333333333334
sg14
F0.75
sg15
F1.0
sg48
F1.0
sg19
F1.0
sg5
F1.0
sg21
F0.75
sg22
F1.0
sg23
F1.0
sg27
F1.0
sg28
F1.0
sg30
F1.0
sg32
F1.0
sg33
F0.75
sg35
F0.75
sg8
F1.0
sg36
F0.8400000000000001
sg44
F1.0
sg38
F1.0
sg58
F0.75
sg46
F1.0
sg47
F0.875
sg50
F1.0
sg52
F0.8333333333333333
sg54
F0.8333333333333333
sg56
F1.0
sg57
F1.0
sg61
F1.0
ssg63
(dp98
g36
F1.0
sg4
F1.0
sg5
F1.0
sg11
F1.0
sg28
F1.0
sg30
F1.0
sg42
F1.0
sg44
F1.0
sg56
F1.0
sg57
F1.0
sg20
F1.0
sg59
F1.0
sg55
F1.0
sg22
F1.0
sg24
F1.0
ssg16
(dp99
g4
F1.0
sg10
F1.0
sg11
F1.0
sg15
F1.0
sg48
F1.0
sg5
F1.0
sg21
F1.0
sg22
F1.0
sg23
F1.0
sg25
F1.0
sg28
F1.0
sg29
F1.0
sg30
F1.0
sg32
F1.0
sg73
F1.0
sg35
F1.0
sg8
F1.0
sg44
F1.0
sg38
F1.0
sg42
F1.0
sg45
F1.0
sg7
F1.0
sg46
F1.0
sg50
F1.0
sg52
F1.0
sg54
F1.0
sg56
F1.0
sg57
F1.0
sg58
F1.0
sg60
F1.0
sg61
F1.0
sg33
F1.0
sg62
F1.0
ssS'VHCF3iE0a4'
p100
(dp101
g11
F0.75
ssg25
(dp102
g16
F1.0
sg4
F0.8787878787878788
sg10
F0.6666666666666666
sg11
F1.0
sg14
F1.0
sg15
F1.0
sg48
F0.7777777777777777
sg19
F0.75
sg5
F0.78125
sg22
F0.7333333333333334
sg23
F1.0
sg27
F0.75
sg28
F0.8400000000000001
sg29
F1.0
sg35
F0.8400000000000001
sg8
F1.0
sg44
F0.8400000000000001
sg38
F1.0
sg40
F0.75
sg45
F1.0
sg7
F1.0
sg31
F1.0
sg51
F1.0
sg54
F1.0
sg57
F1.0
sg61
F1.0
ssg12
(dp103
g4
F0.8333333333333334
sg13
F0.8
sg44
F0.82
sg22
F0.6666666666666666
sg23
F1.0
sg24
F1.0
sg28
F0.8400000000000001
sg32
F1.0
sg33
F0.7857142857142857
sg8
F0.8125
sg36
F0.76
sg37
F0.8125
sg38
F0.7857142857142857
sg39
F0.75
sg45
F0.75
sg7
F1.0
sg46
F1.0
sg47
F0.8285714285714286
sg34
F0.8571428571428571
sg54
F0.85
sg61
F0.78
sg62
F0.9166666666666666
ssg17
(dp104
g4
F1.0
sg5
F1.0
ssg19
(dp105
g25
F0.75
sg51
F0.75
sg4
F0.9
sg27
F1.0
sg11
F0.8333333333333333
sg35
F0.7777777777777777
sg15
F1.0
sg48
F1.0
sg32
F1.0
sg44
F0.8333333333333333
sg8
F1.0
sg61
F1.0
sg5
F1.0
sg22
F1.0
sg23
F1.0
sg62
F1.0
sg38
F1.0
ssg44
(dp106
g16
F1.0
sg4
F1.0
sg10
F1.0
sg11
F1.0
sg12
F1.0
sg15
F1.0
sg48
F1.0
sg18
F1.0
sg19
F1.0
sg20
F1.0
sg5
F1.0
sg21
F1.0
sg22
F1.0
sg23
F1.0
sg24
F1.0
sg25
F1.0
sg27
F1.0
sg28
F1.0
sg29
F1.0
sg30
F1.0
sg32
F1.0
sS'8ZPoEJbXB7'
p107
F1.0
sg33
F1.0
sg35
F1.0
sg8
F1.0
sg36
F1.0
sg37
F1.0
sg38
F1.0
sg39
F1.0
sg42
F1.0
sg43
F1.0
sg45
F1.0
sg7
F1.0
sg46
F1.0
sg49
F1.0
sg34
F1.0
sg51
F1.0
sg54
F1.0
sg56
F1.0
sg57
F1.0
sS'694Y3fju01'
p108
F1.0
sg41
F1.0
sg59
F1.0
sg61
F1.0
sg62
F1.0
sg63
F1.0
ssg23
(dp109
g16
F0.8125
sg4
F0.6994949494949495
sg10
F1.0
sg11
F0.7999999999999999
sg12
F0.6666666666666666
sg13
F0.75
sg15
F0.9444444444444443
sg48
F0.75
sg18
F0.75
sg19
F1.0
sg44
F0.7592592592592592
sg5
F0.7045454545454545
sg22
F0.9333333333333332
sg25
F0.75
sg27
F0.75
sg32
F1.0
sg35
F0.6666666666666666
sg8
F0.75
sg36
F0.7777777777777778
sg37
F0.75
sg38
F0.8666666666666666
sg45
F1.0
sg7
F1.0
sg51
F0.75
sg54
F0.75
sg56
F1.0
sg57
F0.7333333333333334
sg61
F1.0
sg62
F0.7777777777777778
ssg26
(dp110
g4
F1.0
sg38
F1.0
sg30
F1.0
sg42
F1.0
sg48
F1.0
sg46
F1.0
sg50
F1.0
ssg28
(dp111
g16
F0.8125
sg4
F0.911111111111111
sg10
F1.0
sg11
F1.0
sg12
F0.8333333333333334
sg18
F0.75
sg44
F0.875
sg5
F0.890909090909091
sg22
F0.8958333333333334
sg24
F1.0
sg25
F0.8333333333333334
sg27
F1.0
sg29
F0.75
sg30
F1.0
sg31
F1.0
sg32
F1.0
sg107
F1.0
sg33
F0.875
sg34
F0.7777777777777777
sg8
F0.75
sg36
F0.8400000000000001
sg37
F0.7777777777777777
sg38
F1.0
sg39
F1.0
sg40
F1.0
sg41
F1.0
sg42
F1.0
sg43
F1.0
sg58
F0.8333333333333334
sg45
F1.0
sg46
F0.9333333333333332
sg49
F1.0
sg50
F1.0
sg51
F1.0
sg52
F0.75
sg54
F0.75
sg55
F1.0
sg56
F1.0
sg57
F0.75
sg20
F0.8333333333333334
sg59
F1.0
sg60
F1.0
sg62
F1.0
sg63
F1.0
ssg107
(dp112
g61
F0.7777777777777777
sg36
F1.0
sg44
F1.0
sg28
F1.0
ssg73
(dp113
g75
F1.0
sg76
F0.8809523809523809
sg91
F1.0
sg43
F1.0
sg16
F0.8400000000000001
sg57
F0.8333333333333334
sg59
F1.0
sg21
F1.0
sg22
F0.8958333333333334
sg35
F0.8125
sg11
F1.0
ssg74
(dp114
g61
F1.0
sg21
F0.6666666666666666
sg43
F0.6666666666666666
sg11
F0.75
sg35
F1.0
ssg75
(dp115
g73
F0.7777777777777777
sg43
F0.6666666666666666
sg76
F0.75
sg35
F0.8125
ssg7
(dp116
g1
F0.7333333333333334
sg4
F0.9444444444444445
sg10
F0.7083333333333333
sg11
F0.6875
sg12
F0.9333333333333332
sg13
F0.8333333333333334
sg14
F0.75
sg15
F0.8333333333333333
sg16
F0.6875
sg48
F0.75
sg44
F0.8
sg5
F0.8333333333333334
sg21
F0.8125
sg22
F0.7777777777777777
sg23
F0.75
sg25
F0.7777777777777777
sg29
F1.0
sg32
F0.75
sg33
F0.6666666666666666
sg35
F0.7777777777777777
sg36
F0.6666666666666666
sg37
F0.75
sg38
F0.8666666666666667
sg40
F0.75
sg61
F1.0
sg45
F0.6666666666666666
sg47
F0.7916666666666666
sg31
F0.875
sg51
F1.0
sg54
F0.8333333333333333
sg6
F0.6666666666666666
ssg47
(dp117
g36
F1.0
sg37
F1.0
sg12
F0.8285714285714286
sg13
F0.8
sg40
F1.0
sg4
F1.0
sg7
F1.0
sg61
F1.0
sg33
F1.0
sg62
F1.0
ssg31
(dp118
g51
F1.0
sg4
F1.0
sg11
F1.0
sg28
F1.0
sS'2oNLCndtam'
p119
F1.0
sg6
F1.0
sg7
F1.0
sg25
F1.0
ssg50
(dp120
g26
F1.0
sg16
F1.0
sg4
F1.0
sg10
F1.0
sg11
F1.0
sg28
F1.0
sg29
F1.0
sg30
F1.0
sg42
F1.0
sg40
F1.0
sg58
F1.0
sg46
F1.0
sg8
F1.0
sg60
F1.0
sg15
F1.0
sg62
F1.0
sg38
F1.0
ssg54
(dp121
g16
F0.8125
sg4
F1.0
sg10
F1.0
sg11
F1.0
sg12
F0.8
sS'02i5jCrfQK'
p122
F1.0
sg15
F1.0
sg48
F1.0
sg44
F0.7
sg5
F0.7083333333333334
sg21
F1.0
sg23
F1.0
sg25
F0.75
sg28
F1.0
sg29
F0.8333333333333333
sg30
F1.0
sg32
F0.75
sg33
F1.0
sg35
F1.0
sg8
F0.7777777777777777
sg37
F1.0
sg38
F0.7142857142857143
sg40
F1.0
sg58
F1.0
sg7
F0.75
sg46
F0.7777777777777777
sg34
F1.0
sg52
F1.0
sg57
F0.75
sg61
F0.7777777777777777
sg62
F1.0
ssg59
(dp123
g36
F0.7777777777777778
sg57
F0.7999999999999999
sg4
F0.9
sg5
F0.9
sg11
F1.0
sg28
F1.0
sg30
F1.0
sg63
F1.0
sg44
F0.84375
sg56
F1.0
sg18
F0.75
sg20
F0.8333333333333334
sg73
F0.875
sg22
F0.875
sg35
F0.8125
sg76
F0.8333333333333334
ssg6
(dp124
g3
F1.0
sg1
F0.7333333333333334
sg4
F0.8181818181818181
sg5
F1.0
sg30
F1.0
sg7
F1.0
sg32
F0.7777777777777778
sS'6A16l70g5Q'
p125
F1.0
sg31
F1.0
ssg10
(dp126
g16
F1.0
sg4
F1.0
sg5
F1.0
sg11
F1.0
sg15
F1.0
sg48
F1.0
sg21
F1.0
sg22
F1.0
sg23
F1.0
sg25
F1.0
sg28
F1.0
sg30
F1.0
sg32
F1.0
sg35
F1.0
sg8
F1.0
sg44
F1.0
sg38
F1.0
sg40
F1.0
sg58
F1.0
sg7
F1.0
sg46
F1.0
sg50
F1.0
sg54
F1.0
sg45
F1.0
sg61
F1.0
sg62
F1.0
ssg11
(dp127
g16
F0.7777777777777778
sg4
F0.9285714285714286
sg10
F1.0
sg25
F0.8333333333333334
sg14
F1.0
sg15
F1.0
sg119
F1.0
sg48
F0.8125
sg19
F1.0
sg20
F0.875
sg5
F0.8888888888888888
sg21
F1.0
sg22
F0.8333333333333334
sg23
F0.8333333333333334
sg27
F1.0
sg28
F1.0
sg29
F0.75
sg30
F1.0
sg100
F1.0
sg32
F1.0
sg73
F1.0
sg35
F0.8125
sg8
F0.8333333333333334
sg74
F1.0
sg36
F0.8775510204081634
sg44
F0.8571428571428572
sg38
F1.0
sg40
F1.0
sg41
F1.0
sg42
F1.0
sg43
F1.0
sg45
F1.0
sg7
F1.0
sg46
F1.0
sg31
F1.0
sg50
F1.0
sg51
F1.0
sg52
F0.8
sg54
F0.75
sg55
F1.0
sg56
F1.0
sg93
F1.0
sg58
F1.0
sg59
F1.0
sg61
F1.0
sg33
F0.8333333333333334
sg62
F1.0
sg63
F1.0
ssg122
(dp128
g61
F1.0
sg54
F1.0
ssg14
(dp129
g25
F0.75
sg4
F1.0
sg5
F1.0
sg11
F1.0
sg40
F1.0
sg45
F1.0
sg7
F1.0
sg61
F1.0
sg21
F1.0
sg33
F1.0
sg22
F1.0
sg62
F1.0
sg38
F1.0
ssg15
(dp130
g16
F0.6875
sg4
F0.7380952380952381
sg10
F0.75
sg25
F0.75
sg48
F0.6944444444444445
sg18
F0.75
sg19
F1.0
sg5
F0.7818181818181819
sg21
F0.75
sg22
F0.8571428571428572
sg23
F0.8333333333333334
sg11
F0.9
sg27
F0.8125
sg32
F1.0
sg35
F0.7777777777777777
sg8
F0.8333333333333334
sg44
F0.8125
sg38
F1.0
sg45
F0.75
sg7
F1.0
sg50
F0.8
sg54
F0.75
sg56
F1.0
sg57
F0.6666666666666666
sg61
F0.8800000000000001
sg62
F0.7
ssg48
(dp131
g16
F1.0
sg4
F1.0
sg10
F1.0
sg25
F1.0
sg15
F1.0
sg19
F1.0
sg5
F1.0
sg21
F1.0
sg22
F1.0
sg23
F1.0
sg11
F1.0
sg26
F1.0
sg27
F1.0
sg29
F1.0
sg32
F1.0
sg35
F1.0
sg8
F1.0
sg44
F1.0
sg38
F1.0
sg79
F1.0
sg45
F1.0
sg7
F1.0
sg54
F1.0
sg57
F1.0
sg61
F1.0
sg62
F1.0
ssg78
(dp132
g38
F1.0
ssg21
(dp133
g16
F1.0
sg4
F0.7222222222222222
sg10
F0.7999999999999999
sg11
F0.8400000000000001
sg14
F1.0
sg15
F0.7777777777777778
sg48
F0.8
sg5
F1.0
sg29
F1.0
sg33
F1.0
sg35
F0.8333333333333334
sg8
F1.0
sg74
F1.0
sg44
F0.75
sg38
F1.0
sg43
F1.0
sg45
F1.0
sg7
F0.8125
sg51
F1.0
sg73
F0.7777777777777777
sg54
F1.0
sg61
F1.0
sg62
F1.0
ssg22
(dp134
g16
F1.0
sg4
F0.8461538461538461
sg10
F1.0
sg11
F1.0
sg12
F1.0
sg14
F1.0
sg15
F0.875
sg48
F0.8400000000000001
sg19
F1.0
sg44
F0.825
sg5
F0.82
sg23
F0.8333333333333334
sg24
F0.75
sg25
F1.0
sg93
F1.0
sg27
F0.7777777777777777
sg28
F1.0
sg30
F0.75
sg32
F1.0
sg73
F0.85
sg35
F1.0
sg8
F1.0
sg36
F1.0
sg37
F1.0
sS'12M70dm49w'
p135
F0.875
sg38
F1.0
sg39
F1.0
sg40
F1.0
sg42
F0.6666666666666666
sg43
F0.7916666666666666
sg45
F1.0
sg7
F1.0
sg46
F0.8
sg49
F0.8333333333333333
sg34
F1.0
sg33
F1.0
sg55
F1.0
sg57
F0.6666666666666666
sg20
F1.0
sg59
F1.0
sg61
F1.0
sg62
F0.6666666666666666
sg63
F0.75
ssg24
(dp136
g4
F0.875
sg27
F0.8125
sg38
F0.7916666666666666
sg28
F0.8125
sg12
F0.8333333333333333
sg45
F1.0
sg44
F0.75
sg46
F0.875
sg32
F0.75
sg135
F0.625
sg22
F1.0
sg49
F0.6666666666666666
sg63
F1.0
ssS'6Kbx2aEeUm'
p137
(dp138
sg49
(dp139
g4
F0.8666666666666668
sg27
F0.75
sg38
F0.8333333333333333
sg28
F0.8125
sg45
F0.75
sg58
F1.0
sg44
F0.6875
sg46
F0.6071428571428571
sg32
F0.6875
sg34
F0.75
sg22
F0.6875
sg53
F0.75
sg24
F0.75
ssS'jx1ndu85oq'
p140
(dp141
sg53
(dp142
g58
F0.7777777777777777
sg4
F1.0
sg49
F1.0
ssg36
(dp143
g4
F1.0
sg5
F1.0
sg11
F1.0
sg12
F1.0
sg13
F1.0
sg18
F1.0
sg44
F1.0
sg22
F1.0
sg23
F1.0
sg28
F1.0
sg30
F1.0
sg107
F1.0
sg33
F1.0
sg37
F1.0
sg42
F1.0
sg43
F1.0
sg7
F1.0
sg47
F1.0
sg55
F1.0
sg56
F1.0
sg57
F1.0
sg20
F1.0
sg59
F1.0
sg61
F1.0
sg62
F1.0
sg63
F1.0
ssg3
(dp144
g4
F1.0
sg1
F1.0
sg6
F1.0
sg5
F1.0
ssg76
(dp145
g75
F1.0
sg91
F1.0
sg43
F1.0
sg57
F1.0
sg59
F1.0
sg73
F1.0
sg35
F1.0
ssg39
(dp146
g44
F1.0
sg38
F1.0
sg28
F0.75
sg68
F0.75
sg12
F0.75
sg4
F1.0
sg22
F1.0
sg34
F1.0
ssS'b4NIYojEYn'
p147
(dp148
sg41
(dp149
g4
F1.0
sg5
F1.0
sg11
F0.7999999999999999
sg28
F1.0
sg42
F0.6666666666666666
sg44
F0.8333333333333333
sg20
F0.75
ssg46
(dp150
g16
F0.8125
sg4
F0.90625
sg10
F1.0
sg11
F1.0
sg12
F0.8400000000000001
sg37
F0.75
sg22
F0.875
sg24
F1.0
sg26
F1.0
sg27
F1.0
sg28
F1.0
sg29
F0.6666666666666666
sg30
F1.0
sg32
F1.0
sg33
F0.875
sg8
F0.8333333333333334
sg44
F0.8833333333333333
sg38
F1.0
sg42
F1.0
sg45
F1.0
sg34
F0.7777777777777777
sg49
F1.0
sg50
F1.0
sg52
F0.75
sg54
F0.7777777777777778
sg58
F0.8333333333333334
sg62
F1.0
ssg51
(dp151
g25
F0.6666666666666666
sg4
F0.7916666666666666
sg11
F0.5833333333333334
sg28
F0.75
sg29
F0.75
sg19
F1.0
sg44
F1.0
sg56
F1.0
sg31
F0.6666666666666666
sg45
F0.6666666666666666
sg7
F1.0
sg35
F1.0
sg61
F1.0
sg21
F0.75
sg23
F1.0
sg38
F0.8666666666666666
ssg56
(dp152
g36
F0.7777777777777777
sg51
F1.0
sg16
F0.7777777777777777
sg4
F0.7454545454545455
sg27
F1.0
sg11
F0.6666666666666666
sg28
F0.8125
sg29
F1.0
sg30
F0.75
sg42
F0.7777777777777777
sg44
F1.0
sg32
F1.0
sg45
F0.7777777777777777
sg59
F0.7777777777777778
sg15
F1.0
sg61
F0.8125
sg63
F0.75
sg23
F0.7777777777777777
sg62
F0.75
sg38
F0.8571428571428571
ssg57
(dp153
g16
F0.75
sg4
F1.0
sg5
F0.7142857142857143
sg25
F0.75
sg15
F1.0
sg48
F1.0
sg18
F1.0
sg20
F0.75
sg22
F1.0
sg23
F1.0
sg38
F0.7222222222222223
sg27
F1.0
sg28
F1.0
sg29
F0.8333333333333333
sg30
F1.0
sg32
F0.75
sg73
F1.0
sg35
F1.0
sg8
F0.75
sg36
F1.0
sg44
F0.8214285714285714
sg76
F1.0
sg54
F1.0
sg59
F0.7777777777777778
sg61
F0.8125
sg62
F1.0
sg63
F0.75
ssg13
(dp154
g36
F1.0
sg4
F1.0
sg12
F1.0
sg7
F1.0
sg47
F0.7916666666666667
sg33
F0.75
sg23
F1.0
sg62
F1.0
ssg119
(dp155
g11
F1.0
sg31
F1.0
ssg18
(dp156
g36
F1.0
sg4
F1.0
sg38
F1.0
sg28
F1.0
sg15
F1.0
sg35
F1.0
sg57
F1.0
sg44
F1.0
sg59
F1.0
sg61
F1.0
sg23
F1.0
ssg20
(dp157
g36
F1.0
sg63
F1.0
sg4
F1.0
sg5
F0.8791208791208792
sg11
F0.8730158730158729
sg28
F0.8400000000000001
sg30
F0.75
sg41
F1.0
sg42
F1.0
sg43
F0.6666666666666666
sg57
F1.0
sg44
F0.8222222222222222
sg59
F1.0
sg33
F0.7
sg22
F0.7857142857142857
sg55
F1.0
ssg29
(dp158
g16
F1.0
sg4
F0.8333333333333334
sg5
F1.0
sg11
F1.0
sg48
F1.0
sg21
F1.0
sg25
F1.0
sg28
F1.0
sg32
F1.0
sg33
F1.0
sg35
F1.0
sg8
F1.0
sg44
F1.0
sg38
F0.9
sg58
F0.8333333333333334
sg7
F1.0
sg46
F1.0
sg50
F0.75
sg51
F1.0
sg52
F1.0
sg54
F1.0
sg89
F0.8809523809523809
sg56
F1.0
sg57
F1.0
sg45
F0.75
sg60
F0.75
sg61
F1.0
ssg30
(dp159
g16
F0.6875
sg6
F0.75
sg10
F0.85
sg11
F0.875
sg4
F0.8666666666666668
sg5
F0.890909090909091
sg22
F0.8666666666666667
sg26
F1.0
sg28
F1.0
sg32
F1.0
sg33
F0.8000000000000002
sg8
F0.75
sg36
F0.6666666666666666
sg44
F0.875
sg38
F1.0
sg40
F0.75
sg42
F1.0
sg43
F0.75
sg58
F0.7222222222222222
sg46
F1.0
sg50
F1.0
sg52
F0.6666666666666666
sg54
F0.6666666666666666
sg89
F0.75
sg55
F1.0
sg56
F1.0
sg57
F0.8333333333333334
sg20
F0.7777777777777777
sg59
F1.0
sg62
F1.0
sg63
F1.0
ssS'41qrfb88lU'
p160
(dp161
sS'jdT9cZAxyb'
p162
(dp163
sg32
(dp164
g16
F0.7777777777777777
sg6
F1.0
sg10
F0.75
sg11
F0.75
sg12
F0.75
sg15
F1.0
sg48
F0.8125
sg19
F1.0
sg4
F0.8
sg5
F0.8333333333333333
sg22
F1.0
sg23
F0.7777777777777777
sg24
F1.0
sg27
F1.0
sg28
F0.7777777777777777
sg29
F1.0
sg30
F0.7777777777777778
sg35
F1.0
sg8
F1.0
sg44
F1.0
sg38
F1.0
sg45
F0.7777777777777777
sg7
F1.0
sg46
F0.8125
sg49
F0.8125
sg34
F1.0
sg54
F0.75
sg89
F1.0
sg56
F1.0
sg57
F1.0
sg61
F0.8125
sg62
F0.75
ssg125
(dp165
g6
F1.0
ssg33
(dp166
g16
F1.0
sg4
F1.0
sg11
F1.0
sg12
F1.0
sg13
F1.0
sg14
F1.0
sg20
F1.0
sg21
F1.0
sg22
F1.0
sg28
F1.0
sg29
F1.0
sg30
F1.0
sg35
F1.0
sg36
F1.0
sg44
F1.0
sg38
F1.0
sg40
F1.0
sg43
F1.0
sg45
F1.0
sg7
F1.0
sg46
F1.0
sg47
F1.0
sg52
F1.0
sg54
F1.0
sg58
F1.0
sg61
F1.0
sg62
F1.0
ssg8
(dp167
g16
F0.7777777777777777
sg4
F0.7777777777777777
sg10
F0.75
sg11
F0.75
sg12
F0.6875
sg15
F0.8333333333333334
sg1
F0.875
sg48
F0.6666666666666666
sg19
F1.0
sg44
F0.888888888888889
sg5
F0.75
sg21
F0.6666666666666666
sg22
F0.8
sg23
F0.75
sg25
F1.0
sg28
F0.75
sg29
F1.0
sg30
F0.6666666666666666
sg32
F1.0
sg34
F1.0
sg35
F1.0
sg37
F1.0
sg38
F0.8020833333333334
sg46
F0.7857142857142857
sg50
F0.6666666666666666
sg52
F0.75
sg54
F0.7777777777777777
sg57
F1.0
sg61
F0.75
sg62
F0.75
ssg37
(dp168
g36
F1.0
sg44
F0.7777777777777778
sg38
F0.7142857142857143
sg28
F1.0
sg54
F1.0
sg12
F0.8
sg47
F0.75
sg4
F1.0
sg7
F0.75
sg46
F0.75
sg61
F0.7777777777777777
sg22
F1.0
sg23
F1.0
sg8
F0.75
ssg135
(dp169
g22
F1.0
sg24
F1.0
ssS'y8BlGe62E7'
p170
(dp171
sg43
(dp172
g36
F1.0
sg75
F1.0
sg4
F0.8095238095238096
sg5
F0.875
sg76
F0.8125
sg28
F0.75
sg30
F1.0
sg91
F1.0
sg44
F0.8
sg20
F1.0
sg33
F1.0
sg74
F1.0
sg21
F1.0
sg73
F0.8666666666666667
sg22
F0.8
sg35
F0.75
sg11
F1.0
ssg45
(dp173
g16
F1.0
sg4
F0.7777777777777778
sg10
F0.7777777777777777
sg11
F1.0
sg12
F1.0
sg14
F0.7777777777777777
sg15
F1.0
sg48
F0.7777777777777778
sg5
F0.8333333333333334
sg21
F1.0
sg22
F0.6875
sg23
F1.0
sg24
F0.8333333333333334
sg25
F1.0
sg27
F0.6666666666666666
sg28
F0.7755102040816327
sg29
F1.0
sg32
F1.0
sg33
F0.6666666666666666
sg44
F0.6666666666666666
sg38
F0.7954545454545454
sg40
F0.6666666666666666
sg7
F1.0
sg46
F1.0
sg49
F1.0
sg34
F1.0
sg51
F1.0
sg56
F0.8333333333333334
sg61
F1.0
ssg34
(dp174
g4
F0.8363636363636363
sg38
F0.7466666666666667
sg28
F0.6666666666666666
sg54
F0.6666666666666666
sg12
F0.72
sg45
F0.5833333333333334
sg39
F0.75
sg44
F0.6666666666666666
sg46
F0.6666666666666666
sg32
F1.0
sg22
F0.611111111111111
sg49
F0.75
sg8
F1.0
ssg55
(dp175
g36
F0.7777777777777778
sg4
F0.8
sg11
F0.75
sg28
F0.75
sg30
F1.0
sg20
F0.7777777777777777
sg22
F0.75
sg63
F0.75
ssg108
(dp176
g44
F1.0
ssg60
(dp177
g16
F0.75
sg4
F0.8148148148148149
sg38
F1.0
sg28
F0.75
sg29
F1.0
sg40
F0.6666666666666666
sg58
F0.8333333333333333
sg50
F0.8888888888888888
ssg61
(dp178
g16
F0.8400000000000001
sg4
F0.8846153846153846
sg10
F1.0
sg11
F0.9
sg12
F0.7333333333333334
sg122
F1.0
sg14
F0.75
sg15
F1.0
sg48
F0.8125
sg18
F0.75
sg19
F1.0
sg44
F0.8571428571428572
sg5
F0.9
sg21
F1.0
sg22
F0.7222222222222222
sg23
F1.0
sg25
F0.6666666666666666
sg27
F1.0
sg29
F0.6666666666666666
sg32
F1.0
sg107
F1.0
sg33
F0.875
sg35
F0.8125
sg8
F0.8333333333333334
sg74
F1.0
sg36
F0.7755102040816327
sg37
F0.6666666666666666
sg38
F0.8809523809523808
sg40
F0.75
sg45
F0.75
sg7
F1.0
sg47
F0.7777777777777777
sg51
F1.0
sg54
F0.7777777777777778
sg56
F1.0
sg57
F0.8333333333333333
sg62
F1.0
ssS'F25axtfCKG'
p179
(dp180
s.