(dp0
S'm5MmtPWHdr'
p1
(dp2
S'g209g5Vve6'
p3
F1.0
sS'l5eh0S53tB'
p4
F0.9333333333333332
ssS'Gwk4z777oU'
p5
(dp6
S'X5eS5kvC8h'
p7
F1.0
sS'Ugr5eIIEf0'
p8
F1.0
sg4
F1.0
sS'c1zVCHxCEz'
p9
F1.0
sS'879eYkR2Wu'
p10
F1.0
sS'ajPRq0Q08b'
p11
F1.0
sS'8rsfNQdio8'
p12
F1.0
sS'6Ax4SKe470'
p13
F1.0
sS'0u17bw7v7w'
p14
F1.0
ssg8
(dp15
g5
F1.0
sg9
F0.75
sS'5ey2xUDZTA'
p16
F1.0
sg10
F0.7777777777777778
sg12
F0.8125
sg13
F0.7777777777777777
sS'XNEgfvXx50'
p17
F1.0
ssS'b2W4ZO3uLV'
p18
(dp19
S'80nlN05JQ6'
p20
F1.0
ssS'tyU2s0MBzm'
p21
(dp22
sS'Qwq8d0du28'
p23
(dp24
sS'02i5jCrfQK'
p25
(dp26
sS'9493h91NUB'
p27
(dp28
sg9
(dp29
g5
F0.6499999999999999
sg8
F1.0
sg16
F0.6666666666666666
sg10
F1.0
sS'LjgZcY49TV'
p30
F1.0
sg20
F1.0
sg12
F0.8800000000000001
sS'F25axtfCKG'
p31
F0.6666666666666666
sg13
F0.8333333333333334
sg17
F0.75
ssS'2oNLCndtam'
p32
(dp33
sS'3hSu07XfGd'
p34
(dp35
S'QER9PsCgBT'
p36
F1.0
sS'XL0eQIoG72'
p37
F1.0
sg4
F1.0
sS'EaUoBdvBdC'
p38
F1.0
sS'5a5qA8VLfI'
p39
F1.0
sg12
F1.0
sg17
F1.0
ssg30
(dp40
g9
F1.0
sg20
F1.0
sg11
F1.0
ssg20
(dp41
g30
F1.0
sg9
F1.0
sg18
F1.0
ssS'h0UbH181l8'
p42
(dp43
sg37
(dp44
g36
F1.0
sg38
F0.75
sg34
F0.9027777777777778
sg39
F1.0
sg12
F1.0
sg17
F0.75
ssS'IQ98biy227'
p45
(dp46
sg13
(dp47
g5
F0.8
sg8
F0.7777777777777777
sg9
F0.9444444444444443
sg16
F0.6666666666666666
sg10
F1.0
sg12
F1.0
sg17
F0.75
ssg17
(dp48
g36
F0.6666666666666666
sg7
F0.75
sg8
F0.8888888888888888
sg37
F1.0
sg4
F0.7916666666666666
sg9
F0.625
sg16
F1.0
sg10
F0.75
sg39
F0.75
sg11
F0.8690476190476191
sg12
F0.75
sg34
F1.0
sg13
F0.75
sg14
F1.0
ssS'bt0ZuHaCGY'
p49
(dp50
sS'MrZ99Q697y'
p51
(dp52
sS'y5009rpZ12'
p53
(dp54
sS'1kKxS8urAH'
p55
(dp56
sS'C18qWKq212'
p57
(dp58
sg38
(dp59
g12
F1.0
sg37
F1.0
sg34
F1.0
ssg39
(dp60
g12
F0.8125
sg36
F0.7777777777777777
sg34
F0.8125
sg37
F0.8214285714285714
sg17
F1.0
ssS'8ZPoEJbXB7'
p61
(dp62
g12
F0.7777777777777778
sg36
F0.8333333333333334
ssS'6A16l70g5Q'
p63
(dp64
sS'6jCygPdswz'
p65
(dp66
S'dvG32rxRzQ'
p67
F0.875
sS'1bJbgQ32E3'
p68
F1.0
sS'78t79xOebG'
p69
F1.0
ssg68
(dp70
g67
F0.875
sg65
F0.8541666666666666
sg69
F1.0
ssS'0KS4yy9G96'
p71
(dp72
g7
F1.0
ssg36
(dp73
g37
F1.0
sg34
F1.0
sg39
F1.0
sg12
F1.0
sg61
F1.0
sg17
F1.0
ssS'7cEjwssz1R'
p74
(dp75
sg7
(dp76
g5
F0.7777777777777777
sS'PpTLi2Qz8E'
p77
F0.8333333333333334
sg4
F1.0
sg11
F1.0
sg12
F1.0
sg71
F1.0
sg17
F0.75
ssS'iyLqACAFyl'
p78
(dp79
sS't4K5z0e2NZ'
p80
(dp81
sS'AQfVkV1aEx'
p82
(dp83
g12
F1.0
sg11
F0.875
sg4
F1.0
ssg16
(dp84
g11
F0.825
sg4
F0.8333333333333334
sg9
F1.0
sg10
F1.0
sg8
F0.75
sg14
F0.7777777777777777
sg13
F0.7777777777777777
sg17
F0.75
ssS'z9svx3mA4s'
p85
(dp86
sg67
(dp87
g65
F1.0
sg68
F1.0
sg69
F1.0
ssS'i8f2gg51r5'
p88
(dp89
sS'MPqJdqnPtc'
p90
(dp91
sS'YNGlv7F45C'
p92
(dp93
g3
F1.0
ssS'0U9x5pNv8t'
p94
(dp95
sg3
(dp96
g1
F1.0
sg4
F0.85
sg92
F1.0
ssg77
(dp97
g7
F1.0
ssg11
(dp98
g7
F0.725
sg4
F0.8018394648829432
sg82
F1.0
sg16
F0.6291666666666667
sg5
F0.6
sg10
F0.888888888888889
sg30
F1.0
sg12
F0.8775510204081632
sg14
F1.0
sg17
F1.0
ssg10
(dp99
g5
F0.6666666666666666
sg8
F1.0
sg4
F0.9047619047619049
sg9
F1.0
sg16
F0.75
sg11
F0.7777777777777777
sg12
F0.7777777777777777
sg14
F0.75
sg13
F0.7777777777777777
sg17
F1.0
ssg69
(dp100
g67
F1.0
sg68
F0.75
sg65
F0.7777777777777777
ssS'0jSb6S70X1'
p101
(dp102
sg12
(dp103
g36
F0.7755102040816327
sg7
F1.0
sg8
F1.0
sg37
F0.890909090909091
sg4
F0.9183673469387755
sg82
F1.0
sg38
F1.0
sg9
F1.0
sg14
F0.7777777777777777
sg5
F0.8
sg10
F1.0
sg11
F0.826530612244898
sg39
F1.0
sg61
F1.0
sg34
F0.8125
sg13
F1.0
sg17
F0.75
ssg31
(dp104
g9
F0.6666666666666666
ssS'PE6x6PxZ42'
p105
(dp106
sg4
(dp107
g3
F0.8333333333333333
sg7
F0.7857142857142857
sg11
F0.7721043324491601
sg14
F0.7777777777777777
sg82
F1.0
sg1
F0.8333333333333334
sg16
F0.6499999999999999
sg5
F0.7380952380952381
sg10
F1.0
sg12
F0.8979591836734694
sg34
F0.75
sg17
F1.0
ssg14
(dp108
g5
F1.0
sg11
F1.0
sg4
F1.0
sg16
F0.75
sg10
F0.75
sg12
F1.0
sg17
F1.0
ss.