(dp0
S'46vx97eEK0'
p1
(dp2
sS'XJyS25Yg27'
p3
(dp4
S'apCLF0uF21'
p5
F1.0
sS'Gwk4z777oU'
p6
F1.0
sS'Ugr5eIIEf0'
p7
F1.0
sS'b2W4ZO3uLV'
p8
F1.0
sS'8gH5u019ZH'
p9
F1.0
sS'0YvZonpLW8'
p10
F1.0
sS's19Mo891H5'
p11
F1.0
sS'tlJn3I40bf'
p12
F1.0
sS'3hSu07XfGd'
p13
F1.0
sS'k3jBd30ocz'
p14
F1.0
sS'oEt3YTvS4G'
p15
F1.0
sS'XL0eQIoG72'
p16
F1.0
sS'y5009rpZ12'
p17
F1.0
sS'1kKxS8urAH'
p18
F1.0
sS'Hd9GW3f95j'
p19
F1.0
sS'QER9PsCgBT'
p20
F1.0
sS'X5eS5kvC8h'
p21
F1.0
sS'dvG32rxRzQ'
p22
F1.0
sS'LnVZmUuwc8'
p23
F1.0
sS'saNy7ix5ZY'
p24
F1.0
sS'EfN583275t'
p25
F1.0
sS'i8f2gg51r5'
p26
F1.0
sS'4X3016rdOZ'
p27
F1.0
sS'34f4oB5Cod'
p28
F1.0
sS'ajPRq0Q08b'
p29
F1.0
sS'h0UbH181l8'
p30
F1.0
sS'78t79xOebG'
p31
F1.0
ssS'M7hLaVJGvX'
p32
(dp33
g20
F1.0
sS'MPqJdqnPtc'
p34
F1.0
sg9
F1.0
ssS'QQTAp3k3UP'
p35
(dp36
S'46z59pQP58'
p37
F1.0
sS'HvghFVBS5v'
p38
F1.0
sS'yf2V5ll9mN'
p39
F1.0
sg14
F1.0
sg18
F1.0
sS'Si4v9635O3'
p40
F1.0
ssS'Fx8d98DRud'
p41
(dp42
g29
F1.0
sS'l5eh0S53tB'
p43
F1.0
sS'668lBbaKFE'
p44
F1.0
sS'qL6HDg57R9'
p45
F1.0
sg14
F1.0
sS'm64Rgy40OF'
p46
F1.0
sg40
F1.0
sS'mNzo8mGzu9'
p47
F1.0
sS'X4ZaxfDz3Q'
p48
F1.0
ssS'l8bH01vT7z'
p49
(dp50
sS'9eV0EGVC6j'
p51
(dp52
sS'6bJ4auIa8L'
p53
(dp54
S'yuB6nxh3FX'
p55
F1.0
sg16
F1.0
sS'8csPxY44OZ'
p56
F1.0
sg29
F1.0
sS'90o991hXMa'
p57
F1.0
sS'IQ98biy227'
p58
F1.0
sS'gPaagaJ8aq'
p59
F1.0
sg17
F1.0
sg39
F1.0
sS'C18qWKq212'
p60
F1.0
sS'OS2vxzjz6W'
p61
F1.0
sg46
F1.0
sS'02ZjVTxC34'
p62
F1.0
sg27
F1.0
sS'1bJbgQ32E3'
p63
F1.0
sg22
F1.0
sg43
F1.0
sS'56dTCKdr74'
p64
F1.0
sS'5ey2xUDZTA'
p65
F1.0
sS'5a5qA8VLfI'
p66
F1.0
sg24
F1.0
sg45
F1.0
sg26
F1.0
sS'YNGlv7F45C'
p67
F1.0
sS'242fhbKRf9'
p68
F1.0
sS'0U9x5pNv8t'
p69
F1.0
sg14
F1.0
sg30
F1.0
ssg56
(dp70
g29
F1.0
sg39
F1.0
sg65
F1.0
sg53
F1.0
ssS'0GlR30c2Mt'
p71
(dp72
S'bt0ZuHaCGY'
p73
F1.0
sg48
F0.75
sg29
F1.0
sS'tyU2s0MBzm'
p74
F0.75
sg17
F0.8333333333333334
sg23
F1.0
sS'81E41tTtV9'
p75
F0.75
sg44
F1.0
sS'SoEcLAeJi1'
p76
F1.0
sg65
F0.6666666666666666
sS'11fnXrq9Jf'
p77
F0.75
sS'Wi92e1D7bp'
p78
F1.0
sg45
F1.0
sg60
F0.75
sg69
F0.6666666666666666
sS'hwF4tyWU50'
p79
F1.0
sg43
F0.7333333333333334
ssg29
(dp80
g3
F0.6666666666666666
sg41
F0.75
sg53
F0.6875
sg56
F0.75
sg71
F1.0
sS'77y7iIIXuv'
p81
F0.75
sg16
F0.75
sS'88Uhb8760x'
p82
F1.0
sS'2IaH8665Ha'
p83
F1.0
sg46
F0.75
sS'2J2SH6Fk63'
p84
F0.75
sg63
F0.8333333333333334
sg43
F0.8074074074074074
sg65
F0.6507936507936508
sg77
F0.8333333333333333
sg62
F1.0
sg24
F0.8333333333333333
sg68
F1.0
sg38
F1.0
sg44
F1.0
sg31
F0.6666666666666666
sg6
F0.65
sg55
F0.7777777777777777
sg73
F1.0
sS'Qwq8d0du28'
p85
F0.7916666666666666
sS'QS4cvQ8w0o'
p86
F1.0
sg22
F0.8
sg57
F0.75
sg17
F0.6666666666666667
sg39
F0.8125
sS'6O31vedZbI'
p87
F0.75
sS'45TTYcotWk'
p88
F1.0
sS'6jCygPdswz'
p89
F0.7333333333333334
sg21
F0.8333333333333334
sg48
F0.7777777777777777
sg23
F0.7777777777777777
sg25
F0.74
sg34
F0.75
sg79
F0.7777777777777778
sS'9EAa0nJjb1'
p90
F0.75
sg28
F0.75
sS'USdRVl9AOe'
p91
F0.8125
sS'4pzSijxuK6'
p92
F0.75
sS'5yasLi1Avt'
p93
F1.0
sg5
F1.0
sg7
F1.0
sg8
F0.8888888888888888
sg74
F0.7
sg75
F0.7777777777777777
sS'c1zVCHxCEz'
p94
F0.8333333333333334
sg76
F0.8125
sg13
F0.7777777777777778
sS'stK4H8Vit6'
p95
F1.0
sS'ey9rvMnU57'
p96
F0.75
sg58
F0.72
sg67
F1.0
sg40
F0.8125
sg69
F0.65
sS'ZP886G3Z76'
p97
F0.7777777777777777
sg20
F0.6666666666666666
sg26
F0.7000000000000001
sg47
F1.0
sS'RajLsf9Q1z'
p98
F0.75
sS'CZDz8OSRfI'
p99
F0.75
sg14
F0.7619047619047619
sS'Ru21xRreim'
p100
F1.0
sg12
F0.8
sS'bcoY3s64sj'
p101
F0.75
sg30
F0.875
sg59
F1.0
sS'LM96hW22T2'
p102
F1.0
sS'39Uc7ru04l'
p103
F1.0
sg18
F1.0
sg60
F0.625
sS'EV28POlwE4'
p104
F1.0
sg61
F0.8125
sg66
F0.8
sS'PE6x6PxZ42'
p105
F0.6666666666666666
sS'9QD9297moO'
p106
F1.0
sg19
F0.7666666666666666
sS'f45jOmRd4S'
p107
F1.0
sS'wY56ZI2gyL'
p108
F1.0
sS'iyLqACAFyl'
p109
F0.6875
sg64
F0.75
sS'm58s5oOZCm'
p110
F0.8888888888888888
sS'yB480DNZ70'
p111
F0.8333333333333334
sg45
F0.8611111111111112
sS'EWHJMBPf94'
p112
F1.0
sg27
F1.0
sg78
F1.0
sS'LP15lX652E'
p113
F1.0
sS'8rsfNQdio8'
p114
F0.8125
ssg81
(dp115
g5
F1.0
sg6
F1.0
sg7
F1.0
sg8
F1.0
sS'02i5jCrfQK'
p116
F1.0
sg94
F1.0
sg11
F1.0
sg14
F1.0
sg16
F1.0
sg17
F1.0
sg18
F1.0
sg60
F1.0
sS'S7E3jvZbGG'
p117
F1.0
sg66
F1.0
sg89
F1.0
sg27
F1.0
sg76
F1.0
sg43
F1.0
sg77
F1.0
sg110
F1.0
sg24
F1.0
sg26
F1.0
sg112
F1.0
sg68
F1.0
sg69
F1.0
sg29
F1.0
ssS'R398qG76GC'
p118
(dp119
sg16
(dp120
g5
F0.7777777777777777
sg3
F0.6666666666666666
sg29
F0.8333333333333334
sg8
F1.0
sg74
F1.0
sg85
F0.75
sg116
F0.6666666666666666
sg75
F0.75
sg94
F1.0
sg11
F0.75
sg53
F1.0
sg6
F0.75
sg13
F0.85
sg101
F1.0
sg30
F0.8333333333333334
sg81
F0.75
sg57
F1.0
sS'5LMy832c47'
p121
F0.75
sg58
F1.0
sg82
F0.75
sg17
F0.7777777777777777
sg18
F0.75
sg60
F0.7777777777777778
sg117
F0.75
sg10
F0.6666666666666666
sg66
F1.0
sg105
F1.0
sg78
F0.75
sg76
F1.0
sg19
F0.75
sg20
F1.0
sg22
F0.8
sg43
F0.7222222222222222
sg64
F0.75
sS'z9svx3mA4s'
p122
F1.0
sS'7y5NJZ7S6u'
p123
F0.75
sg45
F1.0
sg25
F0.6875
sg112
F0.75
sg27
F0.75
sg28
F0.75
sS'5x5fHvFFLv'
p124
F0.75
sg63
F0.6666666666666666
sg99
F1.0
sg39
F0.7777777777777778
sg14
F0.7777777777777777
sg92
F0.75
sg55
F1.0
sg114
F1.0
sg90
F1.0
ssg82
(dp125
g7
F0.75
sg16
F0.8333333333333333
sg73
F0.8333333333333333
sg75
F0.75
sg94
F0.75
sg76
F0.75
sg109
F0.7777777777777777
sg14
F0.75
sg58
F0.75
sg74
F0.6666666666666666
sg17
F1.0
sg39
F0.75
sg83
F0.75
sg66
F0.8333333333333334
sg19
F0.75
sg107
F1.0
sg22
F0.8333333333333334
sg43
F0.8333333333333334
sg45
F0.8125
sg112
F0.75
sg68
F1.0
sg29
F0.7333333333333334
sg91
F0.75
sg78
F0.75
sg92
F1.0
ssS'vpuUyzUJ0z'
p126
(dp127
g58
F1.0
sS'c3Ee3W8hyq'
p128
F1.0
sg61
F1.0
ssg83
(dp129
g77
F1.0
sg29
F1.0
sg8
F1.0
sg43
F1.0
sg62
F1.0
sg18
F1.0
sg94
F1.0
sg14
F1.0
sg45
F1.0
sg39
F1.0
sg95
F1.0
sg93
F1.0
sg66
F1.0
sg82
F1.0
sg63
F1.0
ssS'XTXYl6nJ7J'
p130
(dp131
sS'OPv5PP9Bi4'
p132
(dp133
sg46
(dp134
g48
F0.75
sg29
F0.7142857142857143
sg17
F0.75
sg41
F0.8333333333333333
sg23
F0.75
sg44
F0.75
sg76
F0.75
sg53
F1.0
sg24
F1.0
sg45
F0.7777777777777777
sg60
F0.75
sg14
F1.0
sg69
F1.0
sg63
F1.0
sg97
F0.75
sg47
F0.75
sg43
F0.7777777777777778
ssg10
(dp135
g5
F1.0
sg3
F0.75
sg16
F0.8333333333333333
sg17
F0.75
sg14
F1.0
sg6
F0.75
sg13
F0.6666666666666666
sg30
F1.0
sg25
F1.0
ssg63
(dp136
g29
F0.75
sg8
F0.75
sg43
F1.0
sg11
F1.0
sg53
F1.0
sg45
F1.0
sg24
F1.0
sg22
F1.0
sg83
F0.6666666666666666
sg46
F1.0
sg62
F0.75
sg16
F1.0
sg14
F1.0
sg89
F0.7777777777777778
sg30
F0.75
sg97
F1.0
sg69
F1.0
ssS'E38It7fjg0'
p137
(dp138
g99
F1.0
sg21
F1.0
sg105
F0.75
sg74
F1.0
sg122
F0.75
sg6
F1.0
sg101
F1.0
sg114
F0.75
sg121
F0.7777777777777778
sg89
F0.75
sg58
F1.0
ssg43
(dp139
g5
F1.0
sg6
F0.8
sg29
F0.8128654970760234
sg8
F1.0
sg74
F1.0
sg41
F0.6666666666666666
sg116
F1.0
sg75
F1.0
sg94
F1.0
sg11
F1.0
sg53
F0.7777777777777777
sg12
F0.8333333333333333
sg13
F1.0
sg71
F1.0
sg30
F1.0
sg81
F1.0
sg83
F0.8333333333333333
sS'Dmq6441349'
p140
F1.0
sg16
F1.0
sg14
F0.8666666666666666
sg61
F1.0
sg58
F1.0
sg59
F0.75
sg73
F1.0
sg82
F1.0
sg85
F1.0
sg103
F0.75
sg18
F0.9
sg60
F1.0
sg104
F1.0
sg63
F0.6666666666666666
sg79
F1.0
sg40
F0.75
sg68
F1.0
sg46
F0.75
sg100
F1.0
sg66
F1.0
sg90
F1.0
sg89
F1.0
sg78
F1.0
sg76
F1.0
sg19
F1.0
sg107
F1.0
sg21
F0.6666666666666666
sg109
F1.0
sg48
F0.7777777777777777
sg23
F1.0
sg65
F0.6499999999999999
sg77
F0.8125
sg22
F1.0
sg117
F1.0
sg110
F1.0
sg62
F0.75
sg24
F0.7999999999999999
sg45
F1.0
sg93
F0.75
sg26
F1.0
sg34
F1.0
sg112
F1.0
sg67
F1.0
sg47
F0.7777777777777777
sg69
F0.8
sg105
F1.0
sg55
F1.0
sg17
F1.0
sg91
F1.0
sg44
F1.0
sS'z1iLCTB32T'
p141
F0.7777777777777777
sS'80nlN05JQ6'
p142
F1.0
sg97
F1.0
sg39
F1.0
sg95
F0.75
sg92
F1.0
sg38
F0.8333333333333333
sg114
F0.7777777777777777
sg27
F1.0
sg31
F1.0
sg25
F1.0
ssS'qN6WN7C097'
p143
(dp144
sg37
(dp145
g85
F1.0
sg17
F1.0
sg18
F1.0
sg141
F0.75
sg35
F1.0
sS'DS5ecUMGJi'
p146
F0.6666666666666666
sg39
F1.0
sg14
F1.0
sS'66Ak255E3j'
p147
F0.75
sg38
F1.0
sg40
F1.0
sg69
F0.75
ssg65
(dp148
g6
F1.0
sg29
F0.7916666666666666
sg74
F0.7777777777777777
sg100
F0.625
sg53
F1.0
sg56
F1.0
sg24
F1.0
sg71
F0.75
sg22
F1.0
sg58
F0.75
sg48
F1.0
sg103
F1.0
sg18
F1.0
sg60
F1.0
sg40
F0.75
sg105
F1.0
sg20
F0.6666666666666666
sg109
F0.7777777777777777
sg43
F0.8333333333333334
sg77
F0.7777777777777777
sg114
F1.0
sg111
F0.6666666666666666
sg45
F0.7777777777777778
sg26
F1.0
sg69
F0.8333333333333334
sg98
F1.0
sg55
F0.75
sg17
F0.75
sg44
F0.75
sg39
F1.0
sg14
F1.0
sg92
F1.0
sg7
F0.75
sg30
F0.75
ssg122
(dp149
g20
F1.0
sg99
F1.0
sg102
F1.0
sg16
F1.0
sg74
F1.0
sg87
F0.75
sg101
F0.75
sg22
F0.7777777777777778
sg92
F1.0
sg55
F0.75
sg89
F1.0
sg58
F1.0
sg137
F0.75
sg128
F1.0
ssS'8eqtD31y66'
p150
(dp151
sS'8d194g9ccT'
p152
(dp153
sS'eqyJr5jsoU'
p154
(dp155
sg62
(dp156
g29
F1.0
sg43
F1.0
sg39
F1.0
sg53
F1.0
sg109
F1.0
sg14
F1.0
sg83
F1.0
sg45
F1.0
sg63
F1.0
sg59
F1.0
ssg123
(dp157
g5
F1.0
sg6
F1.0
sg124
F1.0
sg16
F1.0
sg18
F1.0
sg58
F1.0
sg39
F1.0
sg13
F1.0
sg75
F1.0
sg14
F1.0
sg25
F1.0
sg8
F1.0
sg121
F1.0
sg78
F1.0
ssg24
(dp158
g3
F0.75
sg29
F0.875
sg8
F0.75
sg11
F0.75
sg53
F0.75
sg6
F0.75
sg14
F1.0
sg81
F0.75
sg48
F1.0
sg17
F0.6666666666666666
sg18
F1.0
sg60
F0.75
sg46
F0.75
sg63
F0.8333333333333333
sg97
F0.75
sg19
F1.0
sg22
F0.75
sg43
F0.7999999999999999
sg23
F1.0
sg65
F1.0
sg77
F1.0
sg45
F0.75
sg26
F0.75
sg67
F1.0
sg69
F0.7777777777777778
ssS'rnOGP59582'
p159
(dp160
sS'7esK30uHH1'
p161
(dp162
sS'075kbY53c1'
p163
(dp164
g18
F1.0
ssS'7RB2G4NbCn'
p165
(dp166
sS'276487SwvF'
p167
(dp168
sS'UmsZ3gHcg7'
p169
(dp170
S'5VZLSGPT10'
p171
F0.75
ssg44
(dp172
g29
F0.8615384615384615
sg73
F1.0
sg41
F0.6666666666666666
sg100
F1.0
sg76
F1.0
sg12
F0.8333333333333333
sg71
F1.0
sg30
F1.0
sg74
F1.0
sg103
F0.75
sg18
F1.0
sg104
F1.0
sg40
F0.75
sg68
F1.0
sg46
F0.6666666666666666
sg89
F1.0
sg48
F0.75
sg43
F0.9166666666666666
sg23
F1.0
sg65
F0.6666666666666666
sg77
F0.75
sg45
F1.0
sg79
F1.0
sg47
F0.75
sg69
F0.6666666666666666
sg17
F1.0
sg38
F0.8333333333333333
sg78
F1.0
sg113
F1.0
ssg141
(dp173
g37
F1.0
sg18
F1.0
sg43
F1.0
sg47
F1.0
sg69
F1.0
ssS'7YX78oEdjZ'
p174
(dp175
sg84
(dp176
g29
F1.0
sg74
F1.0
sg17
F1.0
sg60
F1.0
sg92
F1.0
sg106
F1.0
sg47
F1.0
ssS'0KS4yy9G96'
p177
(dp178
g89
F1.0
ssS'CsX7j87xZ7'
p179
(dp180
sg31
(dp181
g20
F1.0
sg3
F1.0
sg29
F1.0
sS'tB4vqSxzqo'
p182
F1.0
sg74
F1.0
sg18
F1.0
sg77
F1.0
sg91
F1.0
sg14
F1.0
sg6
F1.0
sg75
F1.0
sg22
F1.0
sg25
F1.0
sg26
F1.0
sg114
F1.0
sg8
F1.0
sg69
F1.0
sg105
F1.0
sg19
F1.0
sg43
F1.0
ssS'45oTz6NVkr'
p183
(dp184
sg6
(dp185
g5
F1.0
sg3
F1.0
sg29
F1.0
sg8
F1.0
sg74
F1.0
sg24
F1.0
sg75
F1.0
sg94
F1.0
sg76
F1.0
sg13
F1.0
sg101
F0.75
sg30
F1.0
sg81
F1.0
sg16
F1.0
sg121
F0.7777777777777778
sg58
F1.0
sg17
F1.0
sg18
F1.0
sg60
F1.0
sg61
F1.0
sg10
F1.0
sg66
F1.0
sg89
F1.0
sg78
F1.0
sg137
F0.75
sg19
F1.0
sg21
F1.0
sg22
F1.0
sg43
F1.0
sg23
F1.0
sg65
F1.0
sg77
F1.0
sg123
F1.0
sg45
F1.0
sg25
F1.0
sg26
F1.0
sg69
F1.0
sg105
F1.0
sg124
F1.0
sg91
F1.0
sg39
F1.0
sg14
F1.0
sg55
F0.75
sg114
F1.0
sg31
F1.0
ssg55
(dp186
g6
F1.0
sg29
F0.7777777777777777
sg16
F0.6666666666666666
sg74
F0.7777777777777778
sg76
F1.0
sg53
F0.75
sg101
F0.75
sg30
F0.7777777777777777
sg57
F1.0
sg58
F0.8125
sg17
F0.7777777777777777
sg60
F0.75
sg87
F0.75
sg61
F1.0
sg88
F1.0
sg89
F1.0
sg98
F0.75
sg20
F0.8333333333333333
sg21
F1.0
sg22
F1.0
sg43
F1.0
sg23
F1.0
sg65
F0.6666666666666666
sg122
F0.75
sg110
F1.0
sg111
F1.0
sg45
F1.0
sg25
F1.0
sg68
F1.0
sg69
F1.0
sg105
F0.75
ssg73
(dp187
g25
F1.0
sg29
F1.0
sg82
F1.0
sg74
F1.0
sg17
F1.0
sg23
F1.0
sg75
F1.0
sg44
F1.0
sg76
F1.0
sg77
F1.0
sg85
F1.0
sg88
F1.0
sg78
F1.0
sg71
F1.0
sg45
F1.0
sg93
F1.0
sg114
F1.0
sg58
F1.0
sg112
F1.0
sg79
F1.0
sg43
F1.0
ssg85
(dp188
g29
F0.84375
sg16
F1.0
sg73
F0.75
sg116
F1.0
sg100
F0.75
sg22
F1.0
sg58
F0.75
sg17
F0.8
sg39
F1.0
sg9
F1.0
sg61
F0.7777777777777777
sg40
F0.8125
sg117
F1.0
sg105
F1.0
sg20
F0.75
sg109
F0.8125
sg43
F0.8333333333333334
sg64
F1.0
sg37
F1.0
sg111
F0.75
sg45
F0.75
sg25
F1.0
sg26
F1.0
sg34
F0.75
sg68
F0.8333333333333333
sg27
F1.0
sg78
F0.75
sg14
F1.0
sg114
F1.0
sg30
F0.6666666666666666
ssg171
(dp189
g169
F0.75
ssS'2AMmebFl86'
p190
(dp191
sS'FrPh305pw8'
p192
(dp193
sg86
(dp194
g66
F1.0
sg94
F1.0
sg29
F1.0
sg19
F1.0
ssg109
(dp195
g29
F1.0
sg85
F1.0
sg9
F1.0
sg11
F1.0
sg14
F1.0
sg58
F1.0
sg82
F1.0
sg17
F1.0
sg61
F1.0
sg40
F1.0
sg62
F1.0
sg89
F1.0
sg20
F1.0
sg22
F1.0
sg43
F1.0
sg23
F1.0
sg65
F1.0
sg111
F1.0
sg45
F1.0
sg25
F1.0
sg34
F1.0
sg68
F1.0
sg30
F1.0
sg92
F1.0
sg114
F1.0
sg128
F1.0
ssg140
(dp196
g89
F0.75
sg43
F0.6666666666666666
sg67
F0.75
ssg57
(dp197
g29
F0.6666666666666666
sg16
F0.6666666666666666
sg17
F0.75
sg60
F0.75
sg53
F0.75
sg22
F1.0
sg55
F1.0
sg58
F0.75
sg30
F0.75
ssg117
(dp198
g22
F1.0
sg8
F1.0
sg43
F1.0
sg85
F1.0
sg116
F1.0
sg60
F1.0
sg11
F1.0
sg110
F1.0
sg7
F1.0
sg81
F1.0
sg16
F1.0
sg89
F1.0
sg76
F1.0
sg27
F1.0
ssS'EpDb06UO89'
p199
(dp200
sg99
(dp201
g77
F1.0
sS'PSEDQ6XC7U'
p202
F1.0
sg29
F1.0
sg124
F1.0
sg74
F1.0
sg16
F1.0
sg39
F1.0
sg60
F1.0
sg76
F1.0
sg105
F1.0
sg122
F0.75
sg101
F1.0
sg22
F1.0
sg92
F1.0
sg114
F1.0
sg8
F1.0
sg89
F0.75
sg58
F1.0
sg137
F1.0
ssg17
(dp203
g5
F1.0
sg107
F1.0
sg3
F1.0
sg29
F1.0
sg8
F1.0
sg74
F1.0
sg85
F1.0
sg24
F1.0
sg75
F1.0
sg10
F1.0
sg76
F1.0
sg53
F1.0
sg6
F1.0
sg13
F1.0
sg71
F1.0
sg30
F1.0
sg81
F1.0
sg57
F1.0
sg16
F1.0
sg61
F1.0
sg58
F1.0
sg43
F1.0
sg73
F1.0
sg82
F1.0
sg78
F1.0
sg18
F1.0
sg60
F1.0
sg104
F1.0
sg79
F1.0
sg40
F1.0
sg46
F1.0
sg66
F1.0
sg89
F1.0
sg106
F1.0
sg97
F1.0
sg19
F1.0
sg20
F1.0
sg98
F1.0
sg48
F1.0
sg109
F1.0
sS't4K5z0e2NZ'
p204
F1.0
sg64
F1.0
sg23
F1.0
sg37
F1.0
sg65
F1.0
sg77
F1.0
sg22
F1.0
sg110
F1.0
sg111
F1.0
sg45
F1.0
sg25
F1.0
sg26
F1.0
sg67
F1.0
sg68
F1.0
sg69
F1.0
sg105
F1.0
sg55
F1.0
sg91
F1.0
sg44
F1.0
sg39
F1.0
sg14
F1.0
sg92
F1.0
sg84
F1.0
sg27
F1.0
ssg39
(dp205
g5
F1.0
sg6
F1.0
sg29
F0.8611111111111112
sg16
F1.0
sg74
F1.0
sg85
F1.0
sg75
F1.0
sg53
F0.7777777777777777
sg56
F0.75
sg13
F1.0
sg101
F1.0
sg30
F1.0
sg121
F1.0
sg58
F1.0
sg59
F0.75
sg82
F1.0
sg17
F1.0
sg18
F1.0
sg60
F1.0
sg83
F0.8333333333333333
sg40
F0.75
sg66
F1.0
sg105
F1.0
sg19
F1.0
sg22
F1.0
sg43
F1.0
sg64
F1.0
sg37
F0.75
sg65
F0.75
sg77
F0.75
sg62
F0.75
sg123
F1.0
sg45
F1.0
sg93
F0.75
sg35
F0.75
sg124
F1.0
sg91
F1.0
sg38
F0.8333333333333333
sg14
F0.85
sg99
F1.0
sg78
F1.0
sg95
F0.75
sg92
F1.0
sg25
F1.0
ssg58
(dp206
g5
F1.0
sg6
F1.0
sg29
F1.0
sg8
F1.0
sg74
F1.0
sg85
F1.0
sg94
F1.0
sg76
F1.0
sg53
F1.0
sg13
F1.0
sg101
F0.7777777777777778
sg30
F1.0
sg57
F1.0
sg16
F1.0
sg121
F0.75
sg73
F1.0
sg82
F1.0
sg17
F1.0
sg39
F1.0
sg60
F1.0
sg126
F1.0
sg87
F0.75
sg61
F1.0
sg88
F1.0
sg66
F1.0
sg89
F1.0
sg27
F1.0
sg137
F0.75
sg19
F1.0
sg20
F1.0
sg98
F1.0
sg109
F1.0
sg43
F1.0
sg64
F1.0
sg23
F1.0
sg77
F1.0
sg65
F1.0
sg122
F1.0
sg22
F1.0
sg110
F1.0
sg111
F1.0
sg45
F1.0
sg25
F1.0
sg26
F1.0
sg67
F1.0
sg68
F1.0
sg69
F1.0
sg105
F1.0
sg55
F0.8125
sg91
F1.0
sg123
F1.0
sg99
F1.0
sg78
F1.0
sg14
F1.0
sg114
F1.0
sg128
F1.0
ssg87
(dp207
g88
F1.0
sg55
F1.0
sg74
F1.0
sg122
F1.0
sg101
F1.0
sg29
F1.0
sg105
F1.0
sg58
F1.0
ssg88
(dp208
g55
F0.75
sg73
F1.0
sg77
F1.0
sg87
F0.75
sg61
F1.0
sg29
F1.0
sg89
F1.0
sg58
F1.0
sg74
F1.0
ssS'8fyjxTqDpQ'
p209
(dp210
sg89
(dp211
g5
F1.0
sg6
F1.0
sg29
F1.0
sg8
F1.0
sg74
F1.0
sg11
F1.0
sg13
F1.0
sg22
F1.0
sg81
F1.0
sg140
F1.0
sg76
F1.0
sg58
F1.0
sg43
F1.0
sg17
F1.0
sg60
F1.0
sg61
F1.0
sg88
F1.0
sg117
F1.0
sg66
F1.0
sg90
F1.0
sg63
F1.0
sg137
F0.75
sg177
F0.75
sg21
F1.0
sg109
F1.0
sg204
F1.0
sg23
F1.0
sg77
F1.0
sg122
F1.0
sg110
F1.0
sg45
F1.0
sg25
F1.0
sg34
F1.0
sg67
F1.0
sg68
F1.0
sg69
F1.0
sg55
F0.7777777777777777
sg103
F1.0
sg44
F1.0
sg99
F1.0
sg30
F1.0
sg92
F1.0
sg114
F1.0
ssS'dq0JPbG008'
p212
(dp213
sS'v52MhQAVT9'
p214
(dp215
sg21
(dp216
g3
F1.0
sg29
F1.0
sg43
F1.0
sg105
F1.0
sg23
F1.0
sg6
F1.0
sg61
F1.0
sg55
F1.0
sg27
F1.0
sg114
F1.0
sg89
F1.0
sg137
F1.0
sg69
F1.0
ssg48
(dp217
g77
F1.0
sg29
F1.0
sg74
F1.0
sg41
F1.0
sg18
F1.0
sg44
F1.0
sg65
F1.0
sg14
F1.0
sg43
F1.0
sg24
F1.0
sg75
F1.0
sg71
F1.0
sg45
F1.0
sg46
F1.0
sg60
F1.0
sg69
F1.0
sg105
F0.75
sg47
F1.0
sg17
F1.0
ssg23
(dp218
g3
F0.75
sg55
F1.0
sg74
F1.0
sg11
F0.75
sg6
F0.75
sg71
F1.0
sg29
F1.0
sg58
F1.0
sg73
F1.0
sg17
F1.0
sg78
F1.0
sg60
F1.0
sg61
F0.7777777777777777
sg46
F1.0
sg89
F0.8666666666666667
sg76
F1.0
sg20
F0.75
sg21
F0.8333333333333333
sg109
F0.75
sg43
F1.0
sg22
F0.75
sg110
F1.0
sg24
F1.0
sg25
F1.0
sg34
F0.75
sg79
F1.0
sg68
F1.0
sg69
F1.0
sg44
F1.0
sg97
F1.0
sg45
F1.0
sg30
F1.0
ssS'4NQzySrw2C'
p219
(dp220
sS'63r5Aj4EeB'
p221
(dp222
sS'B7l5Zfxxu6'
p223
(dp224
sS'mI0bEZaepz'
p225
(dp226
sS'c8Gl35DPn4'
p227
(dp228
sg93
(dp229
g29
F1.0
sg43
F1.0
sg18
F1.0
sg77
F1.0
sg14
F1.0
sg45
F1.0
sg39
F1.0
sg95
F1.0
sg83
F1.0
sg73
F1.0
ssS'yG447121nm'
p230
(dp231
sg38
(dp232
g5
F1.0
sg29
F1.0
sg43
F1.0
sg66
F1.0
sg37
F1.0
sg44
F1.0
sg39
F1.0
sg14
F1.0
sg12
F1.0
sg13
F1.0
sg18
F1.0
sg30
F1.0
sg35
F1.0
sg95
F1.0
sg40
F1.0
sg47
F1.0
ssS'ftgrG3jT2m'
p233
(dp234
sg67
(dp235
g5
F1.0
sg29
F1.0
sg8
F0.75
sg53
F0.75
sg14
F1.0
sg140
F0.75
sg58
F0.6875
sg17
F0.6666666666666666
sg61
F0.75
sg66
F0.6666666666666666
sg89
F0.75
sg97
F0.75
sg19
F1.0
sg22
F0.75
sg43
F0.8333333333333334
sg45
F0.75
sg25
F1.0
sg26
F0.6666666666666666
sg68
F1.0
sg27
F1.0
sg69
F0.75
sg24
F1.0
ssS'3C1dH8H8v3'
p236
(dp237
sg69
(dp238
g5
F1.0
sg6
F1.0
sg29
F1.0
sg8
F1.0
sg74
F1.0
sg94
F1.0
sg76
F1.0
sg53
F1.0
sg71
F1.0
sg30
F1.0
sg81
F1.0
sg58
F1.0
sg48
F1.0
sg103
F1.0
sg18
F1.0
sg60
F1.0
sg61
F1.0
sg40
F1.0
sg46
F1.0
sg100
F1.0
sg89
F1.0
sg63
F1.0
sg21
F1.0
sg43
F1.0
sg23
F1.0
sg37
F1.0
sg65
F1.0
sg77
F1.0
sg110
F1.0
sg24
F1.0
sg45
F1.0
sg25
F1.0
sg26
F1.0
sg67
F1.0
sg68
F1.0
sg105
F1.0
sg55
F1.0
sg17
F1.0
sg44
F1.0
sg141
F1.0
sg14
F1.0
sg31
F1.0
ssg28
(dp239
g3
F1.0
sg29
F1.0
sg16
F1.0
sg25
F1.0
ssg124
(dp240
g5
F1.0
sg6
F1.0
sg16
F1.0
sg18
F1.0
sg39
F1.0
sg13
F1.0
sg99
F1.0
sg75
F1.0
sg123
F1.0
sg14
F1.0
sg25
F1.0
sg15
F1.0
sg121
F1.0
sg78
F1.0
ssg91
(dp241
g6
F1.0
sg29
F1.0
sg8
F1.0
sg74
F1.0
sg75
F1.0
sg14
F1.0
sg58
F1.0
sg82
F1.0
sg17
F1.0
sg18
F1.0
sg66
F1.0
sg105
F1.0
sg19
F1.0
sg22
F1.0
sg43
F1.0
sg77
F1.0
sg45
F1.0
sg26
F1.0
sg27
F1.0
sg39
F1.0
sg114
F1.0
sg31
F1.0
ssS's9O034dIc4'
p242
(dp243
sS'D1VwdFc01t'
p244
(dp245
sS'SKThcG9N8q'
p246
(dp247
sg92
(dp248
g109
F0.75
sg82
F1.0
sg204
F0.75
sg17
F1.0
sg64
F1.0
sg60
F1.0
sg65
F1.0
sg122
F0.75
sg29
F1.0
sg104
F1.0
sg99
F1.0
sg75
F1.0
sg30
F1.0
sg39
F1.0
sg84
F1.0
sg16
F1.0
sg78
F1.0
sg89
F0.75
sg106
F1.0
sg43
F1.0
sg74
F1.0
ssS'y4Vg256UzB'
p249
(dp250
sS'P5w9xdB3VM'
p251
(dp252
g105
F1.0
ssg25
(dp253
g5
F1.0
sg3
F0.7777777777777777
sg29
F0.925
sg8
F0.7777777777777777
sg74
F0.75
sg85
F1.0
sg9
F1.0
sg75
F1.0
sg94
F0.8333333333333333
sg76
F0.7777777777777777
sg6
F0.75
sg13
F0.75
sg30
F0.8333333333333334
sg16
F0.8333333333333334
sg121
F1.0
sg61
F1.0
sg58
F0.75
sg73
F0.6666666666666666
sg17
F0.7777777777777777
sg18
F1.0
sg79
F0.75
sg40
F0.7777777777777777
sg100
F0.75
sg66
F0.6666666666666666
sg89
F1.0
sg78
F0.7777777777777777
sg19
F1.0
sg20
F0.75
sg109
F0.75
sg43
F0.7142857142857143
sg23
F1.0
sg77
F0.75
sg22
F0.75
sg110
F1.0
sg111
F0.75
sg45
F0.7777777777777777
sg34
F0.75
sg67
F1.0
sg68
F1.0
sg69
F0.8333333333333334
sg28
F0.75
sg124
F1.0
sg123
F1.0
sg39
F1.0
sg14
F1.0
sg55
F1.0
sg114
F1.0
sg10
F1.0
sg105
F1.0
sg31
F1.0
ssg5
(dp254
g3
F0.75
sg29
F1.0
sg8
F0.7777777777777777
sg75
F1.0
sg94
F0.8333333333333333
sg76
F0.75
sg6
F0.75
sg13
F0.8
sg14
F1.0
sg81
F0.75
sg16
F0.7999999999999999
sg121
F1.0
sg58
F0.7777777777777777
sg17
F0.75
sg18
F1.0
sg10
F1.0
sg66
F0.75
sg89
F0.75
sg78
F1.0
sg22
F0.6666666666666666
sg43
F0.7777777777777777
sg95
F1.0
sg123
F1.0
sg45
F0.75
sg25
F1.0
sg112
F1.0
sg67
F1.0
sg68
F1.0
sg69
F0.75
sg124
F1.0
sg38
F1.0
sg39
F1.0
sg30
F1.0
sg90
F0.75
ssg7
(dp255
g20
F1.0
sg3
F0.75
sg29
F1.0
sg82
F1.0
sg116
F1.0
sg94
F1.0
sg65
F1.0
sg77
F1.0
sg12
F0.75
sg66
F1.0
sg100
F1.0
sg81
F1.0
sg117
F1.0
sg60
F1.0
sg114
F1.0
sg105
F1.0
ssg8
(dp256
g5
F1.0
sg3
F1.0
sg29
F1.0
sg16
F1.0
sg74
F0.75
sg24
F0.8333333333333333
sg75
F0.75
sg94
F1.0
sg11
F1.0
sg6
F0.75
sg13
F1.0
sg142
F1.0
sg14
F0.7777777777777777
sg81
F0.7777777777777778
sg58
F1.0
sg17
F0.8333333333333333
sg18
F1.0
sg60
F0.7777777777777777
sg83
F1.0
sg117
F1.0
sg66
F1.0
sg89
F1.0
sg63
F1.0
sg76
F1.0
sg19
F0.8333333333333334
sg22
F1.0
sg43
F0.7222222222222223
sg77
F0.7777777777777778
sg110
F1.0
sg123
F1.0
sg45
F1.0
sg25
F1.0
sg26
F0.7777777777777777
sg67
F1.0
sg69
F0.7777777777777777
sg105
F0.75
sg91
F0.75
sg99
F1.0
sg30
F1.0
sg114
F1.0
sg31
F0.7777777777777777
ssg74
(dp257
g6
F1.0
sg29
F1.0
sg8
F1.0
sg73
F1.0
sg75
F1.0
sg94
F1.0
sg76
F1.0
sg101
F0.7777777777777778
sg71
F1.0
sg30
F1.0
sg16
F1.0
sg121
F0.75
sg58
F1.0
sg48
F1.0
sg82
F1.0
sg78
F1.0
sg17
F1.0
sg18
F1.0
sg60
F1.0
sg87
F0.75
sg61
F1.0
sg88
F1.0
sg66
F1.0
sg89
F1.0
sg106
F1.0
sg137
F0.75
sg19
F1.0
sg20
F1.0
sg98
F1.0
sg22
F1.0
sg43
F1.0
sg23
F1.0
sg77
F1.0
sg65
F1.0
sg122
F1.0
sg111
F1.0
sg45
F1.0
sg25
F1.0
sg112
F1.0
sg79
F1.0
sg69
F1.0
sg105
F1.0
sg55
F0.7777777777777777
sg91
F1.0
sg44
F1.0
sg99
F1.0
sg39
F1.0
sg14
F1.0
sg92
F1.0
sg84
F1.0
sg114
F1.0
sg31
F1.0
ssg116
(dp258
g7
F1.0
sg16
F1.0
sg43
F1.0
sg85
F1.0
sg11
F1.0
sg22
F1.0
sg81
F1.0
sg117
F1.0
sg66
F1.0
sg27
F1.0
ssg75
(dp259
g5
F1.0
sg6
F1.0
sg29
F1.0
sg8
F1.0
sg74
F1.0
sg76
F1.0
sg13
F1.0
sg71
F1.0
sg14
F1.0
sg16
F1.0
sg121
F1.0
sg73
F1.0
sg82
F1.0
sg17
F1.0
sg18
F1.0
sg60
F1.0
sg105
F1.0
sg78
F1.0
sg19
F1.0
sg48
F1.0
sg43
F1.0
sg77
F1.0
sg123
F1.0
sg45
F1.0
sg25
F1.0
sg112
F1.0
sg124
F1.0
sg91
F1.0
sg39
F1.0
sg92
F1.0
sg31
F1.0
ssg94
(dp260
g5
F1.0
sg6
F1.0
sg7
F1.0
sg8
F1.0
sg74
F1.0
sg76
F1.0
sg13
F1.0
sg86
F1.0
sg29
F1.0
sg81
F1.0
sg16
F1.0
sg58
F1.0
sg82
F1.0
sg83
F1.0
sg61
F1.0
sg66
F1.0
sg22
F1.0
sg43
F1.0
sg45
F1.0
sg25
F1.0
sg26
F1.0
sg68
F1.0
sg69
F1.0
sg14
F1.0
sg114
F1.0
sS'F25axtfCKG'
p261
F1.0
ssg76
(dp262
g5
F1.0
sg6
F1.0
sg29
F1.0
sg8
F1.0
sg74
F1.0
sg75
F1.0
sg94
F1.0
sS'jR1rpwLHNu'
p263
F1.0
sg13
F1.0
sg71
F1.0
sg30
F1.0
sg81
F1.0
sg16
F1.0
sg117
F1.0
sg58
F1.0
sg73
F1.0
sg82
F1.0
sg103
F1.0
sg78
F1.0
sg60
F1.0
sg61
F1.0
sg46
F1.0
sg66
F1.0
sg89
F1.0
sg97
F1.0
sg22
F1.0
sg43
F1.0
sg23
F1.0
sg77
F1.0
sg110
F1.0
sg45
F1.0
sg25
F1.0
sg112
F1.0
sg79
F1.0
sg68
F1.0
sg69
F1.0
sg55
F1.0
sg17
F1.0
sg44
F1.0
sg99
F1.0
sg14
F1.0
sg114
F1.0
ssg263
(dp264
g60
F1.0
sg76
F1.0
ssS'K4IIshw37g'
p265
(dp266
sS'rPj8YeG1I5'
p267
(dp268
sg13
(dp269
g5
F1.0
sg3
F1.0
sg29
F1.0
sg8
F1.0
sg75
F1.0
sg94
F1.0
sg76
F1.0
sg6
F1.0
sg14
F1.0
sg16
F1.0
sg121
F1.0
sg58
F1.0
sg17
F1.0
sg18
F1.0
sg60
F1.0
sg10
F1.0
sg66
F1.0
sg89
F1.0
sg78
F1.0
sg22
F1.0
sg43
F1.0
sg123
F1.0
sg45
F1.0
sg25
F1.0
sg68
F1.0
sg90
F1.0
sg124
F1.0
sg38
F1.0
sg39
F1.0
sg30
F1.0
sg114
F1.0
ssg34
(dp270
g20
F1.0
sg109
F1.0
sg32
F1.0
sg43
F0.6666666666666666
sg85
F1.0
sg23
F1.0
sg29
F1.0
sg77
F1.0
sg61
F1.0
sg111
F1.0
sg40
F1.0
sg25
F1.0
sg114
F1.0
sg89
F1.0
ssg142
(dp271
g20
F1.0
sg30
F1.0
sg8
F1.0
sg43
F1.0
sg79
F1.0
ssg95
(dp272
g5
F1.0
sg29
F1.0
sg43
F1.0
sg18
F1.0
sg38
F1.0
sg77
F1.0
sg45
F1.0
sg39
F1.0
sg14
F1.0
sg93
F1.0
sg83
F1.0
sg112
F1.0
sg47
F1.0
ssg96
(dp273
g29
F1.0
sg79
F1.0
ssg15
(dp274
g3
F1.0
sg124
F1.0
ssg121
(dp275
g5
F1.0
sg6
F1.0
sg124
F1.0
sg74
F1.0
sg18
F1.0
sg58
F1.0
sg39
F1.0
sg13
F1.0
sg101
F1.0
sg75
F1.0
sg123
F1.0
sg14
F1.0
sg25
F1.0
sg114
F1.0
sg16
F1.0
sg105
F1.0
sg78
F1.0
sg137
F1.0
ssS'eZRzEYP9oJ'
p276
(dp277
sS'dTIQk6Xt3r'
p278
(dp279
sS'On0ILT6rt5'
p280
(dp281
sS'654Dd1132b'
p282
(dp283
sg68
(dp284
g5
F1.0
sg55
F0.75
sg85
F1.0
sg94
F0.8333333333333333
sg76
F0.75
sg53
F0.75
sg13
F0.75
sg29
F1.0
sg81
F0.75
sg58
F0.7777777777777777
sg82
F1.0
sg17
F0.75
sg61
F0.8125
sg66
F0.8125
sg89
F0.7333333333333334
sg27
F1.0
sg20
F1.0
sg109
F1.0
sg43
F0.8333333333333333
sg23
F0.75
sg22
F0.75
sg110
F1.0
sg45
F0.7777777777777777
sg25
F0.75
sg26
F0.6666666666666666
sg67
F1.0
sg69
F0.6666666666666666
sg44
F1.0
sg14
F1.0
sg30
F1.0
sg90
F0.75
ssS'Fe9oJAU48c'
p285
(dp286
sg79
(dp287
g73
F1.0
sg25
F1.0
sg29
F1.0
sg74
F1.0
sg17
F1.0
sg23
F1.0
sg78
F1.0
sg44
F1.0
sg76
F1.0
sg142
F1.0
sg71
F1.0
sg45
F1.0
sg96
F1.0
sg60
F1.0
sg100
F1.0
sg43
F1.0
ssS'dc35t0IQHq'
p288
(dp289
sg40
(dp290
g29
F1.0
sg41
F1.0
sg9
F1.0
sg100
F1.0
sg14
F1.0
sg85
F1.0
sg103
F1.0
sg18
F1.0
sg61
F1.0
sg78
F1.0
sg20
F1.0
sg109
F1.0
sg43
F1.0
sg37
F1.0
sg65
F1.0
sg77
F1.0
sg111
F1.0
sg45
F1.0
sg25
F1.0
sg35
F1.0
sg34
F1.0
sg69
F1.0
sg17
F1.0
sg44
F1.0
sg39
F1.0
sg30
F1.0
sg38
F1.0
sg114
F1.0
ssg147
(dp291
g37
F1.0
ssg90
(dp292
g5
F1.0
sg29
F1.0
sg16
F0.6666666666666666
sg43
F1.0
sg13
F1.0
sg30
F1.0
sg66
F1.0
sg89
F1.0
sg68
F1.0
ssS'f4fNYL73Z2'
p293
(dp294
sg20
(dp295
g3
F1.0
sg55
F1.0
sg32
F1.0
sg74
F1.0
sg85
F1.0
sg9
F1.0
sg109
F1.0
sg142
F1.0
sg7
F1.0
sg16
F1.0
sg58
F1.0
sg17
F1.0
sg40
F1.0
sg66
F1.0
sg105
F1.0
sg22
F1.0
sg23
F1.0
sg65
F1.0
sg122
F1.0
sg111
F1.0
sg25
F1.0
sg34
F1.0
sg68
F1.0
sg98
F1.0
sg29
F1.0
sg30
F1.0
sg114
F1.0
sg31
F1.0
ssg182
(dp296
g105
F1.0
sg31
F1.0
ssg204
(dp297
g89
F1.0
sg92
F1.0
sg17
F1.0
ssS'txnqGG764s'
p298
(dp299
sS'uYf5028a75'
p300
(dp301
sS's39qS245G2'
p302
(dp303
sg26
(dp304
g3
F1.0
sg29
F1.0
sg8
F1.0
sg85
F1.0
sg94
F1.0
sg53
F1.0
sg6
F1.0
sg30
F1.0
sg81
F1.0
sg58
F1.0
sg17
F1.0
sg60
F1.0
sg61
F1.0
sg66
F1.0
sg105
F1.0
sg19
F1.0
sg22
F1.0
sg43
F1.0
sg65
F1.0
sg45
F1.0
sg27
F1.0
sg67
F1.0
sg68
F1.0
sg69
F1.0
sg91
F1.0
sg14
F1.0
sg24
F1.0
sg31
F1.0
ssS'589M2uPIY4'
p305
(dp306
sS'V2p98HHF6o'
p307
(dp308
sg47
(dp309
g29
F1.0
sg43
F1.0
sg41
F1.0
sg18
F1.0
sg44
F1.0
sg38
F1.0
sg141
F1.0
sg45
F1.0
sg95
F1.0
sg46
F1.0
sg84
F1.0
sg112
F1.0
sg48
F1.0
ssg98
(dp310
g20
F0.6666666666666666
sg29
F0.875
sg55
F0.75
sg74
F0.75
sg17
F0.75
sg65
F1.0
sg111
F0.6666666666666666
sg30
F0.75
sg58
F0.75
ssg11
(dp311
g3
F1.0
sg109
F0.75
sg8
F0.75
sg43
F1.0
sg23
F1.0
sg116
F1.0
sg22
F1.0
sg24
F1.0
sg30
F0.75
sg81
F1.0
sg117
F1.0
sg66
F1.0
sg16
F1.0
sg89
F0.75
sg63
F1.0
sg27
F1.0
ssg97
(dp312
g29
F1.0
sg43
F1.0
sg17
F1.0
sg23
F1.0
sg60
F1.0
sg76
F1.0
sg24
F1.0
sg45
F1.0
sg46
F1.0
sg63
F1.0
sg67
F1.0
ssS'15V4J8fDs3'
p313
(dp314
g100
F0.75
ssg14
(dp315
g5
F1.0
sg3
F0.75
sg29
F0.9166666666666666
sg8
F0.7777777777777778
sg74
F1.0
sg41
F1.0
sg24
F1.0
sg75
F1.0
sg94
F0.8333333333333333
sg76
F0.75
sg53
F0.7777777777777777
sg6
F0.8
sg13
F0.75
sg95
F1.0
sg81
F0.75
sg16
F0.7999999999999999
sg121
F1.0
sg58
F0.7777777777777777
sg59
F1.0
sg48
F1.0
sg82
F1.0
sg85
F1.0
sg17
F0.7916666666666666
sg18
F1.0
sg60
F0.75
sg9
F1.0
sg83
F1.0
sg61
F0.75
sg40
F1.0
sg46
F0.75
sg10
F1.0
sg66
F0.75
sg105
F1.0
sg78
F1.0
sg19
F1.0
sg109
F1.0
sg43
F0.8444444444444444
sg64
F1.0
sg37
F1.0
sg65
F1.0
sg77
F1.0
sg22
F0.75
sg62
F1.0
sg123
F1.0
sg45
F0.8125
sg93
F1.0
sg26
F0.75
sg35
F1.0
sg67
F1.0
sg68
F1.0
sg69
F0.7777777777777778
sg124
F1.0
sg91
F1.0
sg63
F0.8333333333333333
sg39
F1.0
sg30
F1.0
sg38
F1.0
sg114
F1.0
sg27
F1.0
sg31
F1.0
sg25
F1.0
ssg128
(dp316
g109
F1.0
sg122
F1.0
sg126
F1.0
sg61
F1.0
sg22
F1.0
sg58
F1.0
ssS'84qYt0yA5y'
p317
(dp318
sS'Dl62lXJbK1'
p319
(dp320
sg9
(dp321
g20
F1.0
sg3
F1.0
sg109
F1.0
sg32
F1.0
sg85
F1.0
sg14
F1.0
sg40
F1.0
sg25
F1.0
ssS'7d9J30iOq8'
p322
(dp323
sg100
(dp324
g85
F0.6666666666666666
sg25
F0.75
sg7
F1.0
sg43
F0.8333333333333333
sg103
F0.75
sg29
F0.875
sg44
F1.0
sg65
F0.6666666666666666
sg77
F0.75
sg45
F1.0
sg313
F1.0
sg40
F0.75
sg12
F0.6666666666666666
sg79
F0.75
sg69
F0.6666666666666666
ssS'CaA0123UJL'
p325
(dp326
sS'0w3IAZa8rQ'
p327
(dp328
sg12
(dp329
g3
F1.0
sg7
F1.0
sg43
F1.0
sg18
F1.0
sg44
F1.0
sg38
F1.0
sg77
F1.0
sg108
F1.0
sg104
F1.0
sg29
F1.0
sg100
F1.0
ssg101
(dp330
g6
F1.0
sg29
F1.0
sg16
F1.0
sg74
F1.0
sg39
F1.0
sg122
F1.0
sg87
F1.0
sg99
F1.0
sg22
F1.0
sg55
F1.0
sg121
F1.0
sg105
F1.0
sg58
F1.0
sg137
F1.0
ssg30
(dp331
g5
F1.0
sg3
F0.7777777777777777
sg29
F1.0
sg8
F0.7777777777777778
sg74
F1.0
sg85
F1.0
sg10
F1.0
sg11
F0.75
sg53
F0.75
sg6
F0.75
sg13
F0.75
sg142
F1.0
sg22
F0.75
sg57
F0.75
sg16
F0.8333333333333334
sg61
F0.75
sg58
F0.7777777777777777
sg17
F0.8125
sg18
F1.0
sg60
F0.75
sg63
F0.8333333333333333
sg40
F1.0
sg66
F0.7777777777777778
sg89
F0.7916666666666667
sg78
F1.0
sg76
F0.75
sg20
F1.0
sg109
F1.0
sg43
F0.7999999999999999
sg64
F1.0
sg23
F0.75
sg65
F1.0
sg110
F1.0
sg111
F1.0
sg45
F0.7777777777777777
sg25
F0.8333333333333334
sg26
F0.75
sg68
F1.0
sg69
F0.6666666666666666
sg98
F1.0
sg55
F0.7777777777777777
sg44
F1.0
sg39
F1.0
sg14
F1.0
sg92
F1.0
sg38
F1.0
sg90
F0.75
ssS'31ApG55XoV'
p332
(dp333
sS'517LN52NOL'
p334
(dp335
sg59
(dp336
g29
F1.0
sg43
F1.0
sg39
F1.0
sg53
F1.0
sg45
F1.0
sg14
F1.0
sg62
F1.0
ssS'hqew2E2l61'
p337
(dp338
sg102
(dp339
g29
F1.0
sg122
F0.75
sg105
F0.75
ssg103
(dp340
g29
F0.7142857142857143
sg43
F0.75
sg44
F0.75
sg76
F0.75
sg65
F1.0
sg77
F0.6666666666666666
sg45
F0.75
sg110
F0.75
sg40
F0.75
sg100
F0.625
sg114
F1.0
sg89
F0.875
sg69
F0.8333333333333333
ssg18
(dp341
g5
F1.0
sg3
F0.75
sg29
F0.8888888888888888
sg8
F1.0
sg74
F0.75
sg14
F0.7
sg24
F0.75
sg75
F0.7777777777777777
sg6
F0.75
sg12
F0.8333333333333333
sg13
F1.0
sg30
F1.0
sg81
F0.75
sg16
F1.0
sg121
F1.0
sg48
F0.75
sg17
F0.8333333333333333
sg39
F1.0
sg60
F1.0
sg83
F0.8333333333333333
sg40
F0.75
sg47
F0.7777777777777777
sg66
F0.75
sg105
F0.75
sg19
F0.8333333333333333
sg43
F0.825
sg37
F0.75
sg65
F0.75
sg77
F0.6666666666666666
sg123
F1.0
sg45
F1.0
sg93
F0.75
sg35
F0.75
sg112
F1.0
sg163
F1.0
sg69
F0.75
sg124
F1.0
sg91
F0.75
sg44
F1.0
sg141
F0.75
sg78
F1.0
sg95
F0.7777777777777777
sg38
F0.7333333333333333
sg31
F0.6666666666666666
sg25
F1.0
ssg60
(dp342
g6
F1.0
sg7
F1.0
sg8
F1.0
sg74
F1.0
sg75
F1.0
sg76
F1.0
sg263
F1.0
sg53
F1.0
sg13
F1.0
sg71
F1.0
sg14
F1.0
sg81
F1.0
sg57
F1.0
sg16
F1.0
sg117
F1.0
sg58
F1.0
sg48
F1.0
sg17
F1.0
sg39
F1.0
sg202
F1.0
sg46
F1.0
sg66
F1.0
sg89
F1.0
sg106
F1.0
sg97
F1.0
sg22
F1.0
sg43
F1.0
sg23
F1.0
sg65
F1.0
sg77
F1.0
sg110
F1.0
sg24
F1.0
sg45
F1.0
sg26
F1.0
sg79
F1.0
sg69
F1.0
sg105
F1.0
sg55
F1.0
sg29
F1.0
sg84
F1.0
sg99
F1.0
sg18
F1.0
sg30
F1.0
sg92
F1.0
ssg146
(dp343
g37
F1.0
ssS'eD0u9WOep7'
p344
(dp345
sg104
(dp346
g29
F1.0
sg43
F1.0
sg17
F1.0
sg44
F1.0
sg12
F1.0
sg92
F1.0
ssg61
(dp347
g6
F0.875
sg55
F0.7777777777777777
sg74
F1.0
sg85
F1.0
sg94
F1.0
sg76
F1.0
sg53
F1.0
sg29
F1.0
sg58
F1.0
sg17
F1.0
sg126
F1.0
sg88
F1.0
sg40
F1.0
sg66
F1.0
sg89
F1.0
sg27
F1.0
sg21
F1.0
sg109
F1.0
sg43
F1.0
sg23
F1.0
sg22
F1.0
sg110
F1.0
sg45
F1.0
sg25
F1.0
sg26
F1.0
sg34
F1.0
sg67
F1.0
sg68
F1.0
sg69
F1.0
sg14
F1.0
sg30
F1.0
sg128
F1.0
ssg202
(dp348
g99
F1.0
sg60
F1.0
ssg66
(dp349
g5
F1.0
sg6
F1.0
sg7
F1.0
sg8
F1.0
sg74
F1.0
sg116
F1.0
sg94
F1.0
sg11
F1.0
sg53
F1.0
sg13
F1.0
sg86
F1.0
sg29
F1.0
sg81
F1.0
sg16
F1.0
sg58
F1.0
sg82
F1.0
sg17
F1.0
sg18
F1.0
sg60
F1.0
sg83
F1.0
sg61
F1.0
sg89
F1.0
sg76
F1.0
sg19
F1.0
sg20
F1.0
sg22
F1.0
sg43
F1.0
sg45
F1.0
sg25
F1.0
sg26
F1.0
sg67
F1.0
sg68
F1.0
sg27
F1.0
sg105
F1.0
sg91
F1.0
sg38
F1.0
sg14
F1.0
sg39
F1.0
sg30
F1.0
sg114
F1.0
sg90
F1.0
ssg105
(dp350
g6
F0.8333333333333333
sg7
F1.0
sg8
F0.75
sg74
F0.7777777777777778
sg85
F1.0
sg75
F0.75
sg101
F0.75
sg29
F0.8541666666666666
sg16
F0.8333333333333333
sg121
F0.75
sg58
F0.7777777777777777
sg48
F1.0
sg102
F1.0
sg17
F1.0
sg18
F0.75
sg60
F1.0
sg87
F1.0
sg66
F0.8333333333333333
sg106
F1.0
sg137
F0.75
sg19
F0.6666666666666666
sg20
F1.0
sg21
F1.0
sg22
F0.7999999999999999
sg182
F0.75
sg43
F0.875
sg65
F1.0
sg77
F0.75
sg111
F1.0
sg25
F0.75
sg26
F1.0
sg69
F1.0
sg55
F1.0
sg91
F0.7777777777777778
sg99
F0.75
sg39
F0.75
sg14
F0.7777777777777778
sg114
F0.7777777777777778
sg251
F1.0
sg31
F0.8
ssg106
(dp351
g29
F1.0
sg74
F0.6666666666666666
sg17
F0.75
sg60
F0.7777777777777777
sg92
F0.75
sg84
F0.75
sg105
F1.0
ssg19
(dp352
g3
F1.0
sg29
F1.0
sg8
F1.0
sg74
F1.0
sg75
F1.0
sg6
F1.0
sg86
F1.0
sg14
F1.0
sg16
F1.0
sg58
F1.0
sg82
F1.0
sg17
F1.0
sg18
F1.0
sg66
F1.0
sg105
F1.0
sg22
F1.0
sg43
F1.0
sg77
F1.0
sg24
F1.0
sg25
F1.0
sg26
F1.0
sg67
F1.0
sg91
F1.0
sg39
F1.0
sg45
F1.0
sg31
F1.0
ssg107
(dp353
g29
F1.0
sg45
F1.0
sg82
F1.0
sg43
F1.0
sg17
F1.0
ssg108
(dp354
g29
F0.7857142857142857
sg77
F0.6666666666666666
sg12
F0.8333333333333333
ssg22
(dp355
g5
F1.0
sg3
F1.0
sg29
F0.8333333333333334
sg8
F1.0
sg74
F0.75
sg85
F1.0
sg116
F1.0
sg94
F1.0
sg11
F1.0
sg53
F0.7777777777777778
sg6
F1.0
sg13
F1.0
sg101
F0.75
sg30
F0.75
sg57
F1.0
sg16
F0.7916666666666667
sg58
F0.8125
sg82
F1.0
sg17
F0.75
sg39
F0.7777777777777777
sg60
F0.7777777777777777
sg61
F1.0
sg117
F1.0
sg66
F1.0
sg89
F1.0
sg63
F1.0
sg76
F1.0
sg19
F1.0
sg20
F0.8333333333333333
sg109
F1.0
sg43
F1.0
sg64
F0.75
sg23
F1.0
sg65
F0.75
sg122
F0.7777777777777777
sg24
F1.0
sg45
F1.0
sg25
F1.0
sg26
F1.0
sg67
F1.0
sg68
F1.0
sg27
F1.0
sg105
F0.7777777777777777
sg55
F1.0
sg91
F1.0
sg99
F0.75
sg14
F1.0
sg31
F1.0
sg128
F1.0
ssS'12M70dm49w'
p356
(dp357
sg64
(dp358
g29
F1.0
sg16
F1.0
sg85
F1.0
sg17
F1.0
sg39
F1.0
sg58
F1.0
sg53
F1.0
sg22
F1.0
sg92
F1.0
sg14
F1.0
sg30
F1.0
ssS'e7uv9PqtYY'
p359
(dp360
sg77
(dp361
g6
F1.0
sg7
F1.0
sg8
F1.0
sg74
F1.0
sg75
F1.0
sg100
F1.0
sg76
F1.0
sg12
F1.0
sg71
F1.0
sg95
F1.0
sg81
F1.0
sg58
F1.0
sg73
F1.0
sg103
F1.0
sg18
F1.0
sg60
F1.0
sg83
F1.0
sg88
F1.0
sg40
F1.0
sg89
F1.0
sg78
F1.0
sg19
F1.0
sg108
F1.0
sg43
F1.0
sg65
F1.0
sg110
F1.0
sg24
F1.0
sg45
F1.0
sg93
F1.0
sg34
F1.0
sg69
F1.0
sg105
F1.0
sg17
F1.0
sg29
F1.0
sg44
F1.0
sg91
F1.0
sg99
F1.0
sg39
F1.0
sg14
F1.0
sg114
F1.0
sg48
F1.0
sg31
F1.0
sg25
F1.0
ssS'2rSW5fZ50h'
p362
(dp363
sS'7rP4RofmNF'
p364
(dp365
sg110
(dp366
g55
F0.75
sg25
F0.75
sg29
F1.0
sg8
F0.75
sg17
F0.75
sg103
F1.0
sg23
F0.75
sg60
F0.75
sg76
F0.7777777777777778
sg77
F1.0
sg45
F0.75
sg61
F0.75
sg30
F1.0
sg81
F0.75
sg89
F0.7333333333333334
sg117
F0.75
sg114
F1.0
sg69
F0.6666666666666666
sg58
F0.75
sg68
F1.0
sg43
F0.75
ssg111
(dp367
g20
F0.75
sg98
F0.75
sg109
F0.75
sg55
F1.0
sg74
F0.75
sg17
F0.75
sg29
F0.8333333333333334
sg58
F0.75
sg65
F0.6666666666666666
sg85
F0.6666666666666666
sg34
F0.75
sg40
F0.7777777777777777
sg25
F0.75
sg114
F0.75
sg105
F0.75
sg30
F0.75
ssg45
(dp368
g5
F1.0
sg6
F1.0
sg29
F0.8809523809523809
sg8
F1.0
sg74
F1.0
sg41
F0.6666666666666666
sg75
F1.0
sg94
F1.0
sg76
F1.0
sg53
F0.7777777777777777
sg13
F1.0
sg71
F1.0
sg30
F1.0
sg16
F1.0
sg61
F1.0
sg58
F1.0
sg59
F0.75
sg73
F1.0
sg82
F0.8125
sg85
F1.0
sg17
F1.0
sg18
F1.0
sg60
F1.0
sg83
F0.8333333333333333
sg63
F0.65
sg79
F1.0
sg40
F0.75
sg68
F1.0
sg46
F0.75
sg100
F1.0
sg66
F1.0
sg89
F1.0
sg78
F1.0
sg97
F1.0
sg19
F1.0
sg107
F1.0
sg48
F0.75
sg109
F1.0
sg43
F0.9444444444444443
sg23
F1.0
sg65
F0.75
sg77
F0.7777777777777778
sg22
F0.8
sg110
F1.0
sg62
F0.75
sg24
F0.8333333333333333
sg93
F0.75
sg26
F1.0
sg112
F1.0
sg67
F1.0
sg47
F0.75
sg69
F0.75
sg55
F1.0
sg103
F0.75
sg91
F1.0
sg44
F1.0
sg14
F0.85
sg39
F1.0
sg95
F0.75
sg113
F1.0
sg114
F1.0
sg27
F1.0
sg25
F1.0
ssS'13yR9KFHCI'
p369
(dp370
sg112
(dp371
g5
F1.0
sg29
F1.0
sg82
F1.0
sg74
F1.0
sg18
F1.0
sg73
F1.0
sg76
F1.0
sg45
F1.0
sg75
F1.0
sg95
F1.0
sg81
F1.0
sg16
F1.0
sg78
F1.0
sg47
F1.0
sg43
F1.0
ssg27
(dp372
g3
F0.75
sg29
F1.0
sg16
F0.8333333333333333
sg85
F1.0
sg116
F0.8333333333333333
sg11
F0.75
sg53
F0.75
sg14
F1.0
sg81
F0.75
sg58
F0.75
sg17
F0.6666666666666666
sg61
F0.75
sg117
F0.75
sg66
F0.75
sg21
F0.8333333333333333
sg22
F0.75
sg43
F0.8333333333333334
sg45
F0.75
sg26
F0.6666666666666666
sg67
F1.0
sg68
F1.0
sg91
F1.0
ssS'740FTSQ19O'
p373
(dp374
sg261
(dp375
g94
F0.75
ssS'yA79w15tnU'
p376
(dp377
sS'Ud9p3KH6Bv'
p378
(dp379
sS'h9Tx9ulI5Q'
p380
(dp381
sg78
(dp382
g5
F1.0
sg6
F1.0
sg29
F1.0
sg16
F1.0
sg74
F1.0
sg85
F1.0
sg75
F1.0
sg76
F1.0
sg13
F1.0
sg71
F1.0
sg14
F1.0
sg121
F1.0
sg58
F1.0
sg73
F1.0
sg82
F1.0
sg17
F1.0
sg18
F1.0
sg40
F1.0
sg43
F1.0
sg23
F1.0
sg77
F1.0
sg123
F1.0
sg45
F1.0
sg25
F1.0
sg112
F1.0
sg79
F1.0
sg124
F1.0
sg44
F1.0
sg39
F1.0
sg30
F1.0
sg92
F1.0
sg114
F1.0
ssS'4ajdr1a4Kc'
p383
(dp384
sg113
(dp385
g29
F1.0
sg44
F1.0
sg45
F1.0
ssg114
(dp386
g6
F1.0
sg7
F1.0
sg8
F1.0
sg74
F0.7777777777777777
sg85
F1.0
sg94
F1.0
sg76
F0.7777777777777777
sg13
F1.0
sg29
F0.875
sg16
F1.0
sg121
F1.0
sg58
F0.75
sg73
F0.6666666666666666
sg103
F1.0
sg78
F0.75
sg40
F0.75
sg66
F1.0
sg89
F0.875
sg137
F1.0
sg20
F0.8125
sg21
F1.0
sg109
F0.75
sg43
F0.7777777777777777
sg65
F1.0
sg77
F0.7777777777777778
sg110
F0.75
sg111
F0.75
sg45
F0.75
sg25
F1.0
sg34
F0.75
sg105
F1.0
sg91
F1.0
sg99
F1.0
sg14
F1.0
sg31
F1.0
ssS'odPTXtfS78'
p387
(dp388
s.