(dp0
S'XJyS25Yg27'
p1
(dp2
S'D1VwdFc01t'
p3
F1.0
sS'X5eS5kvC8h'
p4
F1.0
sS'ajPRq0Q08b'
p5
F1.0
sS'XL0eQIoG72'
p6
F1.0
sS'l5eh0S53tB'
p7
F1.0
sS'y5009rpZ12'
p8
F1.0
sS's19Mo891H5'
p9
F1.0
sS'm64Rgy40OF'
p10
F1.0
sS'k3jBd30ocz'
p11
F1.0
sS'Gwk4z777oU'
p12
F1.0
sS'dvG32rxRzQ'
p13
F1.0
sS'saNy7ix5ZY'
p14
F1.0
sS'34f4oB5Cod'
p15
F1.0
sS'EfN583275t'
p16
F1.0
sS'i8f2gg51r5'
p17
F1.0
sS'5a5qA8VLfI'
p18
F1.0
sS'h0UbH181l8'
p19
F1.0
sS'ZP886G3Z76'
p20
F1.0
sS'242fhbKRf9'
p21
F1.0
sS'0U9x5pNv8t'
p22
F1.0
ssg9
(dp23
g1
F1.0
sg5
F1.0
sg6
F1.0
sS'02i5jCrfQK'
p24
F1.0
sS'c1zVCHxCEz'
p25
F1.0
sS'SoEcLAeJi1'
p26
F1.0
sS'3hSu07XfGd'
p27
F1.0
sg11
F1.0
sS'77y7iIIXuv'
p28
F1.0
sS'IQ98biy227'
p29
F1.0
sg8
F1.0
sS'6jCygPdswz'
p30
F0.75
sS'1bJbgQ32E3'
p31
F0.8333333333333334
sg4
F1.0
sg13
F1.0
sg7
F1.0
sS'LnVZmUuwc8'
p32
F1.0
sS'4X3016rdOZ'
p33
F1.0
sg21
F1.0
sS'9EAa0nJjb1'
p34
F1.0
sg3
F1.0
sg19
F0.7777777777777778
sS'1CI7f2R98c'
p35
F1.0
ssS'M7hLaVJGvX'
p36
(dp37
S'8gH5u019ZH'
p38
F1.0
sg25
F0.8
sS'LM96hW22T2'
p39
F0.7777777777777777
sg28
F1.0
sS'88Uhb8760x'
p40
F0.75
ssS'Fx8d98DRud'
p41
(dp42
sS'l8bH01vT7z'
p43
(dp44
sS'9eV0EGVC6j'
p45
(dp46
sS'6bJ4auIa8L'
p47
(dp48
g4
F1.0
sg5
F1.0
sg6
F1.0
sg7
F1.0
sg8
F1.0
sg29
F1.0
sg13
F1.0
sg10
F1.0
sg11
F1.0
sS'qL6HDg57R9'
p49
F1.0
sS'YNGlv7F45C'
p50
F1.0
sg14
F1.0
sg19
F1.0
sg17
F1.0
sg18
F1.0
sS'OS2vxzjz6W'
p51
F1.0
sg31
F1.0
sg26
F1.0
sg22
F1.0
ssS'8csPxY44OZ'
p52
(dp53
sS'a47O44klh3'
p54
(dp55
sS'0GlR30c2Mt'
p56
(dp57
sg28
(dp58
S'apCLF0uF21'
p59
F1.0
sg12
F1.0
sg5
F1.0
sg36
F1.0
sg24
F1.0
sg25
F1.0
sg9
F1.0
sg27
F1.0
sg11
F1.0
sS'Dmq6441349'
p60
F1.0
sg6
F1.0
sg29
F1.0
sg40
F1.0
sg8
F1.0
sg38
F1.0
sS'2IaH8665Ha'
p61
F1.0
sg51
F1.0
sg21
F1.0
sS'stK4H8Vit6'
p62
F1.0
sg30
F1.0
sg31
F1.0
sg26
F1.0
sg13
F1.0
sg7
F1.0
sg32
F1.0
sg49
F1.0
sg17
F1.0
sS'EWHJMBPf94'
p63
F1.0
sg50
F1.0
sS'mNzo8mGzu9'
p64
F1.0
sg22
F1.0
sS'HvghFVBS5v'
p65
F1.0
sg3
F1.0
sg19
F1.0
sg35
F1.0
sS'odPTXtfS78'
p66
F1.0
sg33
F1.0
sg34
F1.0
ssS'Bp1ZMF9Z0G'
p67
(dp68
sg40
(dp69
g36
F1.0
sg38
F1.0
sg25
F0.7916666666666666
sg61
F0.7777777777777777
sg28
F1.0
sg18
F0.8333333333333334
sg21
F1.0
ssS'k37lfl6ENf'
p70
(dp71
sS'vpuUyzUJ0z'
p72
(dp73
sg61
(dp74
g25
F1.0
sg38
F1.0
sg28
F1.0
sg40
F1.0
ssS'verm1Wp12u'
p75
(dp76
g59
F1.0
sg12
F0.7777777777777778
sS'yuB6nxh3FX'
p77
F0.6
sg6
F0.8571428571428572
sg24
F1.0
sg25
F1.0
sg26
F0.75
sg27
F0.75
sg5
F0.8333333333333334
sg29
F0.625
sg8
F0.7777777777777777
sS'276487SwvF'
p78
F1.0
sg51
F0.75
sg30
F0.875
sS'6W08a98ZQV'
p79
F1.0
sg7
F0.75
sg32
F0.8333333333333334
sS'm58s5oOZCm'
p80
F0.7333333333333334
sg14
F1.0
sg16
F0.75
sg17
F1.0
sg33
F0.75
sg49
F0.75
sg19
F0.6666666666666666
ssS'qkmLNnC7YU'
p81
(dp82
sS'XTXYl6nJ7J'
p83
(dp84
sS'OPv5PP9Bi4'
p85
(dp86
sg10
(dp87
g59
F1.0
sg1
F0.875
sg5
F0.7363636363636363
sg6
F0.6666666666666666
sg25
F1.0
sg26
F0.7777777777777777
sg47
F1.0
sg12
F0.75
sg19
F0.6666666666666666
sg78
F1.0
sg8
F0.8888888888888888
sg18
F0.75
sg34
F0.8333333333333334
sg31
F1.0
sg20
F0.75
sg4
F1.0
sg13
F0.71875
sg7
F0.7878787878787877
sg32
F1.0
sg49
F0.75
sg17
F0.75
sg22
F0.7777777777777778
sg15
F0.6666666666666666
sg11
F0.7857142857142857
sg14
F1.0
ssg31
(dp88
g59
F0.75
sg5
F0.9
sg6
F1.0
sg24
F0.8333333333333334
sg25
F1.0
sg9
F0.8333333333333334
sg47
F0.75
sg27
F1.0
sg19
F1.0
sg28
F1.0
sg60
F1.0
sg29
F1.0
sg8
F1.0
sg51
F0.6666666666666666
sg10
F0.8333333333333333
sg30
F0.8541666666666666
sg26
F0.7777777777777777
sg4
F0.75
sg13
F0.875
sg7
F0.75
sg32
F0.7777777777777777
sg49
F0.8666666666666666
sg16
F0.7777777777777777
sg17
F0.75
sg50
F1.0
sg21
F1.0
sg22
F1.0
sg11
F0.75
sg20
F1.0
sg14
F0.75
sg34
F0.7777777777777777
ssS'E38It7fjg0'
p89
(dp90
sg79
(dp91
g12
F0.75
sg5
F0.6666666666666666
sg6
F0.8333333333333333
sg7
F0.75
sg8
F0.75
sg32
F1.0
sg26
F0.75
sg24
F0.75
sg49
F0.75
sg75
F0.8333333333333333
sg62
F1.0
sg16
F1.0
sg30
F0.75
sg63
F0.75
sg20
F0.75
sg64
F0.75
ssS'35F52CG565'
p92
(dp93
sg7
(dp94
g59
F0.8
sg1
F1.0
sg5
F0.730769230769231
sg6
F0.8285714285714285
sg24
F0.6785714285714286
sg25
F1.0
sg9
F0.8125
sg47
F0.65
sg4
F0.6249999999999999
sg27
F0.75
sg19
F0.6938775510204083
sg28
F0.8125
sg12
F0.6428571428571428
sg60
F1.0
sg26
F0.8400000000000001
sg29
F0.8888888888888888
sg8
F0.9
sg78
F0.8333333333333334
sS'EV28POlwE4'
p95
F1.0
sg51
F0.6875
sg75
F0.75
sg10
F0.6629629629629631
sg18
F1.0
sg30
F0.8333333333333334
sg31
F1.0
sS'nxe3l4KD0z'
p96
F1.0
sg79
F0.75
sg13
F0.8095238095238094
sg32
F0.8
sg80
F1.0
sg14
F0.875
sg49
F0.826530612244898
sg16
F1.0
sg17
F0.7307692307692308
sg50
F0.8125
sg21
F1.0
sg22
F0.8541666666666666
sg15
F0.6666666666666666
sg77
F0.9
sS'z1iLCTB32T'
p97
F0.875
sg3
F0.7777777777777777
sg20
F1.0
sg11
F0.7435897435897435
sS'4pzSijxuK6'
p98
F0.8800000000000001
sg35
F1.0
sg33
F0.9
sg34
F0.8666666666666666
ssS'zb6H17h1Dc'
p99
(dp100
sS'XkcoMK8tfF'
p101
(dp102
sS'46z59pQP58'
p103
(dp104
S'66Ak255E3j'
p105
F1.0
sg4
F1.0
sg97
F1.0
sg22
F1.0
ssS'z9svx3mA4s'
p106
(dp107
sS'8d194g9ccT'
p108
(dp109
g5
F1.0
sS'LP15lX652E'
p110
F0.6666666666666666
ssS'02ZjVTxC34'
p111
(dp112
sS'7y5NJZ7S6u'
p113
(dp114
sg14
(dp115
g1
F1.0
sg5
F0.9
sg25
F1.0
sg26
F1.0
sg47
F1.0
sg12
F0.7777777777777777
sg19
F0.6666666666666666
sg78
F0.8333333333333334
sg8
F1.0
sg75
F1.0
sg10
F1.0
sg30
F1.0
sg31
F1.0
sg20
F1.0
sg4
F1.0
sg13
F0.8666666666666667
sg7
F1.0
sg32
F1.0
sg80
F1.0
sg49
F1.0
sg16
F1.0
sg17
F0.8888888888888888
sg50
F1.0
sg22
F1.0
sg15
F0.6666666666666666
sg11
F0.8285714285714286
sg33
F1.0
ssS'562xzTNuI6'
p116
(dp117
sS'PhzyUqi1yE'
p118
(dp119
sS'075kbY53c1'
p120
(dp121
sS'pXs7s2k8Jv'
p122
(dp123
sS'7RB2G4NbCn'
p124
(dp125
sg78
(dp126
g59
F1.0
sg12
F0.75
sg5
F1.0
sg6
F0.8571428571428572
sg25
F1.0
sg27
F0.75
sg11
F0.6666666666666666
sg8
F1.0
sg75
F1.0
sg10
F1.0
sg18
F1.0
sg30
F1.0
sg13
F0.875
sg7
F1.0
sg32
F0.8888888888888888
sg14
F0.8888888888888888
sg17
F0.8888888888888888
sg50
F1.0
sg33
F0.6666666666666666
sg15
F0.6666666666666666
sg3
F1.0
sg49
F0.8333333333333333
sg19
F0.9166666666666666
ssS'UmsZ3gHcg7'
p127
(dp128
sS'668lBbaKFE'
p129
(dp130
g5
F0.8928571428571429
sg110
F1.0
ssS'6c2Im3PZdL'
p131
(dp132
sg97
(dp133
g7
F1.0
sg8
F1.0
sg103
F1.0
sg95
F1.0
sg98
F1.0
sS'PE6x6PxZ42'
p134
F0.7
ssS'7YX78oEdjZ'
p135
(dp136
g65
F1.0
sg62
F0.75
ssS'1Nf2932GeH'
p137
(dp138
sS'2J2SH6Fk63'
p139
(dp140
sg134
(dp141
g4
F1.0
sg5
F0.8541666666666666
sS'tB4vqSxzqo'
p142
F0.75
sS'Qwq8d0du28'
p143
F1.0
sg97
F1.0
sg13
F0.7777777777777778
sg39
F1.0
sg17
F1.0
sS'78t79xOebG'
p144
F0.8
ssg144
(dp145
S'0w3IAZa8rQ'
p146
F1.0
sg4
F1.0
sg134
F0.8125
sg142
F0.8
sg22
F1.0
ssS'Uv4cSe2ijd'
p147
(dp148
g5
F1.0
ssS'nybp7zY98z'
p149
(dp150
g5
F1.0
ssg12
(dp151
g59
F1.0
sg1
F1.0
sg77
F0.6
sg6
F1.0
sg24
F1.0
sg25
F1.0
sg26
F1.0
sg4
F1.0
sg27
F1.0
sg5
F1.0
sg28
F1.0
sg29
F0.8333333333333334
sg8
F1.0
sg78
F1.0
sg51
F1.0
sg75
F1.0
sg10
F1.0
sg18
F1.0
sg30
F1.0
sg33
F1.0
sg20
F1.0
sg79
F1.0
sg13
F1.0
sg7
F1.0
sg32
F1.0
sg80
F1.0
sg14
F1.0
sg49
F1.0
sg16
F1.0
sg17
F1.0
sS'MPqJdqnPtc'
p152
F1.0
sS'589M2uPIY4'
p153
F1.0
sg22
F1.0
sg11
F1.0
sg19
F1.0
sg34
F1.0
ssg77
(dp154
g12
F1.0
sg5
F1.0
sg6
F0.6666666666666666
sg7
F1.0
sg8
F0.7777777777777778
sg32
F1.0
sg49
F1.0
sg51
F1.0
sg75
F1.0
sg19
F0.7777777777777777
sg30
F1.0
sg29
F0.7777777777777777
ssS'bt0ZuHaCGY'
p155
(dp156
sg143
(dp157
S'Ru21xRreim'
p158
F0.7777777777777778
sg13
F0.8222222222222222
sg134
F0.7857142857142857
sg24
F0.8
ssS'5VZLSGPT10'
p159
(dp160
sS'zStzz3DlD1'
p161
(dp162
sS'2AMmebFl86'
p163
(dp164
sS'66l1WHbu0M'
p165
(dp166
sS'FrPh305pw8'
p167
(dp168
sS'QS4cvQ8w0o'
p169
(dp170
sS'7esK30uHH1'
p171
(dp172
sg60
(dp173
g5
F1.0
sg6
F1.0
sg24
F1.0
sg25
F1.0
sg27
F1.0
sg11
F1.0
sg28
F1.0
sg29
F1.0
sg8
F1.0
sg30
F0.7333333333333334
sg31
F1.0
sg96
F1.0
sg4
F1.0
sg13
F1.0
sg7
F0.7777777777777778
sg17
F1.0
sg50
F0.75
sg21
F1.0
sg34
F1.0
sg15
F1.0
sg22
F1.0
sg35
F1.0
ssS'EpDb06UO89'
p174
(dp175
sS'CZDz8OSRfI'
p176
(dp177
sg8
(dp178
g59
F1.0
sg1
F1.0
sg5
F0.9272727272727272
sg6
F0.9
sg24
F1.0
sg25
F1.0
sg9
F1.0
sg47
F1.0
sg12
F0.8125
sg27
F0.8333333333333334
sg19
F0.8333333333333334
sg28
F1.0
sg60
F1.0
sg29
F0.9047619047619048
sg78
F1.0
sg95
F1.0
sg51
F1.0
sg75
F0.8333333333333334
sg10
F0.7777777777777778
sg18
F1.0
sg30
F0.9
sg31
F1.0
sg26
F1.0
sg79
F1.0
sg13
F0.888888888888889
sg7
F1.0
sg32
F1.0
sg80
F1.0
sg14
F1.0
sg49
F1.0
sg16
F1.0
sg17
F0.9444444444444445
sg50
F1.0
sg21
F1.0
sg22
F1.0
sg15
F0.7222222222222222
sg77
F1.0
sg97
F1.0
sg3
F1.0
sg20
F1.0
sg11
F0.875
sg98
F1.0
sg35
F1.0
sg33
F0.8333333333333334
sg34
F1.0
ssS'yf2V5ll9mN'
p179
(dp180
sg29
(dp181
g59
F1.0
sg12
F1.0
sg77
F0.7777777777777777
sg6
F0.8484848484848485
sg24
F1.0
sg25
F0.875
sg9
F1.0
sg47
F1.0
sg27
F0.8400000000000001
sg5
F0.8828125
sg28
F0.8333333333333334
sg60
F0.75
sg26
F1.0
sg8
F1.0
sg51
F1.0
sg75
F1.0
sg18
F1.0
sg30
F0.8666666666666667
sg31
F0.75
sg96
F1.0
sg13
F0.8701298701298701
sg7
F1.0
sg32
F0.7777777777777777
sg80
F1.0
sg49
F1.0
sg16
F1.0
sg17
F0.7916666666666666
sg50
F0.875
sg21
F1.0
sg22
F0.8285714285714285
sg15
F1.0
sg11
F1.0
sg20
F0.75
sg19
F1.0
sg35
F1.0
sg33
F1.0
sg34
F0.7777777777777777
ssS'IQQo3367x0'
p182
(dp183
sS'6O31vedZbI'
p184
(dp185
sS'45TTYcotWk'
p186
(dp187
sS'2kb387yOiG'
p188
(dp189
g5
F1.0
sg17
F1.0
ssS'Vu26QoCms4'
p190
(dp191
g105
F1.0
sg22
F1.0
ssS'j09c45Q1NN'
p192
(dp193
sS'N6wWxh9CL4'
p194
(dp195
sg30
(dp196
g59
F1.0
sg12
F0.875
sg5
F0.9047619047619048
sg6
F0.8888888888888888
sg24
F1.0
sg25
F1.0
sg9
F1.0
sg4
F1.0
sg27
F0.8611111111111112
sg11
F0.75
sg28
F1.0
sg60
F1.0
sg29
F0.8333333333333334
sg39
F0.7777777777777777
sg8
F1.0
sg78
F1.0
sg51
F1.0
sg75
F0.875
sg18
F1.0
sg33
F0.75
sg31
F1.0
sg26
F1.0
sg79
F1.0
sg13
F0.875
sg7
F1.0
sg32
F1.0
sg80
F1.0
sg14
F1.0
sg49
F1.0
sg16
F1.0
sg17
F1.0
sg152
F1.0
sg153
F0.8125
sg50
F1.0
sg21
F1.0
sg22
F1.0
sg15
F0.625
sg77
F0.7222222222222223
sg3
F1.0
sg20
F1.0
sg19
F0.8400000000000001
sg35
F1.0
sg34
F1.0
ssS'0KS4yy9G96'
p197
(dp198
sg4
(dp199
g1
F1.0
sg5
F1.0
sg6
F1.0
sg24
F0.7222222222222222
sg25
F1.0
sg9
F1.0
sg47
F1.0
sg12
F0.75
sg11
F1.0
sg34
F1.0
sg60
F1.0
sg105
F1.0
sg10
F1.0
sg30
F0.75
sg31
F0.6666666666666666
sg26
F1.0
sg13
F1.0
sg142
F0.75
sg7
F1.0
sg103
F1.0
sg33
F1.0
sg14
F0.75
sg17
F1.0
sg152
F0.8666666666666667
sg153
F0.6666666666666666
sg22
F1.0
sg96
F1.0
sg19
F1.0
sg134
F0.7777777777777778
sg144
F1.0
ssS'X4ZaxfDz3Q'
p200
(dp201
sg32
(dp202
g59
F1.0
sg12
F0.75
sg77
F0.6
sg6
F0.8888888888888888
sg24
F1.0
sg25
F1.0
sg9
F1.0
sg27
F0.7777777777777778
sg5
F0.75
sg28
F1.0
sg29
F0.8000000000000002
sg8
F0.875
sg78
F0.8333333333333334
sg51
F0.7777777777777778
sg75
F0.8333333333333334
sg10
F0.6666666666666666
sg30
F0.9166666666666666
sg31
F1.0
sg26
F0.7777777777777777
sg79
F1.0
sg13
F0.8571428571428571
sg7
F0.890909090909091
sg80
F1.0
sg14
F1.0
sg49
F0.7
sg16
F1.0
sg17
F1.0
sg152
F0.75
sg153
F0.7777777777777777
sg50
F1.0
sg21
F0.8333333333333333
sg22
F0.8333333333333333
sg20
F0.75
sg11
F0.75
sg19
F0.7000000000000001
sg33
F0.8333333333333334
sg34
F1.0
ssS'63r5Aj4EeB'
p203
(dp204
sS'mI0bEZaepz'
p205
(dp206
sS'5yasLi1Avt'
p207
(dp208
sg65
(dp209
g59
F1.0
sS'1kKxS8urAH'
p210
F0.8571428571428571
sg135
F0.75
sg62
F0.85
sg28
F0.6666666666666666
sg66
F1.0
sg64
F1.0
ssS'ftgrG3jT2m'
p211
(dp212
sg50
(dp213
g59
F1.0
sg5
F0.8484848484848485
sg6
F0.6666666666666666
sg25
F0.875
sg26
F1.0
sg47
F1.0
sg27
F0.7777777777777777
sg11
F1.0
sg28
F0.8333333333333334
sg60
F0.7777777777777778
sg29
F0.8125
sg8
F1.0
sg78
F1.0
sg51
F1.0
sg18
F0.8125
sg30
F0.6875
sg31
F0.75
sg20
F0.75
sg13
F0.8125
sg7
F1.0
sg32
F0.75
sg14
F1.0
sg16
F1.0
sg17
F0.78125
sg22
F0.7777777777777777
sg3
F1.0
sg49
F1.0
sg33
F1.0
sg34
F0.75
ssS'3C1dH8H8v3'
p214
(dp215
sg22
(dp216
g59
F1.0
sg1
F1.0
sg5
F1.0
sg6
F1.0
sg24
F1.0
sg25
F1.0
sg26
F1.0
sg47
F1.0
sg12
F1.0
sg27
F1.0
sg19
F1.0
sg28
F1.0
sg60
F1.0
sg29
F1.0
sg8
F1.0
sg51
F1.0
sg105
F1.0
sg10
F1.0
sg18
F1.0
sg190
F1.0
sg30
F1.0
sg31
F1.0
sg96
F1.0
sg4
F1.0
sg13
F1.0
sg142
F1.0
sg7
F1.0
sg32
F1.0
sg103
F1.0
sg14
F1.0
sg49
F1.0
sg16
F1.0
sg17
F1.0
sg50
F1.0
sg21
F1.0
sg34
F1.0
sg15
F1.0
sg20
F1.0
sg11
F1.0
sg35
F1.0
sg144
F1.0
ssg15
(dp217
g59
F1.0
sg1
F1.0
sg5
F1.0
sg6
F1.0
sg7
F1.0
sg8
F1.0
sg78
F1.0
sg25
F1.0
sg10
F1.0
sg11
F1.0
sg27
F1.0
sg14
F1.0
sg13
F1.0
sg17
F1.0
sg60
F1.0
sg30
F1.0
sg29
F1.0
sg22
F1.0
ssS'5x5fHvFFLv'
p218
(dp219
sS'RwM69ocq8e'
p220
(dp221
sS'USdRVl9AOe'
p222
(dp223
sg3
(dp224
g1
F1.0
sg5
F1.0
sg7
F1.0
sg8
F1.0
sg25
F1.0
sg9
F1.0
sg11
F1.0
sg13
F1.0
sg27
F1.0
sg50
F1.0
sg49
F1.0
sg28
F1.0
sg17
F1.0
sg18
F1.0
sg30
F1.0
sg78
F1.0
sg26
F1.0
ssg98
(dp225
g97
F1.0
sg8
F1.0
sg95
F1.0
sg7
F1.0
ssS'46K8Eq75fJ'
p226
(dp227
sS'y4Vg256UzB'
p228
(dp229
sg35
(dp230
g59
F0.75
sg5
F0.6666666666666666
sg6
F0.75
sg7
F0.7777777777777778
sg8
F0.75
sg24
F1.0
sg13
F0.8333333333333333
sg11
F0.75
sg49
F1.0
sg27
F0.6666666666666666
sg19
F0.75
sg28
F0.75
sg60
F0.6666666666666666
sg34
F0.75
sg30
F0.625
sg29
F0.75
sg9
F1.0
sg21
F0.6875
sg22
F0.6666666666666666
ssg16
(dp231
g59
F1.0
sg1
F1.0
sg5
F0.8857142857142858
sg6
F1.0
sg25
F1.0
sg26
F0.875
sg12
F0.8
sg27
F1.0
sg11
F1.0
sg29
F0.7777777777777778
sg8
F0.7777777777777777
sg75
F0.75
sg18
F1.0
sg30
F0.6666666666666666
sg31
F0.7777777777777777
sg20
F0.75
sg79
F0.75
sg13
F1.0
sg7
F0.7777777777777777
sg32
F1.0
sg80
F0.8333333333333333
sg49
F0.75
sg50
F1.0
sg21
F0.8333333333333334
sg22
F0.8333333333333334
sg14
F0.75
sg19
F0.7916666666666666
sg34
F1.0
ssg59
(dp232
g12
F0.8
sg5
F0.875
sg6
F0.9027777777777778
sg24
F1.0
sg25
F1.0
sg26
F1.0
sg27
F0.8571428571428572
sg11
F0.8571428571428572
sg28
F1.0
sg29
F0.875
sg8
F1.0
sg210
F0.8125
sg78
F1.0
sg51
F1.0
sg75
F1.0
sg21
F1.0
sg10
F0.75
sg18
F1.0
sg30
F0.875
sg31
F1.0
sg13
F0.8333333333333333
sg7
F1.0
sg32
F1.0
sg62
F1.0
sg49
F1.0
sg16
F1.0
sg17
F1.0
sg50
F1.0
sg64
F1.0
sg22
F1.0
sg15
F0.625
sg65
F0.7777777777777777
sg19
F0.8333333333333334
sg35
F1.0
sg33
F0.75
sg34
F1.0
ssg5
(dp233
g59
F0.8611111111111112
sg149
F0.75
sg1
F0.7777777777777778
sg77
F0.8333333333333334
sg6
F0.7740740740740741
sg24
F0.8214285714285714
sg25
F1.0
sg9
F0.75
sg47
F0.7000000000000001
sg4
F0.8285714285714285
sg27
F0.890625
sg11
F0.7
sg28
F0.8571428571428572
sg147
F1.0
sg12
F0.7
sg60
F1.0
sg26
F0.8611111111111112
sg29
F0.8409090909090909
sg39
F0.888888888888889
sg8
F0.8111888111888113
sg78
F1.0
sg51
F0.8571428571428571
sg75
F0.8333333333333334
sg188
F0.8333333333333333
sg10
F0.75
sg18
F1.0
sg30
F0.9285714285714286
sg31
F1.0
sg96
F1.0
sg79
F0.7777777777777777
sg13
F0.8283333333333334
sg7
F0.8393939393939394
sg32
F0.8611111111111112
sg108
F0.85
sg80
F1.0
sg14
F0.8571428571428571
sg49
F1.0
sg16
F0.76
sg17
F0.7371794871794872
sg50
F1.0
sg21
F1.0
sg22
F0.8730158730158729
sg15
F0.6071428571428571
sg129
F0.8775510204081634
sg33
F0.9
sg3
F1.0
sg20
F1.0
sg19
F0.7142857142857143
sg110
F0.8
sg35
F1.0
sg134
F0.6458333333333334
sg34
F0.8611111111111112
ssg6
(dp234
g59
F0.75
sg1
F0.5333333333333333
sg5
F0.8888888888888888
sg24
F0.75
sg25
F1.0
sg9
F0.7777777777777777
sg47
F0.75
sg4
F0.625
sg27
F0.9027777777777778
sg19
F0.7857142857142857
sg28
F0.8333333333333333
sg12
F0.8333333333333333
sg60
F1.0
sg26
F0.75
sg29
F1.0
sg8
F0.8400000000000001
sg78
F1.0
sg51
F0.75
sg75
F1.0
sg10
F0.8333333333333334
sg18
F1.0
sg30
F1.0
sg31
F0.9
sg96
F1.0
sg79
F0.75
sg13
F0.8148148148148148
sg7
F0.783882783882784
sg32
F0.8125
sg49
F1.0
sg16
F0.6875
sg17
F0.825
sg50
F1.0
sg21
F1.0
sg22
F1.0
sg15
F0.7333333333333334
sg77
F1.0
sg20
F1.0
sg11
F0.7708333333333334
sg35
F1.0
sg33
F0.7916666666666666
sg34
F0.8571428571428571
ssS'tyU2s0MBzm'
p235
(dp236
g24
F1.0
ssg24
(dp237
g59
F0.7777777777777778
sg12
F1.0
sg5
F0.825
sg6
F0.8333333333333333
sg235
F1.0
sg143
F1.0
sg25
F1.0
sg9
F1.0
sg4
F1.0
sg27
F0.7777777777777777
sg11
F0.7333333333333334
sg28
F0.8125
sg60
F0.6666666666666666
sg29
F0.6666666666666666
sg8
F0.75
sg51
F1.0
sg75
F1.0
sg18
F1.0
sg30
F0.8666666666666667
sg31
F0.75
sg26
F1.0
sg79
F1.0
sg13
F0.7999999999999999
sg7
F1.0
sg32
F1.0
sg49
F1.0
sg17
F1.0
sg21
F0.75
sg22
F0.6666666666666666
sg19
F1.0
sg35
F1.0
sg33
F1.0
sg34
F1.0
ssS'81E41tTtV9'
p238
(dp239
sg25
(dp240
g59
F0.8888888888888888
sg12
F0.6499999999999999
sg5
F0.8269230769230769
sg36
F0.8125
sg24
F0.625
sg9
F1.0
sg27
F0.6944444444444445
sg11
F0.7916666666666666
sg28
F0.8
sg60
F0.75
sg6
F0.7818181818181819
sg26
F1.0
sg29
F0.8571428571428572
sg40
F0.8125
sg8
F0.875
sg78
F0.8333333333333334
sg38
F0.75
sg61
F0.7777777777777777
sg51
F0.75
sg75
F1.0
sg10
F1.0
sg18
F1.0
sg30
F0.875
sg31
F0.75
sg96
F1.0
sg4
F1.0
sg13
F0.7962962962962963
sg7
F1.0
sg32
F1.0
sg14
F1.0
sg49
F0.75
sg16
F1.0
sg17
F0.7555555555555555
sg50
F0.84375
sg22
F0.8
sg15
F0.6666666666666666
sg3
F0.7777777777777777
sg19
F0.6666666666666666
sg33
F0.8333333333333334
sg34
F0.875
ssg26
(dp241
g59
F1.0
sg12
F0.6666666666666666
sg5
F1.0
sg6
F1.0
sg24
F0.6666666666666666
sg25
F1.0
sg9
F1.0
sg47
F1.0
sg4
F1.0
sg27
F1.0
sg19
F1.0
sg28
F1.0
sg29
F1.0
sg8
F1.0
sg51
F1.0
sg75
F0.75
sg10
F1.0
sg18
F1.0
sg30
F0.7916666666666667
sg31
F0.75
sg20
F0.75
sg79
F0.75
sg13
F1.0
sg7
F1.0
sg32
F1.0
sg80
F0.8333333333333334
sg14
F0.75
sg49
F1.0
sg16
F1.0
sg17
F1.0
sg50
F1.0
sg22
F1.0
sg96
F1.0
sg3
F1.0
sg11
F1.0
sg34
F1.0
ssS'jR1rpwLHNu'
p242
(dp243
sS'rPj8YeG1I5'
p244
(dp245
sg27
(dp246
g59
F1.0
sg12
F1.0
sg5
F1.0
sg6
F1.0
sg24
F1.0
sg25
F1.0
sg9
F1.0
sg11
F1.0
sg28
F1.0
sg60
F1.0
sg26
F1.0
sg29
F1.0
sg8
F1.0
sg78
F1.0
sg51
F1.0
sg75
F1.0
sg18
F1.0
sg30
F1.0
sg31
F1.0
sg96
F1.0
sg13
F1.0
sg7
F1.0
sg32
F1.0
sg49
F1.0
sg16
F1.0
sg17
F1.0
sg50
F1.0
sg21
F1.0
sg22
F1.0
sg15
F1.0
sg3
F1.0
sg19
F1.0
sg35
F1.0
sg33
F1.0
sg34
F1.0
ssg152
(dp247
g51
F0.75
sg4
F0.7333333333333334
sg30
F1.0
sg12
F1.0
sg32
F0.75
ssS'80nlN05JQ6'
p248
(dp249
sg62
(dp250
g59
F0.8888888888888888
sg79
F1.0
sg210
F0.75
sg65
F0.8
sg135
F1.0
sg28
F0.75
sg63
F1.0
sg64
F1.0
ssS'ey9rvMnU57'
p251
(dp252
sS'oEt3YTvS4G'
p253
(dp254
sS'5LMy832c47'
p255
(dp256
sS'dTIQk6Xt3r'
p257
(dp258
sS'BpYaFX7hkQ'
p259
(dp260
sS'Rl6LafSUXj'
p261
(dp262
sS'On0ILT6rt5'
p263
(dp264
sS'pgHmAyjLe1'
p265
(dp266
sg21
(dp267
g59
F1.0
sg1
F0.625
sg5
F1.0
sg6
F1.0
sg38
F0.7777777777777778
sg9
F0.75
sg27
F1.0
sg11
F0.7
sg28
F1.0
sg60
F1.0
sg29
F0.8333333333333334
sg40
F1.0
sg8
F0.8
sg24
F1.0
sg51
F1.0
sg18
F1.0
sg30
F1.0
sg31
F1.0
sg20
F0.9166666666666666
sg13
F1.0
sg7
F0.8571428571428571
sg32
F0.75
sg49
F0.8
sg16
F0.7777777777777777
sg17
F1.0
sg22
F1.0
sg19
F1.0
sg35
F0.8125
sg33
F0.75
sg34
F1.0
ssS'hwF4tyWU50'
p268
(dp269
sS'fTCaypQv7J'
p270
(dp271
sS'Si4v9635O3'
p272
(dp273
sg105
(dp274
g103
F1.0
sg190
F1.0
sg4
F1.0
sg142
F1.0
sg22
F1.0
ssS'Qb2LYvN3zF'
p275
(dp276
sg34
(dp277
g59
F1.0
sg12
F0.75
sg5
F0.8888888888888888
sg6
F0.85
sg24
F1.0
sg25
F1.0
sg9
F1.0
sg27
F0.8400000000000001
sg11
F0.7333333333333334
sg28
F1.0
sg60
F1.0
sg29
F0.8333333333333334
sg8
F1.0
sg10
F0.7777777777777777
sg18
F1.0
sg30
F1.0
sg31
F1.0
sg26
F1.0
sg4
F1.0
sg13
F0.8833333333333333
sg7
F1.0
sg32
F1.0
sg16
F1.0
sg17
F0.9166666666666666
sg50
F1.0
sg21
F1.0
sg22
F1.0
sg20
F1.0
sg19
F0.8400000000000001
sg35
F1.0
sg33
F1.0
ssS'f4fNYL73Z2'
p278
(dp279
sS'K8b2FfNFdp'
p280
(dp281
sS'vkQ059OE0u'
p282
(dp283
sg142
(dp284
g4
F1.0
sg134
F1.0
sg105
F1.0
sg144
F0.8
sg22
F0.6666666666666666
ssS't4K5z0e2NZ'
p285
(dp286
sS'OW11c44gy1'
p287
(dp288
sS'YH4M65c5kP'
p289
(dp290
sS'w5famqnV15'
p291
(dp292
sS'xp1bjD93G3'
p293
(dp294
sS'JrJt3mY6Ls'
p295
(dp296
sg17
(dp297
g59
F1.0
sg1
F1.0
sg5
F0.9166666666666666
sg6
F0.9
sg24
F1.0
sg25
F1.0
sg26
F1.0
sg47
F1.0
sg12
F0.8125
sg27
F0.7777777777777778
sg11
F0.8285714285714286
sg28
F1.0
sg60
F1.0
sg29
F0.875
sg39
F0.8125
sg8
F1.0
sg78
F1.0
sg51
F1.0
sg75
F1.0
sg188
F1.0
sg10
F0.8333333333333333
sg18
F1.0
sg30
F1.0
sg31
F1.0
sg20
F1.0
sg4
F1.0
sg13
F0.8833333333333333
sg7
F1.0
sg32
F1.0
sg14
F1.0
sg49
F1.0
sg33
F0.8333333333333334
sg50
F1.0
sg21
F1.0
sg22
F1.0
sg15
F0.6666666666666666
sg3
F1.0
sg19
F0.8400000000000001
sg134
F0.875
sg34
F1.0
ssS'u08WLS2awz'
p298
(dp299
sg153
(dp300
g4
F0.75
sg30
F1.0
sg12
F1.0
sg32
F1.0
ssS'V2p98HHF6o'
p301
(dp302
sS'229ciAoz51'
p303
(dp304
sg64
(dp305
g59
F1.0
sg79
F1.0
sg210
F1.0
sg65
F1.0
sg62
F0.8333333333333334
sg28
F0.7777777777777777
sg66
F1.0
sg63
F1.0
ssS'N1K15JE4tN'
p306
(dp307
sS'W0f661D7Zp'
p308
(dp309
sS'l8kuAhlIWI'
p310
(dp311
sS'zfYl0YECr0'
p312
(dp313
sg20
(dp314
g1
F1.0
sg5
F1.0
sg6
F1.0
sg26
F1.0
sg12
F1.0
sg11
F0.75
sg29
F1.0
sg8
F1.0
sg10
F1.0
sg30
F1.0
sg31
F1.0
sg79
F1.0
sg13
F1.0
sg7
F1.0
sg32
F0.7777777777777777
sg49
F0.85
sg16
F0.7777777777777777
sg17
F1.0
sg50
F1.0
sg21
F1.0
sg22
F1.0
sg14
F0.7777777777777777
sg19
F1.0
sg34
F1.0
ssS'15V4J8fDs3'
p315
(dp316
g158
F1.0
ssg11
(dp317
g59
F1.0
sg1
F1.0
sg5
F1.0
sg6
F1.0
sg24
F1.0
sg25
F1.0
sg9
F1.0
sg47
F1.0
sg12
F1.0
sg27
F1.0
sg19
F1.0
sg28
F1.0
sg60
F1.0
sg26
F1.0
sg29
F1.0
sg8
F1.0
sg78
F1.0
sg51
F1.0
sg10
F1.0
sg18
F1.0
sg30
F1.0
sg31
F1.0
sg96
F1.0
sg4
F1.0
sg13
F1.0
sg7
F1.0
sg32
F1.0
sg49
F1.0
sg16
F1.0
sg17
F1.0
sg50
F1.0
sg21
F1.0
sg22
F1.0
sg15
F1.0
sg3
F1.0
sg20
F1.0
sg14
F1.0
sg35
F1.0
sg33
F1.0
sg34
F1.0
ssS'C8Uu3Cd2YK'
p318
(dp319
sS'PUH9Se529L'
p320
(dp321
sS'c3Ee3W8hyq'
p322
(dp323
sS'84qYt0yA5y'
p324
(dp325
sS'PrH19Z5q87'
p326
(dp327
sg38
(dp328
g36
F1.0
sg25
F1.0
sg61
F1.0
sg28
F1.0
sg40
F1.0
sg21
F0.8333333333333334
ssg158
(dp329
g315
F0.75
sg13
F0.7999999999999999
sg143
F0.75
ssS'CaA0123UJL'
p330
(dp331
sg146
(dp332
g144
F1.0
ssS'tlJn3I40bf'
p333
(dp334
sS'bcoY3s64sj'
p335
(dp336
sS'NnA4UfdJ5k'
p337
(dp338
sg19
(dp339
g59
F1.0
sg1
F1.0
sg77
F1.0
sg6
F1.0
sg24
F1.0
sg25
F1.0
sg9
F1.0
sg47
F1.0
sg12
F1.0
sg27
F1.0
sg5
F1.0
sg28
F1.0
sg29
F1.0
sg8
F1.0
sg78
F0.8333333333333334
sg51
F1.0
sg75
F1.0
sg10
F1.0
sg18
F1.0
sg30
F1.0
sg31
F0.7777777777777777
sg26
F1.0
sg4
F1.0
sg13
F1.0
sg7
F1.0
sg32
F0.8400000000000001
sg80
F1.0
sg14
F0.75
sg49
F0.85
sg16
F0.8125
sg17
F1.0
sg21
F1.0
sg22
F1.0
sg20
F1.0
sg11
F0.8285714285714285
sg35
F1.0
sg33
F0.7916666666666667
sg34
F1.0
ssS'31ApG55XoV'
p340
(dp341
sS'517LN52NOL'
p342
(dp343
sS'gPaagaJ8aq'
p344
(dp345
sS'hqew2E2l61'
p346
(dp347
sg39
(dp348
g5
F0.7803030303030303
sg36
F1.0
sg30
F0.7777777777777778
sg17
F0.78125
sg134
F0.625
ssS'39Uc7ru04l'
p349
(dp350
sS'CEA35ELhs4'
p351
(dp352
sg210
(dp353
g59
F1.0
sg65
F0.761904761904762
sg62
F0.7777777777777777
sg64
F0.75
ssS'DS5ecUMGJi'
p354
(dp355
sg95
(dp356
g98
F0.8125
sg97
F1.0
sg7
F0.9400000000000001
sg8
F0.8125
ssg51
(dp357
g59
F0.7777777777777778
sg12
F0.8888888888888888
sg5
F0.8690476190476191
sg6
F0.75
sg24
F1.0
sg25
F1.0
sg26
F1.0
sg47
F1.0
sg27
F0.75
sg19
F1.0
sg28
F0.75
sg29
F0.875
sg8
F0.8
sg75
F1.0
sg18
F1.0
sg30
F0.875
sg31
F0.6666666666666666
sg13
F0.7999999999999999
sg7
F1.0
sg32
F1.0
sg49
F1.0
sg17
F1.0
sg152
F1.0
sg50
F1.0
sg21
F0.8
sg22
F0.6666666666666666
sg77
F0.7222222222222223
sg11
F0.75
sg33
F1.0
ssS'8FcKH1d6A2'
p358
(dp359
sS'VHCF3iE0a4'
p360
(dp361
sg18
(dp362
g59
F0.7777777777777777
sg1
F1.0
sg5
F0.8333333333333334
sg6
F0.8333333333333333
sg24
F0.6666666666666666
sg25
F1.0
sg26
F1.0
sg47
F1.0
sg12
F0.75
sg27
F0.8125
sg19
F0.8125
sg29
F1.0
sg40
F1.0
sg8
F0.75
sg78
F0.6666666666666666
sg51
F0.75
sg10
F1.0
sg30
F0.7777777777777777
sg33
F1.0
sg13
F1.0
sg7
F1.0
sg49
F0.8125
sg16
F1.0
sg17
F0.8055555555555556
sg50
F0.8125
sg21
F1.0
sg22
F1.0
sg96
F1.0
sg3
F0.75
sg11
F1.0
sg34
F1.0
ssg96
(dp363
g4
F1.0
sg5
F0.7142857142857143
sg6
F0.8333333333333333
sg7
F0.8666666666666667
sg25
F0.7777777777777777
sg26
F0.75
sg13
F0.8333333333333334
sg27
F0.75
sg11
F0.7333333333333334
sg60
F1.0
sg18
F0.8333333333333333
sg29
F0.6666666666666666
sg22
F1.0
ssS'9QD9297moO'
p364
(dp365
sS'Hd9GW3f95j'
p366
(dp367
sS'f45jOmRd4S'
p368
(dp369
sS'wY56ZI2gyL'
p370
(dp371
sg13
(dp372
g59
F1.0
sg1
F1.0
sg5
F0.925
sg6
F0.8968253968253967
sg143
F1.0
sg24
F1.0
sg25
F1.0
sg9
F1.0
sg47
F0.8
sg12
F1.0
sg27
F1.0
sg19
F0.8400000000000001
sg28
F1.0
sg60
F1.0
sg26
F1.0
sg29
F0.8714285714285713
sg8
F0.8571428571428572
sg78
F1.0
sg51
F1.0
sg10
F1.0
sg158
F1.0
sg18
F1.0
sg30
F1.0
sg31
F1.0
sg96
F1.0
sg4
F1.0
sg7
F1.0
sg32
F1.0
sg33
F1.0
sg14
F1.0
sg49
F1.0
sg16
F1.0
sg17
F1.0
sg50
F1.0
sg21
F1.0
sg22
F1.0
sg15
F1.0
sg3
F1.0
sg20
F1.0
sg11
F1.0
sg35
F1.0
sg134
F0.7333333333333334
sg34
F1.0
ssS'12M70dm49w'
p373
(dp374
sS'56dTCKdr74'
p375
(dp376
sS'11fnXrq9Jf'
p377
(dp378
sg80
(dp379
g12
F0.75
sg5
F1.0
sg7
F1.0
sg8
F1.0
sg32
F1.0
sg26
F1.0
sg75
F0.8333333333333334
sg14
F1.0
sg19
F0.75
sg16
F1.0
sg30
F1.0
sg29
F0.875
ssS'yB480DNZ70'
p380
(dp381
sg49
(dp382
g59
F0.7777777777777777
sg12
F1.0
sg77
F1.0
sg6
F0.8333333333333334
sg24
F1.0
sg25
F1.0
sg26
F1.0
sg47
F0.75
sg27
F0.7777777777777778
sg5
F0.7983193277310924
sg28
F0.75
sg29
F0.72
sg8
F0.7678571428571429
sg78
F1.0
sg51
F1.0
sg75
F1.0
sg10
F0.6666666666666666
sg18
F1.0
sg30
F0.8095238095238094
sg31
F0.64
sg20
F0.8
sg79
F1.0
sg13
F0.6666666666666667
sg7
F0.8186813186813187
sg32
F1.0
sg14
F0.8333333333333333
sg16
F1.0
sg17
F1.0
sg50
F1.0
sg21
F0.7333333333333333
sg22
F0.5833333333333334
sg11
F0.7142857142857143
sg3
F0.75
sg19
F1.0
sg35
F1.0
sg33
F1.0
ssS'6pfp3D515O'
p383
(dp384
sg63
(dp385
g62
F1.0
sg79
F1.0
sg66
F1.0
sg28
F1.0
sg64
F1.0
ssg33
(dp386
g59
F0.75
sg12
F0.75
sg5
F0.8333333333333333
sg6
F0.75
sg24
F0.7333333333333334
sg25
F0.8333333333333334
sg9
F1.0
sg27
F0.6666666666666666
sg11
F0.8
sg28
F0.7777777777777777
sg29
F0.8333333333333334
sg8
F0.75
sg78
F0.611111111111111
sg51
F0.75
sg75
F0.8333333333333333
sg18
F1.0
sg30
F0.75
sg4
F1.0
sg13
F0.8666666666666667
sg7
F0.8666666666666668
sg32
F0.7777777777777778
sg14
F1.0
sg17
F0.7777777777777778
sg50
F0.75
sg21
F1.0
sg34
F1.0
sg49
F0.75
sg19
F0.65
ssS't0fI2c7EMH'
p387
(dp388
sS'yA79w15tnU'
p389
(dp390
sS'h9Tx9ulI5Q'
p391
(dp392
sS'h4N48ldyLn'
p393
(dp394
sS'0ccXSz8Bk8'
p395
(dp396
sS'Wi92e1D7bp'
p397
(dp398
sS'vzYx9SZ29x'
p399
(dp400
sS'6GOYcFMPF2'
p401
(dp402
sg110
(dp403
g129
F0.8125
sg5
F0.875
sg108
F0.75
ssg66
(dp404
g63
F1.0
sg28
F1.0
sg64
F1.0
sg65
F1.0
ssS'merKN5i5Of'
p405
(dp406
s.