(dp0
S'XJyS25Yg27'
p1
(dp2
S'X5eS5kvC8h'
p3
F1.0
sS'ajPRq0Q08b'
p4
F1.0
sS'XL0eQIoG72'
p5
F1.0
sS'i8f2gg51r5'
p6
F1.0
sS'y5009rpZ12'
p7
F1.0
sS's19Mo891H5'
p8
F1.0
sS'm64Rgy40OF'
p9
F1.0
sS'Gwk4z777oU'
p10
F1.0
sS'dvG32rxRzQ'
p11
F1.0
sS'saNy7ix5ZY'
p12
F1.0
sS'34f4oB5Cod'
p13
F1.0
sS'EfN583275t'
p14
F1.0
sS'0jSb6S70X1'
p15
F1.0
sS'5a5qA8VLfI'
p16
F1.0
sS'HujcxU5LVb'
p17
F1.0
sS'0U9x5pNv8t'
p18
F1.0
sS'h0UbH181l8'
p19
F1.0
sS'ZP886G3Z76'
p20
F1.0
sS'242fhbKRf9'
p21
F1.0
sS'l5eh0S53tB'
p22
F1.0
ssS'68gXsA3M68'
p23
(dp24
S'PE6x6PxZ42'
p25
F1.0
ssS'M7hLaVJGvX'
p26
(dp27
S'c1zVCHxCEz'
p28
F0.8
sS'8gH5u019ZH'
p29
F1.0
sS'77y7iIIXuv'
p30
F1.0
sS'88Uhb8760x'
p31
F0.75
ssS'Fx8d98DRud'
p32
(dp33
sS'dTIQk6Xt3r'
p34
(dp35
sS'6bJ4auIa8L'
p36
(dp37
g3
F1.0
sg4
F1.0
sg5
F1.0
sg22
F1.0
sg7
F1.0
sS'IQ98biy227'
p38
F1.0
sg11
F1.0
sg9
F1.0
sS'qL6HDg57R9'
p39
F1.0
sS'YNGlv7F45C'
p40
F1.0
sg12
F1.0
sg19
F1.0
sg6
F1.0
sg16
F1.0
sS'SoEcLAeJi1'
p41
F1.0
sS'OS2vxzjz6W'
p42
F1.0
sS'1bJbgQ32E3'
p43
F1.0
sS'6Ax4SKe470'
p44
F1.0
sg18
F1.0
ssS'Exz0X2naK1'
p45
(dp46
g4
F0.625
sg5
F0.7777777777777777
sg28
F1.0
sS'3hSu07XfGd'
p47
F0.75
sg11
F0.75
sg30
F0.8333333333333333
sS'Dmq6441349'
p48
F0.6666666666666666
sS'9EAa0nJjb1'
p49
F0.75
sg38
F1.0
sg18
F0.6666666666666666
ssS'Zl09dc50NB'
p50
(dp51
sS'J76B3lyQG9'
p52
(dp53
sS'0GlR30c2Mt'
p54
(dp55
sg30
(dp56
S'apCLF0uF21'
p57
F1.0
sg10
F1.0
sg4
F1.0
sg26
F1.0
sS'02i5jCrfQK'
p58
F1.0
sg28
F1.0
sg8
F1.0
sg45
F1.0
sg47
F1.0
sg19
F1.0
sg48
F1.0
sg5
F1.0
sg38
F1.0
sg44
F1.0
sg31
F1.0
sg7
F1.0
sg29
F1.0
sS'2IaH8665Ha'
p59
F1.0
sg42
F1.0
sg21
F1.0
sS'6jCygPdswz'
p60
F1.0
sg43
F1.0
sg41
F1.0
sg11
F1.0
sg22
F1.0
sS'LnVZmUuwc8'
p61
F1.0
sS'U9iFacSl34'
p62
F1.0
sg39
F1.0
sg6
F1.0
sS'EWHJMBPf94'
p63
F1.0
sg40
F1.0
sS'mNzo8mGzu9'
p64
F1.0
sg18
F1.0
sS'5ZR29q8c56'
p65
F1.0
sS'HvghFVBS5v'
p66
F1.0
sS'stK4H8Vit6'
p67
F1.0
sS'1CI7f2R98c'
p68
F1.0
sS'odPTXtfS78'
p69
F1.0
sS'4X3016rdOZ'
p70
F1.0
sg49
F1.0
ssS'i5Y9A05Ph8'
p71
(dp72
sS'0nF0z1401O'
p73
(dp74
sS'a43DzeQWut'
p75
(dp76
sg31
(dp77
g26
F1.0
sg29
F1.0
sg28
F0.7916666666666666
sg59
F0.7777777777777777
sg30
F1.0
sg16
F0.8333333333333334
sg21
F1.0
ssS'qvGwtJZv09'
p78
(dp79
sS'2kb387yOiG'
p80
(dp81
sS'y2Z0J1858D'
p82
(dp83
sS'xH487WMLoS'
p84
(dp85
sg59
(dp86
g28
F1.0
sg29
F1.0
sg30
F1.0
sg31
F1.0
ssS'Axp5cwW7T8'
p87
(dp88
g19
F0.75
ssS'9TvPity5px'
p89
(dp90
sS'zBpW3sqPf6'
p91
(dp92
sg21
(dp93
g57
F1.0
sg1
F0.625
sg4
F1.0
sg5
F1.0
sg29
F0.7777777777777778
sg8
F0.75
sg47
F1.0
sg19
F1.0
sg30
F1.0
sg48
F1.0
sg38
F0.8333333333333334
sg31
F1.0
sg7
F0.8
sg58
F1.0
sg42
F1.0
sg16
F1.0
sg60
F1.0
sg43
F1.0
sg20
F0.9166666666666666
sg11
F1.0
sg22
F0.8571428571428571
sg61
F0.75
sg39
F0.8
sg14
F0.7777777777777777
sg6
F1.0
sg18
F1.0
sS'0w8srd7i18'
p94
F1.0
sg68
F0.8125
sg70
F0.75
sg49
F1.0
ssg9
(dp95
g57
F1.0
sg1
F0.875
sg4
F0.7363636363636363
sg5
F0.6666666666666666
sg28
F1.0
sg41
F0.7777777777777777
sg36
F1.0
sg10
F0.75
sg19
F0.6666666666666666
sg44
F0.8333333333333334
sg7
F0.8888888888888888
sg16
F0.75
sg49
F0.8333333333333334
sg43
F1.0
sg20
F0.75
sg3
F1.0
sg11
F0.71875
sg22
F0.7878787878787877
sg61
F1.0
sg39
F0.75
sg6
F0.75
sg18
F0.7777777777777778
sg13
F0.6666666666666666
sg12
F1.0
ssg28
(dp96
g57
F0.8888888888888888
sg10
F0.6499999999999999
sg4
F0.8269230769230769
sg26
F0.8125
sg58
F0.625
sg8
F1.0
sg45
F1.0
sg47
F0.6944444444444445
sg19
F0.6666666666666666
sg30
F0.8
sg48
F0.75
sg5
F0.7818181818181819
sg38
F0.8571428571428572
sg44
F0.8333333333333334
sg31
F0.8125
sg7
F0.875
sg29
F0.75
sg59
F0.7777777777777777
sg42
F0.75
sS'verm1Wp12u'
p97
F1.0
sg9
F1.0
sg16
F1.0
sg60
F0.875
sg43
F0.75
sg41
F1.0
sg3
F1.0
sg11
F0.7962962962962963
sg22
F1.0
sg61
F1.0
sS'dD0vTK3gXD'
p98
F1.0
sS'B7l5Zfxxu6'
p99
F1.0
sg39
F0.75
sg14
F1.0
sg6
F0.7555555555555555
sg40
F0.84375
sg18
F0.8
sg13
F0.6666666666666666
sg65
F0.8888888888888888
sg12
F1.0
sg70
F0.8333333333333334
sg49
F0.875
ssS'wwSQeRjs22'
p100
(dp101
g4
F0.875
sg60
F0.75
sg49
F0.75
sg47
F0.75
ssS'DykSLZf35a'
p102
(dp103
sS'auW9kr3fh6'
p104
(dp105
sg43
(dp106
g57
F0.75
sg4
F0.8012820512820512
sg5
F1.0
sg58
F0.8333333333333334
sg28
F1.0
sg8
F0.8333333333333334
sg36
F0.75
sg47
F1.0
sg19
F1.0
sg30
F1.0
sg48
F1.0
sg38
F1.0
sg44
F1.0
sg7
F1.0
sg42
F0.6666666666666666
sg9
F0.8333333333333333
sg60
F0.8541666666666666
sg41
F0.7777777777777777
sg3
F0.75
sg11
F0.875
sg22
F0.75
sg61
F0.7777777777777777
sS'C0qLCIhI0O'
p107
F0.75
sg39
F0.8666666666666666
sg14
F0.7777777777777777
sg6
F0.75
sg40
F1.0
sg21
F1.0
sg18
F1.0
sg20
F1.0
sg12
F0.75
sg15
F1.0
sg49
F0.7777777777777777
ssS'E38It7fjg0'
p108
(dp109
sS'XqBaV46VbC'
p110
(dp111
sS'6W08a98ZQV'
p112
(dp113
g10
F0.75
sg4
F0.6666666666666666
sg5
F0.8333333333333333
sg22
F0.75
sg7
F0.75
sg61
F1.0
sg41
F0.75
sg58
F0.75
sg39
F0.75
sg97
F0.8333333333333333
sg67
F1.0
sg14
F1.0
sg60
F0.75
sg63
F0.75
sg20
F0.75
sg64
F0.75
ssg22
(dp114
g57
F0.8
sg10
F0.6428571428571428
sg4
F0.730769230769231
sg5
F0.8285714285714285
sg58
F0.6785714285714286
sg28
F1.0
sg8
F0.8125
sg36
F0.65
sg3
F0.6249999999999999
sg47
F0.75
sg19
F0.6938775510204083
sg30
F0.8125
sg48
F1.0
sg17
F1.0
sg38
F0.8888888888888888
sg44
F0.82
sg7
F0.9
sS'EV28POlwE4'
p115
F1.0
sg42
F0.6875
sg97
F0.75
sS'5AhC6ORULJ'
p116
F1.0
sg9
F0.6629629629629631
sg16
F1.0
sg60
F0.8333333333333334
sg43
F1.0
sg41
F0.8400000000000001
sg112
F0.75
sg11
F0.8095238095238094
sg61
F0.8
sg98
F1.0
sg99
F1.0
sg39
F0.826530612244898
sg14
F1.0
sg6
F0.7307692307692308
sg40
F0.8125
sg21
F1.0
sg18
F0.8541666666666666
sg13
F0.6666666666666666
sS'yuB6nxh3FX'
p117
F0.9
sg94
F1.0
sg65
F1.0
sS'z1iLCTB32T'
p118
F0.875
sg20
F1.0
sg1
F1.0
sg12
F0.875
sS'4pzSijxuK6'
p119
F0.8800000000000001
sg15
F0.75
sg68
F1.0
sg70
F0.9
sg49
F0.8666666666666666
ssS'46z59pQP58'
p120
(dp121
S'66Ak255E3j'
p122
F1.0
sg3
F1.0
sg118
F1.0
sg18
F1.0
ssS'EE579r50K3'
p123
(dp124
sS'z9svx3mA4s'
p125
(dp126
sS'8d194g9ccT'
p127
(dp128
sS'1793z4bHHR'
p129
(dp130
sS'7y5NJZ7S6u'
p131
(dp132
sg12
(dp133
g10
F0.7777777777777777
sg4
F0.9
sg28
F1.0
sg41
F1.0
sg36
F1.0
sg1
F1.0
sg19
F0.6666666666666666
sg44
F1.0
sg7
F1.0
sg97
F1.0
sg9
F1.0
sg60
F1.0
sg43
F1.0
sg20
F1.0
sg3
F1.0
sg11
F0.8666666666666667
sg22
F1.0
sg61
F1.0
sg39
F1.0
sg14
F1.0
sg6
F0.8888888888888888
sg40
F1.0
sg18
F1.0
sg13
F0.6666666666666666
sg15
F1.0
sg70
F1.0
ssS'rA9d62o2bb'
p134
(dp135
sS'6d2wZ1x370'
p136
(dp137
sS'075kbY53c1'
p138
(dp139
sS'pVG9cgOpCR'
p140
(dp141
sS'YgQ57c2glM'
p142
(dp143
sg65
(dp144
g4
F0.7777777777777777
sg5
F0.8333333333333333
sg22
F1.0
sg7
F0.75
sg61
F0.75
sg28
F0.8333333333333334
sg47
F0.75
sg40
F0.75
sg11
F1.0
sg30
F0.6666666666666666
sg6
F0.7777777777777777
sg48
F1.0
sg16
F1.0
sg60
F0.75
sg44
F0.7777777777777777
sg18
F1.0
ssg17
(dp145
g1
F0.75
sg8
F0.75
sg22
F0.6666666666666666
sg7
F0.75
ssS'UmsZ3gHcg7'
p146
(dp147
sS'668lBbaKFE'
p148
(dp149
sS'1to8tgu4IT'
p150
(dp151
sg118
(dp152
g22
F1.0
sg7
F1.0
sg120
F1.0
sg115
F1.0
sS'rE6U5574qn'
p153
F0.75
sg119
F1.0
sg25
F0.7
ssS'emTkxI1340'
p154
(dp155
sS'081u59Iq1D'
p156
(dp157
sS'YWe8V668Uz'
p158
(dp159
sg116
(dp160
g4
F1.0
sg22
F1.0
sg7
F1.0
sg61
F1.0
sg39
F1.0
sg20
F1.0
sg11
F1.0
sg6
F1.0
sg38
F1.0
sg40
F1.0
ssS'SH1cSNDIA8'
p161
(dp162
sS'TAw598sUia'
p163
(dp164
sS'2J2SH6Fk63'
p165
(dp166
sS'78t79xOebG'
p167
(dp168
g3
F1.0
sS'tB4vqSxzqo'
p169
F0.8
sg153
F1.0
sS'0w3IAZa8rQ'
p170
F1.0
sg25
F0.8125
sg18
F1.0
ssg10
(dp171
g57
F1.0
sg1
F1.0
sg4
F1.0
sg5
F1.0
sg58
F1.0
sg28
F1.0
sg41
F1.0
sS'K4IIshw37g'
p172
F1.0
sg3
F1.0
sg47
F1.0
sg19
F1.0
sg30
F1.0
sg38
F0.8333333333333334
sg44
F1.0
sg7
F1.0
sg42
F1.0
sg97
F1.0
sg9
F1.0
sg16
F1.0
sg60
F1.0
sg70
F1.0
sg20
F1.0
sg112
F1.0
sg11
F1.0
sg22
F1.0
sg61
F1.0
sg39
F1.0
sg14
F1.0
sg6
F1.0
sS'MPqJdqnPtc'
p173
F1.0
sS'589M2uPIY4'
p174
F1.0
sg18
F1.0
sg117
F0.6
sg12
F1.0
sg15
F1.0
sg49
F1.0
ssg117
(dp175
g10
F1.0
sg4
F1.0
sg5
F0.6666666666666666
sg22
F1.0
sg7
F0.7777777777777778
sg61
F1.0
sg39
F1.0
sg42
F1.0
sg97
F1.0
sg19
F0.7777777777777777
sg60
F1.0
sg38
F0.7777777777777777
ssS'6e1627evYc'
p176
(dp177
sS'bt0ZuHaCGY'
p178
(dp179
S'45TTYcotWk'
p180
F1.0
sS'5yasLi1Avt'
p181
F1.0
ssS'Qwq8d0du28'
p182
(dp183
S'Ru21xRreim'
p184
F0.7777777777777778
sg11
F0.8222222222222222
sg25
F0.7857142857142857
sg58
F0.8
ssS'zUlk9c7UEv'
p185
(dp186
sS'1k3GIfwBw6'
p187
(dp188
sS'5VZLSGPT10'
p189
(dp190
sS'yDO9pl8GC0'
p191
(dp192
sS'QS4cvQ8w0o'
p193
(dp194
sS'R62GeR4qce'
p195
(dp196
sS'YvD7H8XduF'
p197
(dp198
sg48
(dp199
g45
F1.0
sg4
F1.0
sg5
F1.0
sg58
F1.0
sg28
F1.0
sg47
F1.0
sg30
F1.0
sg38
F1.0
sg44
F1.0
sg7
F1.0
sg60
F0.7333333333333334
sg43
F1.0
sg3
F1.0
sg11
F1.0
sg22
F0.7777777777777778
sg99
F1.0
sg6
F1.0
sg40
F0.75
sg21
F1.0
sg49
F1.0
sg13
F1.0
sg18
F1.0
sg65
F1.0
sg68
F1.0
ssS'16zN4n2fFO'
p200
(dp201
sS'F9WJ1RKM4L'
p202
(dp203
sg44
(dp204
g57
F0.8125
sg10
F0.8
sg4
F0.79004329004329
sg5
F0.7045454545454545
sg58
F0.8333333333333334
sg28
F0.9444444444444443
sg41
F0.7777777777777777
sg36
F0.6666666666666666
sg47
F0.75
sg19
F0.6666666666666666
sg30
F0.8333333333333333
sg48
F0.75
sg38
F0.9333333333333332
sg7
F1.0
sg42
F0.75
sg97
F1.0
sg9
F0.7999999999999999
sg16
F1.0
sg60
F0.8888888888888888
sg43
F1.0
sg3
F0.75
sg11
F0.7333333333333334
sg22
F0.8666666666666666
sg61
F0.75
sg39
F1.0
sg14
F1.0
sg6
F0.6444444444444445
sg40
F1.0
sg18
F0.75
sg13
F0.6666666666666666
sg65
F0.7777777777777778
sg12
F1.0
sg70
F0.75
sg49
F0.7777777777777777
ssS'JU5Ms0pxvu'
p205
(dp206
sS'Un24RpQEWg'
p207
(dp208
sS'9hs21hUG5O'
p209
(dp210
sg7
(dp211
g57
F1.0
sg10
F0.8125
sg4
F0.925
sg5
F0.9
sg58
F1.0
sg28
F1.0
sg8
F1.0
sg36
F1.0
sg1
F1.0
sg47
F0.8333333333333334
sg19
F0.8333333333333334
sg30
F1.0
sg48
F1.0
sg17
F1.0
sg38
F0.9047619047619048
sg44
F1.0
sg115
F1.0
sg42
F1.0
sg97
F0.8333333333333334
sg116
F1.0
sg9
F0.7777777777777778
sg16
F1.0
sg60
F0.9
sg43
F1.0
sg41
F1.0
sg112
F1.0
sg11
F0.888888888888889
sg22
F1.0
sg61
F1.0
sg39
F1.0
sg14
F1.0
sg6
F0.9444444444444445
sg40
F1.0
sg21
F1.0
sg18
F1.0
sg13
F0.7222222222222222
sg117
F1.0
sg65
F1.0
sg118
F1.0
sg20
F1.0
sg12
F1.0
sg119
F1.0
sg15
F1.0
sg68
F1.0
sg70
F0.8333333333333334
sg49
F1.0
ssS'yf2V5ll9mN'
p212
(dp213
sS'0493L6bGa9'
p214
(dp215
sS'6O31vedZbI'
p216
(dp217
sS'D4md1bS6DC'
p218
(dp219
g4
F1.0
ssg180
(dp220
g181
F1.0
sg178
F1.0
ssS'j0D7C5VG29'
p221
(dp222
sS'3v8ytbUoc6'
p223
(dp224
sS'O46hm6g2nf'
p225
(dp226
sS'N6wWxh9CL4'
p227
(dp228
sS'WmIXxzmmD3'
p229
(dp230
sg60
(dp231
g57
F1.0
sg10
F0.875
sg117
F0.7222222222222223
sg5
F0.8888888888888888
sg58
F1.0
sg28
F1.0
sg8
F1.0
sg3
F1.0
sg47
F0.8611111111111112
sg4
F0.9047619047619048
sg30
F1.0
sg48
F1.0
sg38
F0.8333333333333334
sg44
F0.8333333333333334
sg7
F1.0
sg42
F1.0
sg97
F0.875
sg16
F1.0
sg70
F0.75
sg43
F1.0
sg41
F1.0
sg112
F1.0
sg11
F0.875
sg22
F1.0
sg61
F1.0
sg100
F1.0
sg12
F1.0
sg39
F1.0
sg14
F1.0
sg6
F1.0
sg173
F1.0
sg174
F0.8125
sg40
F1.0
sg21
F1.0
sg18
F1.0
sg13
F0.625
sg65
F1.0
sg20
F1.0
sg19
F0.8400000000000001
sg68
F1.0
sg49
F1.0
ssS'8cSO1GK90W'
p232
(dp233
sS'971l4W5kQs'
p234
(dp235
sS'0KS4yy9G96'
p236
(dp237
sS'D08sSQFrq3'
p238
(dp239
sg3
(dp240
g1
F1.0
sg4
F1.0
sg5
F1.0
sg58
F0.7222222222222222
sg28
F1.0
sg8
F1.0
sg36
F1.0
sg10
F0.75
sg19
F1.0
sg49
F1.0
sg48
F1.0
sg44
F1.0
sg122
F1.0
sg9
F1.0
sg60
F0.75
sg43
F0.6666666666666666
sg41
F1.0
sg11
F1.0
sg169
F0.75
sg22
F1.0
sg120
F1.0
sg12
F0.75
sg6
F1.0
sg173
F0.8666666666666667
sg174
F0.6666666666666666
sg18
F1.0
sg25
F0.7777777777777778
sg99
F1.0
sS'Vc0J7iVot4'
p241
F0.75
sg70
F1.0
sg167
F1.0
ssS'Zxu8oS1jJ2'
p242
(dp243
sS'X4ZaxfDz3Q'
p244
(dp245
sg61
(dp246
g57
F1.0
sg10
F0.75
sg117
F0.6
sg5
F0.8888888888888888
sg58
F1.0
sg28
F1.0
sg8
F1.0
sg47
F0.7777777777777778
sg4
F0.75
sg30
F1.0
sg38
F0.8000000000000002
sg44
F0.8333333333333333
sg7
F0.875
sg42
F0.7777777777777778
sg97
F0.8333333333333334
sg116
F0.75
sg9
F0.6666666666666666
sg60
F0.9166666666666666
sg43
F1.0
sg41
F0.7777777777777777
sg112
F1.0
sg11
F0.8571428571428571
sg22
F0.890909090909091
sg107
F1.0
sg12
F1.0
sg39
F0.7
sg14
F1.0
sg6
F1.0
sg173
F0.75
sg174
F0.7777777777777777
sg40
F1.0
sg21
F0.8333333333333333
sg18
F0.8333333333333333
sg65
F1.0
sg20
F0.75
sg19
F0.7000000000000001
sg70
F0.8333333333333334
sg49
F1.0
ssS'9iQ6dU8Ooj'
p247
(dp248
sS's9O034dIc4'
p249
(dp250
sg94
(dp251
g4
F1.0
sg22
F1.0
sg19
F1.0
sg38
F1.0
sg21
F1.0
sg18
F1.0
ssg181
(dp252
g180
F0.8333333333333334
sg178
F0.6666666666666666
ssg66
(dp253
g57
F1.0
sS'1kKxS8urAH'
p254
F0.8571428571428571
sS'8o0mJnIpFH'
p255
F1.0
sg67
F0.85
sg30
F0.6666666666666666
sg69
F1.0
sg64
F1.0
ssg173
(dp256
g3
F0.7333333333333334
sS'txnqGG764s'
p257
F1.0
sg61
F0.75
sg10
F1.0
sg42
F0.75
sg60
F1.0
ssS'LmiEiGqx5x'
p258
(dp259
sS'dN4g3pRdSO'
p260
(dp261
sg62
(dp262
g30
F1.0
sg29
F1.0
ssg40
(dp263
g57
F1.0
sg4
F0.8484848484848485
sg5
F0.6666666666666666
sg28
F0.875
sg41
F1.0
sg36
F1.0
sg47
F0.7777777777777777
sg30
F0.8333333333333334
sg48
F0.7777777777777778
sg38
F0.8125
sg44
F1.0
sg7
F1.0
sg42
F1.0
sg116
F0.75
sg16
F0.8125
sg60
F0.6875
sg43
F0.75
sg20
F0.75
sg11
F0.8125
sg22
F1.0
sg61
F0.75
sg12
F1.0
sg14
F1.0
sg6
F0.78125
sg18
F0.7777777777777777
sg65
F0.7777777777777778
sg39
F1.0
sg70
F1.0
sg49
F0.75
ssS'3C1dH8H8v3'
p264
(dp265
sg18
(dp266
g57
F1.0
sg10
F1.0
sg4
F1.0
sg5
F1.0
sg58
F1.0
sg28
F1.0
sg41
F1.0
sg36
F1.0
sg1
F1.0
sg47
F1.0
sg19
F1.0
sg30
F1.0
sg48
F1.0
sg38
F1.0
sg44
F1.0
sg7
F1.0
sg94
F1.0
sg42
F1.0
sg122
F1.0
sg9
F1.0
sg16
F1.0
sg60
F1.0
sg43
F1.0
sg20
F1.0
sg3
F1.0
sg11
F1.0
sg169
F1.0
sg22
F1.0
sg61
F1.0
sg120
F1.0
sg99
F1.0
sg39
F1.0
sg14
F1.0
sg6
F1.0
sg40
F1.0
sg21
F1.0
sg49
F1.0
sg45
F1.0
sg13
F1.0
sg65
F1.0
sg12
F1.0
sg15
F1.0
sg68
F1.0
sg167
F1.0
ssg13
(dp267
g57
F1.0
sg1
F1.0
sg4
F1.0
sg5
F1.0
sg22
F1.0
sg7
F1.0
sg28
F1.0
sg9
F1.0
sg47
F1.0
sg12
F1.0
sg11
F1.0
sg6
F1.0
sg48
F1.0
sg60
F1.0
sg38
F1.0
sg44
F1.0
sg18
F1.0
ssS'5x5fHvFFLv'
p268
(dp269
sS'USdRVl9AOe'
p270
(dp271
sS'oWh48s12mR'
p272
(dp273
sS'UEArk7W20r'
p274
(dp275
sS'5yM8I4Uut9'
p276
(dp277
sS'Ds3B2dRQo8'
p278
(dp279
sg119
(dp280
g118
F1.0
sg7
F1.0
sg115
F1.0
sg22
F1.0
ssS'R440Y09vu3'
p281
(dp282
sg68
(dp283
g57
F0.75
sg4
F0.6666666666666666
sg5
F0.75
sg22
F0.7777777777777778
sg7
F0.75
sg58
F1.0
sg11
F0.8333333333333333
sg39
F1.0
sg47
F0.6666666666666666
sg19
F0.75
sg30
F0.75
sg48
F0.6666666666666666
sg49
F0.75
sg60
F0.625
sg38
F0.75
sg8
F1.0
sg21
F0.6875
sg18
F0.6666666666666666
ssS'U50h3ZFmGt'
p284
(dp285
sS'st945Ucdi6'
p286
(dp287
S'tyU2s0MBzm'
p288
F1.0
ssg14
(dp289
g57
F1.0
sg1
F1.0
sg4
F0.8857142857142858
sg5
F1.0
sg28
F1.0
sg41
F0.875
sg172
F0.6666666666666666
sg10
F0.8
sg47
F1.0
sS'ljX78ko847'
p290
F1.0
sg19
F0.7916666666666666
sg38
F0.7777777777777778
sg44
F1.0
sg7
F0.7777777777777777
sg97
F0.75
sg16
F1.0
sg60
F0.6666666666666666
sg43
F0.7777777777777777
sg20
F0.75
sg112
F0.75
sg11
F1.0
sg22
F0.7777777777777777
sg61
F1.0
sg39
F0.75
sg40
F1.0
sg21
F0.8333333333333334
sg18
F0.8333333333333334
sg12
F0.75
sg49
F1.0
ssg57
(dp291
g10
F0.8
sg4
F0.875
sg5
F0.9027777777777778
sg58
F1.0
sg255
F1.0
sg41
F1.0
sg47
F0.8571428571428572
sg19
F0.8333333333333334
sg30
F1.0
sg38
F0.875
sg44
F0.875
sg7
F1.0
sg254
F0.8125
sg42
F1.0
sg97
F1.0
sg21
F1.0
sg9
F0.75
sg28
F1.0
sg16
F1.0
sg60
F0.875
sg43
F1.0
sg11
F0.8333333333333333
sg22
F1.0
sg61
F1.0
sg39
F1.0
sg14
F1.0
sg6
F1.0
sg40
F1.0
sg64
F1.0
sg18
F1.0
sg13
F0.625
sg66
F0.7777777777777777
sg67
F1.0
sg68
F1.0
sg70
F0.75
sg49
F1.0
ssS'7o7172ufx2'
p292
(dp293
sg4
(dp294
g57
F0.8611111111111112
sg10
F0.7
sg117
F0.8333333333333334
sg5
F0.7740740740740741
sg58
F0.8214285714285714
sg28
F1.0
sg8
F0.75
sg36
F0.7000000000000001
sg3
F0.8285714285714285
sg47
F0.890625
sg19
F0.7142857142857143
sg30
F0.8571428571428572
sg48
F1.0
sg218
F1.0
sg38
F0.8409090909090909
sg44
F0.8503401360544218
sg7
F0.85
sg94
F1.0
sg42
F0.8571428571428571
sg97
F0.8333333333333334
sg116
F1.0
sg9
F0.75
sg16
F1.0
sg60
F0.9285714285714286
sg43
F0.9166666666666666
sg41
F0.8611111111111112
sg112
F0.7777777777777777
sg11
F0.8283333333333334
sg22
F0.8393939393939394
sg61
F0.8611111111111112
sg98
F1.0
sg100
F1.0
sg99
F1.0
sg39
F1.0
sg14
F0.76
sg6
F0.7645502645502646
sg40
F1.0
sg21
F1.0
sg18
F0.8730158730158729
sg45
F1.0
sg13
F0.6071428571428571
sg65
F1.0
sg20
F1.0
sg1
F0.7777777777777778
sg12
F0.8571428571428571
sg15
F1.0
sg68
F1.0
sg70
F0.9
sg49
F0.8611111111111112
ssg5
(dp295
g57
F0.75
sg10
F0.8333333333333333
sg4
F0.8888888888888888
sg58
F0.75
sg28
F1.0
sg8
F0.7777777777777777
sg36
F0.75
sg3
F0.625
sg47
F0.9027777777777778
sg19
F0.7857142857142857
sg30
F0.8333333333333333
sg48
F1.0
sg38
F1.0
sg44
F1.0
sg7
F0.8400000000000001
sg42
F0.75
sg97
F1.0
sg9
F0.8333333333333334
sg16
F1.0
sg49
F0.8333333333333334
sg60
F1.0
sg43
F0.9
sg41
F0.75
sg112
F0.75
sg11
F0.8148148148148148
sg22
F0.783882783882784
sg61
F0.8125
sg98
F1.0
sg39
F1.0
sg14
F0.6875
sg6
F0.825
sg40
F1.0
sg21
F1.0
sg18
F1.0
sg45
F0.7777777777777778
sg13
F0.7333333333333334
sg117
F1.0
sg65
F1.0
sg20
F1.0
sg1
F0.5333333333333333
sg15
F1.0
sg68
F1.0
sg70
F0.7916666666666666
sS'c3Ee3W8hyq'
p296
F1.0
ssg288
(dp297
g16
F1.0
sg174
F0.7777777777777777
sg19
F0.875
sg286
F1.0
ssg58
(dp298
g57
F0.7777777777777778
sg10
F1.0
sg4
F0.825
sg5
F0.8333333333333333
sg182
F1.0
sg28
F1.0
sg8
F1.0
sg3
F1.0
sg47
F0.7777777777777777
sg19
F1.0
sg30
F0.8125
sg48
F0.6666666666666666
sg38
F0.6666666666666666
sg44
F1.0
sg7
F0.75
sg42
F1.0
sg97
F1.0
sg16
F1.0
sg60
F0.8666666666666667
sg43
F0.75
sg41
F1.0
sg112
F1.0
sg11
F0.7999999999999999
sg22
F1.0
sg61
F1.0
sg39
F1.0
sg6
F1.0
sg21
F0.75
sg18
F0.6666666666666666
sg241
F1.0
sg68
F1.0
sg70
F1.0
sg49
F1.0
ssS'81E41tTtV9'
p299
(dp300
sg255
(dp301
g254
F0.75
sg57
F0.8888888888888888
sg66
F0.75
ssg41
(dp302
g57
F1.0
sg10
F0.6666666666666666
sg4
F1.0
sg5
F1.0
sg58
F0.6666666666666666
sg28
F1.0
sg8
F1.0
sg36
F1.0
sg3
F1.0
sg47
F1.0
sg19
F1.0
sg30
F1.0
sg38
F1.0
sg44
F1.0
sg7
F1.0
sg42
F1.0
sg97
F0.75
sg9
F1.0
sg16
F1.0
sg60
F0.7916666666666667
sg43
F0.75
sg20
F0.75
sg112
F0.75
sg11
F1.0
sg22
F1.0
sg61
F1.0
sg39
F1.0
sg14
F1.0
sg6
F1.0
sg40
F1.0
sg18
F1.0
sg12
F0.75
sg49
F1.0
ssS'Uml72Q91Du'
p303
(dp304
sg172
(dp305
g10
F1.0
sg14
F1.0
sg20
F1.0
ssS'l1L9ZwV1KO'
p306
(dp307
sg47
(dp308
g57
F1.0
sg10
F1.0
sg4
F1.0
sg5
F1.0
sg58
F1.0
sg28
F1.0
sg8
F1.0
sg45
F1.0
sg19
F1.0
sg30
F1.0
sg48
F1.0
sg38
F1.0
sg44
F1.0
sg7
F1.0
sg42
F1.0
sg97
F1.0
sg16
F1.0
sg60
F1.0
sg43
F1.0
sg41
F1.0
sg11
F1.0
sg22
F1.0
sg61
F1.0
sg98
F1.0
sg100
F1.0
sg39
F1.0
sg14
F1.0
sg6
F1.0
sg40
F1.0
sg21
F1.0
sg18
F1.0
sg13
F1.0
sg65
F1.0
sg68
F1.0
sg70
F1.0
sg49
F1.0
ssS'80nlN05JQ6'
p309
(dp310
S'bcoY3s64sj'
p311
F0.75
ssg67
(dp312
g57
F0.8888888888888888
sg112
F1.0
sg254
F0.75
sg66
F0.8
sg30
F0.75
sg63
F1.0
sg64
F1.0
ssS'ey9rvMnU57'
p313
(dp314
sS'oEt3YTvS4G'
p315
(dp316
sS'5LMy832c47'
p317
(dp318
sS'eZRzEYP9oJ'
p319
(dp320
sg38
(dp321
g57
F1.0
sg10
F1.0
sg117
F0.7777777777777777
sg5
F0.8484848484848485
sg58
F1.0
sg28
F0.875
sg8
F1.0
sg36
F1.0
sg45
F1.0
sg47
F0.8400000000000001
sg4
F0.8828125
sg30
F0.8333333333333334
sg48
F0.75
sg44
F0.8333333333333334
sg7
F1.0
sg42
F1.0
sg97
F1.0
sg116
F0.75
sg16
F1.0
sg60
F0.8666666666666667
sg43
F0.75
sg41
F1.0
sg11
F0.8701298701298701
sg22
F1.0
sg61
F0.7777777777777777
sg98
F1.0
sg39
F1.0
sg14
F1.0
sg6
F0.7916666666666666
sg40
F0.875
sg21
F1.0
sg18
F0.8285714285714285
sg13
F1.0
sg20
F0.75
sg19
F1.0
sg94
F1.0
sg68
F1.0
sg70
F1.0
sg49
F0.7777777777777777
ssS'XNEgfvXx50'
p322
(dp323
sg97
(dp324
g57
F1.0
sg10
F0.7777777777777778
sg117
F0.6
sg5
F0.8571428571428572
sg58
F1.0
sg28
F1.0
sg41
F0.75
sg47
F0.75
sg4
F0.8333333333333334
sg38
F0.625
sg44
F1.0
sg7
F0.7777777777777777
sg42
F0.75
sg60
F0.875
sg112
F1.0
sg22
F0.75
sg61
F0.8333333333333334
sg39
F0.75
sg14
F0.75
sg6
F1.0
sg70
F0.75
sg12
F1.0
sg19
F0.6666666666666666
ssS'XGFd357i6u'
p325
(dp326
sS'k4gaj1r2bT'
p327
(dp328
sS'12ws2Vy47j'
p329
(dp330
sS'T4367PFG7C'
p331
(dp332
sS'6ghrwY35fW'
p333
(dp334
sS'hwF4tyWU50'
p335
(dp336
sS'jx1ndu85oq'
p337
(dp338
sS'Si4v9635O3'
p339
(dp340
sg122
(dp341
g120
F1.0
sg3
F1.0
sg169
F1.0
sg18
F1.0
ssS'562xzTNuI6'
p342
(dp343
sS'5rwOvj7Gu3'
p344
(dp345
sg49
(dp346
g57
F1.0
sg10
F0.75
sg4
F0.8888888888888888
sg5
F0.9111111111111111
sg58
F1.0
sg28
F1.0
sg8
F1.0
sg45
F1.0
sg47
F0.8400000000000001
sg19
F0.8400000000000001
sg30
F1.0
sg48
F1.0
sg38
F0.8333333333333334
sg44
F0.7777777777777777
sg7
F1.0
sg9
F0.7777777777777777
sg16
F1.0
sg60
F1.0
sg43
F1.0
sg41
F1.0
sg3
F1.0
sg11
F0.8833333333333333
sg22
F1.0
sg61
F1.0
sg98
F1.0
sg100
F1.0
sg14
F1.0
sg6
F0.9166666666666666
sg40
F1.0
sg21
F1.0
sg18
F1.0
sg20
F1.0
sg68
F1.0
sg70
F1.0
sg296
F0.8125
ssg20
(dp347
g1
F1.0
sg4
F1.0
sg5
F1.0
sg41
F1.0
sg172
F1.0
sg10
F1.0
sg19
F1.0
sg38
F1.0
sg7
F1.0
sg116
F1.0
sg9
F1.0
sg60
F1.0
sg43
F1.0
sg112
F1.0
sg11
F1.0
sg22
F1.0
sg61
F0.7777777777777777
sg107
F0.75
sg39
F0.85
sg14
F0.7777777777777777
sg6
F1.0
sg40
F1.0
sg21
F1.0
sg49
F1.0
sg18
F1.0
sg12
F0.7777777777777777
ssS'K8b2FfNFdp'
p348
(dp349
sg169
(dp350
g3
F1.0
sg25
F1.0
sg122
F1.0
sg167
F0.8
sg18
F0.6666666666666666
ssS't4K5z0e2NZ'
p351
(dp352
S'h9Tx9ulI5Q'
p353
F1.0
ssg257
(dp354
g173
F1.0
ssg98
(dp355
g4
F1.0
sg5
F0.9166666666666667
sg22
F1.0
sg28
F1.0
sg11
F0.875
sg47
F0.75
sg19
F0.75
sg49
F1.0
sg38
F0.8
sg70
F1.0
ssg107
(dp356
g43
F1.0
sg20
F1.0
sg61
F1.0
ssS'b4NIYojEYn'
p357
(dp358
sS'52vEY7f17k'
p359
(dp360
sS'tLgc420s9N'
p361
(dp362
sS'9FFmzviIHD'
p363
(dp364
sg6
(dp365
g57
F1.0
sg1
F1.0
sg4
F0.9259259259259258
sg5
F0.9
sg58
F1.0
sg28
F1.0
sg41
F1.0
sg36
F1.0
sg10
F0.8125
sg47
F0.7777777777777778
sg19
F0.8400000000000001
sg30
F1.0
sg48
F1.0
sg38
F0.875
sg44
F0.8666666666666666
sg7
F1.0
sg42
F1.0
sg97
F1.0
sg116
F1.0
sg9
F0.8333333333333333
sg16
F1.0
sg60
F1.0
sg43
F1.0
sg20
F1.0
sg3
F1.0
sg11
F0.8833333333333333
sg22
F1.0
sg61
F1.0
sg39
F1.0
sg70
F0.8333333333333334
sg40
F1.0
sg21
F1.0
sg18
F1.0
sg13
F0.6666666666666666
sg65
F1.0
sg12
F1.0
sg49
F1.0
ssg174
(dp366
g3
F0.75
sg288
F1.0
sg61
F1.0
sg10
F1.0
sg19
F1.0
sg16
F0.75
sg60
F1.0
ssS'45euP7C062'
p367
(dp368
sS's3u68VfdSa'
p369
(dp370
sg64
(dp371
g57
F1.0
sg112
F1.0
sS'12M70dm49w'
p372
F0.7916666666666666
sg254
F1.0
sg66
F1.0
sg67
F0.8333333333333334
sg30
F0.7777777777777777
sg69
F1.0
sg63
F1.0
ssS'QDsPNlZ5i1'
p373
(dp374
sS'g209g5Vve6'
p375
(dp376
sS'P5t2zh16z0'
p377
(dp378
sS'448d2Kv3hw'
p379
(dp380
sS'Kt1mv62gCP'
p381
(dp382
sS'CZDz8OSRfI'
p383
(dp384
sS'jw3jOU9C8I'
p385
(dp386
sS'i5dD6Xy8jL'
p387
(dp388
sg241
(dp389
g3
F1.0
sg58
F1.0
ssS'0BrbPbwCMz'
p390
(dp391
sS'O4PQ25r2dR'
p392
(dp393
sS'MCA1W52H2T'
p394
(dp395
sg296
(dp396
g5
F0.75
sg49
F0.8125
ssg29
(dp397
g26
F1.0
sg28
F1.0
sg62
F1.0
sg59
F1.0
sg30
F1.0
sg31
F1.0
sg21
F0.8333333333333334
ssg184
(dp398
g11
F0.7999999999999999
sg182
F0.75
ssg8
(dp399
g1
F1.0
sg4
F1.0
sg5
F1.0
sg58
F1.0
sg28
F1.0
sg41
F1.0
sg47
F1.0
sg19
F0.7777777777777778
sg30
F1.0
sg17
F1.0
sg38
F1.0
sg7
F1.0
sg60
F0.75
sg43
F0.8333333333333334
sg3
F1.0
sg11
F1.0
sg22
F1.0
sg61
F1.0
sg70
F1.0
sg21
F1.0
sg49
F1.0
sg68
F1.0
ssg170
(dp400
g167
F1.0
ssS'tlJn3I40bf'
p401
(dp402
sS'lKsX609E6x'
p403
(dp404
sg311
(dp405
g309
F1.0
ssg290
(dp406
g19
F1.0
sg14
F1.0
ssg19
(dp407
g57
F1.0
sg1
F1.0
sg4
F1.0
sg5
F1.0
sg288
F0.8730158730158729
sg58
F1.0
sg28
F1.0
sg8
F1.0
sg36
F1.0
sg10
F1.0
sg47
F1.0
sg290
F0.75
sg117
F1.0
sg30
F1.0
sg38
F1.0
sg44
F1.0
sg97
F1.0
sg7
F1.0
sg42
F1.0
sg87
F1.0
sg9
F1.0
sg16
F1.0
sg60
F1.0
sg43
F0.7777777777777777
sg41
F1.0
sg3
F1.0
sg11
F1.0
sg22
F1.0
sg61
F0.8400000000000001
sg98
F1.0
sg39
F0.8333333333333334
sg14
F0.8125
sg6
F1.0
sg174
F1.0
sg21
F1.0
sg18
F1.0
sg20
F1.0
sg12
F0.75
sg94
F1.0
sg68
F1.0
sg70
F0.7916666666666667
sg49
F1.0
ssS'c7A4cZK28M'
p408
(dp409
sS'QUcO70Q91P'
p410
(dp411
sS'gPaagaJ8aq'
p412
(dp413
sS'uz40H610bF'
p414
(dp415
sS'LM96hW22T2'
p416
(dp417
sS'39Uc7ru04l'
p418
(dp419
sS'694Y3fju01'
p420
(dp421
sg254
(dp422
g57
F1.0
sg255
F1.0
sg67
F0.7777777777777777
sg64
F0.75
sg66
F0.761904761904762
ssS'41qrfb88lU'
p423
(dp424
sS'DS5ecUMGJi'
p425
(dp426
sS'O4YDV4XPTd'
p427
(dp428
sg115
(dp429
g119
F0.8125
sg118
F1.0
sg22
F0.9400000000000001
sg7
F0.8125
ssg42
(dp430
g57
F0.7777777777777778
sg10
F0.8888888888888888
sg4
F0.8690476190476191
sg5
F0.75
sg58
F1.0
sg28
F1.0
sg41
F1.0
sg36
F1.0
sg47
F0.75
sg19
F1.0
sg30
F0.75
sg38
F0.875
sg44
F1.0
sg7
F0.8
sg97
F1.0
sg16
F1.0
sg60
F0.875
sg43
F0.6666666666666666
sg11
F0.7999999999999999
sg22
F1.0
sg61
F1.0
sg39
F1.0
sg6
F1.0
sg173
F1.0
sg40
F1.0
sg21
F0.75
sg18
F0.6666666666666666
sg117
F0.7222222222222223
sg70
F1.0
ssS'Q0Fp6Da7G1'
p431
(dp432
sg16
(dp433
g57
F0.7777777777777777
sg1
F1.0
sg4
F0.8333333333333334
sg5
F0.8333333333333333
sg288
F0.75
sg58
F0.6666666666666666
sg28
F1.0
sg41
F1.0
sg36
F1.0
sg10
F0.75
sg47
F0.8125
sg19
F0.7777777777777777
sg38
F1.0
sg44
F0.7777777777777777
sg31
F1.0
sg7
F0.75
sg42
F0.75
sg9
F1.0
sg60
F0.7777777777777777
sg70
F1.0
sg11
F1.0
sg22
F1.0
sg39
F0.8125
sg14
F1.0
sg6
F0.8055555555555556
sg174
F0.6666666666666666
sg40
F0.8125
sg21
F1.0
sg18
F1.0
sg65
F1.0
sg49
F1.0
ssg25
(dp434
g3
F1.0
sg11
F0.7777777777777778
sg169
F0.75
sg182
F1.0
sg153
F1.0
sg23
F1.0
sg118
F1.0
sg167
F0.8
ssS'9QD9297moO'
p435
(dp436
sS'Hd9GW3f95j'
p437
(dp438
sg11
(dp439
g57
F1.0
sg1
F1.0
sg4
F0.925
sg5
F0.8968253968253967
sg182
F1.0
sg58
F1.0
sg28
F1.0
sg8
F1.0
sg36
F0.8
sg10
F1.0
sg47
F1.0
sg19
F0.8400000000000001
sg30
F1.0
sg48
F1.0
sg38
F0.8714285714285713
sg44
F1.0
sg7
F0.8571428571428572
sg42
F1.0
sg116
F1.0
sg9
F1.0
sg184
F1.0
sg16
F1.0
sg60
F1.0
sg43
F1.0
sg41
F1.0
sg3
F1.0
sg22
F1.0
sg61
F1.0
sg98
F1.0
sg70
F1.0
sg99
F1.0
sg39
F1.0
sg14
F1.0
sg6
F1.0
sg40
F1.0
sg21
F1.0
sg18
F1.0
sg45
F1.0
sg13
F1.0
sg65
F1.0
sg20
F1.0
sg12
F1.0
sg68
F1.0
sg25
F0.7333333333333334
sg49
F1.0
ssg372
(dp440
g64
F1.0
ssS'56dTCKdr74'
p441
(dp442
sS'y8BlGe62E7'
p443
(dp444
sg153
(dp445
g25
F1.0
sg118
F1.0
sg167
F1.0
ssS'11fnXrq9Jf'
p446
(dp447
sS'7rP4RofmNF'
p448
(dp449
sS'183ppvOXp8'
p450
(dp451
sS'yB480DNZ70'
p452
(dp453
sg39
(dp454
g57
F0.7777777777777777
sg10
F1.0
sg117
F1.0
sg5
F0.8333333333333334
sg58
F1.0
sg28
F1.0
sg41
F1.0
sg36
F0.75
sg47
F0.7777777777777778
sg4
F0.7983193277310924
sg30
F0.75
sg38
F0.72
sg44
F1.0
sg7
F0.7380952380952381
sg42
F1.0
sg97
F1.0
sg116
F1.0
sg9
F0.6666666666666666
sg16
F1.0
sg60
F0.8095238095238094
sg43
F0.64
sg20
F0.8
sg112
F1.0
sg11
F0.6666666666666667
sg22
F0.8186813186813187
sg61
F1.0
sg12
F0.8333333333333333
sg14
F1.0
sg6
F1.0
sg40
F1.0
sg21
F0.7333333333333333
sg18
F0.5833333333333334
sg19
F1.0
sg15
F1.0
sg68
F1.0
sg70
F1.0
ssS'3008m5T78s'
p455
(dp456
sS'i0FfLG15di'
p457
(dp458
sS'93YVE85s1x'
p459
(dp460
sg63
(dp461
g67
F1.0
sg112
F1.0
sg69
F1.0
sg30
F1.0
sg64
F1.0
ssg70
(dp462
g57
F0.75
sg10
F0.75
sg4
F0.8333333333333333
sg5
F0.75
sg58
F0.7333333333333334
sg28
F0.8333333333333334
sg8
F1.0
sg47
F0.6666666666666666
sg19
F0.65
sg30
F0.7777777777777777
sg38
F0.8333333333333334
sg44
F0.75
sg7
F0.75
sg42
F0.75
sg97
F0.8333333333333333
sg16
F1.0
sg60
F0.75
sg3
F1.0
sg11
F0.8666666666666667
sg22
F0.8666666666666668
sg61
F0.7777777777777778
sg98
F1.0
sg39
F0.75
sg6
F0.7777777777777778
sg40
F0.75
sg21
F1.0
sg49
F1.0
sg12
F1.0
ssS'jXc985G8qy'
p463
(dp464
sS'233EMC2k7k'
p465
(dp466
sS'9Ydzn1ubPe'
p467
(dp468
sS'b4WRCgbjkN'
p469
(dp470
sg353
(dp471
g351
F1.0
ssS'0ccXSz8Bk8'
p472
(dp473
sS'kKr8NG7YNL'
p474
(dp475
sS'Wi92e1D7bp'
p476
(dp477
sg99
(dp478
g3
F1.0
sg4
F1.0
sg22
F1.0
sg28
F1.0
sg11
F1.0
sg48
F1.0
sg18
F1.0
ssS'LP15lX652E'
p479
(dp480
sg15
(dp481
g1
F0.75
sg4
F0.875
sg5
F0.75
sg22
F0.6666666666666666
sg7
F0.8333333333333333
sg10
F0.75
sg12
F0.75
sg39
F1.0
sg43
F0.75
sg18
F0.8888888888888888
ssg69
(dp482
g63
F1.0
sg30
F1.0
sg64
F1.0
sg66
F1.0
ss.