(dp0
S'46vx97eEK0'
p1
(dp2
sS'XJyS25Yg27'
p3
(dp4
S'X5eS5kvC8h'
p5
F1.0
sS'Ugr5eIIEf0'
p6
F1.0
sS'XL0eQIoG72'
p7
F1.0
sS'i8f2gg51r5'
p8
F1.0
sS'y5009rpZ12'
p9
F1.0
sS'Hd9GW3f95j'
p10
F1.0
sS'1kKxS8urAH'
p11
F1.0
sS's19Mo891H5'
p12
F1.0
sS'8gH5u019ZH'
p13
F1.0
sS'ajPRq0Q08b'
p14
F1.0
sS'dvG32rxRzQ'
p15
F1.0
sS'saNy7ix5ZY'
p16
F1.0
sS'h0UbH181l8'
p17
F1.0
sS'EfN583275t'
p18
F1.0
sS'Gwk4z777oU'
p19
F1.0
sS'78t79xOebG'
p20
F1.0
ssS'D08sSQFrq3'
p21
(dp22
sS'J76B3lyQG9'
p23
(dp24
sg14
(dp25
S'apCLF0uF21'
p26
F1.0
sg3
F0.6666666666666666
sg6
F1.0
sS'b2W4ZO3uLV'
p27
F1.0
sS'tyU2s0MBzm'
p28
F0.5833333333333334
sS'Qwq8d0du28'
p29
F0.75
sS'81E41tTtV9'
p30
F0.75
sS'c1zVCHxCEz'
p31
F0.8333333333333333
sg19
F0.6666666666666666
sS'tlJn3I40bf'
p32
F0.7777777777777777
sS'3hSu07XfGd'
p33
F0.75
sg17
F0.8888888888888888
sS'77y7iIIXuv'
p34
F0.75
sg7
F0.8333333333333334
sS'OS2vxzjz6W'
p35
F0.7777777777777777
sS'IQ98biy227'
p36
F0.6666666666666666
sS'6Ax4SKe470'
p37
F0.75
sS'XNEgfvXx50'
p38
F1.0
sS'MrZ99Q697y'
p39
F0.75
sS'88Uhb8760x'
p40
F1.0
sg9
F0.6458333333333334
sg11
F1.0
sS'6O31vedZbI'
p41
F0.75
sS'EV28POlwE4'
p42
F1.0
sS'hwF4tyWU50'
p43
F0.75
sS'Si4v9635O3'
p44
F0.75
sS'm64Rgy40OF'
p45
F0.6666666666666666
sS'5a5qA8VLfI'
p46
F0.7777777777777778
sS'LP15lX652E'
p47
F1.0
sS'9EAa0nJjb1'
p48
F0.75
sS'6jCygPdswz'
p49
F0.75
sS'1bJbgQ32E3'
p50
F0.8333333333333333
sS'ZP886G3Z76'
p51
F0.7777777777777777
sg10
F0.75
sS'7cEjwssz1R'
p52
F0.6666666666666666
sg5
F0.8333333333333334
sS'iyLqACAFyl'
p53
F0.6666666666666666
sS'l5eh0S53tB'
p54
F0.75
sS'AQfVkV1aEx'
p55
F1.0
sS'9aw67h1Z47'
p56
F0.75
sS'XUwJ9E07Zd'
p57
F0.75
sS'5ey2xUDZTA'
p58
F0.75
sS'11fnXrq9Jf'
p59
F0.6666666666666666
sg15
F0.7777777777777778
sS'qL6HDg57R9'
p60
F0.7777777777777777
sg18
F1.0
sg8
F0.7000000000000001
sS'YNGlv7F45C'
p61
F1.0
sS'242fhbKRf9'
p62
F1.0
sS'0U9x5pNv8t'
p63
F0.75
sS'PE6x6PxZ42'
p64
F0.64
sS'yuB6nxh3FX'
p65
F0.75
sS'USdRVl9AOe'
p66
F0.7777777777777778
sS'2J2SH6Fk63'
p67
F0.75
sS'yf2V5ll9mN'
p68
F0.75
sg16
F0.8333333333333334
sS'4pzSijxuK6'
p69
F0.75
sS'0jSb6S70X1'
p70
F0.8888888888888888
sS'X4ZaxfDz3Q'
p71
F0.75
sS'4X3016rdOZ'
p72
F1.0
sg20
F0.6666666666666666
sS'0u17bw7v7w'
p73
F1.0
ssg34
(dp74
g26
F1.0
sg39
F1.0
sg19
F1.0
sg14
F1.0
sg27
F1.0
sg54
F1.0
sg9
F1.0
sS'02i5jCrfQK'
p75
F1.0
sg31
F1.0
sg12
F1.0
sg59
F1.0
sg6
F1.0
sg8
F1.0
sg46
F1.0
sg7
F1.0
sg49
F1.0
sg72
F1.0
sg62
F1.0
sg63
F1.0
ssg7
(dp76
g26
F0.75
sg3
F0.6666666666666666
sg14
F0.7777777777777778
sg29
F0.75
sg75
F0.6666666666666666
sg12
F0.75
sg19
F0.75
sg33
F0.8333333333333334
sg65
F1.0
sg34
F0.75
sg36
F1.0
sg38
F0.75
sg9
F0.7777777777777777
sg68
F0.75
sS'EaUoBdvBdC'
p77
F0.75
sg46
F1.0
sg48
F1.0
sg50
F0.6666666666666666
sg52
F0.75
sg15
F0.7777777777777778
sg54
F0.6666666666666666
sg56
F1.0
sg57
F0.75
sS'z9svx3mA4s'
p78
F1.0
sg60
F1.0
sg18
F0.6666666666666666
sg72
F0.75
sg17
F0.8333333333333334
sg69
F0.75
ssg40
(dp79
g14
F1.0
sg54
F1.0
sg9
F1.0
sg15
F1.0
sg60
F1.0
sg6
F0.75
sg69
F1.0
sg46
F1.0
sg62
F1.0
sg38
F1.0
ssg77
(dp80
g56
F1.0
sS'HvghFVBS5v'
p81
F1.0
sS'5LMy832c47'
p82
F1.0
sg7
F1.0
sg33
F1.0
ssS'2IaH8665Ha'
p83
(dp84
sS'Axp5cwW7T8'
p85
(dp86
sg30
(dp87
S'VHCF3iE0a4'
p88
F1.0
sg19
F1.0
sg14
F1.0
sg28
F0.75
sg9
F1.0
sg13
F0.75
sg11
F0.7777777777777777
sg67
F1.0
sg29
F0.75
sg60
F0.8333333333333333
sg16
F0.6666666666666666
sS'7y5NJZ7S6u'
p89
F1.0
sg17
F1.0
sg69
F1.0
sg18
F0.75
sg81
F1.0
sg82
F0.75
sg64
F0.8333333333333333
sg71
F1.0
sg51
F1.0
sg54
F1.0
ssS'075kbY53c1'
p90
(dp91
g11
F1.0
ssg45
(dp92
g14
F0.6666666666666666
sg60
F0.75
sg54
F0.75
sg9
F0.75
sg51
F0.75
ssg50
(dp93
g15
F1.0
sg7
F1.0
sg14
F0.75
sg78
F0.75
sg16
F0.75
sg60
F0.85
sg18
F0.75
sg70
F1.0
sg49
F1.0
sg17
F0.75
sg51
F1.0
sg62
F1.0
ssS'E38It7fjg0'
p94
(dp95
g82
F0.75
sg49
F0.75
sg78
F0.75
sg5
F1.0
ssg54
(dp96
g26
F1.0
sg19
F0.7777777777777778
sg14
F0.8484848484848485
sg27
F1.0
sg28
F1.0
sg29
F1.0
sg75
F1.0
sg30
F1.0
sg12
F1.0
sg33
F1.0
sg17
F1.0
sg34
F1.0
sS'Dmq6441349'
p97
F1.0
sg7
F1.0
sg36
F1.0
sg38
F0.7777777777777777
sg39
F1.0
sg40
F1.0
sg9
F1.0
sg11
F1.0
sg42
F1.0
sg35
F1.0
sg62
F1.0
sg45
F1.0
sg46
F1.0
sg49
F1.0
sg72
F1.0
sg51
F1.0
sg10
F1.0
sg5
F0.6666666666666666
sg15
F1.0
sg71
F1.0
sg55
F0.75
sg56
F1.0
sg58
F0.75
sg60
F1.0
sg8
F1.0
sg61
F1.0
sS'mNzo8mGzu9'
p98
F1.0
sg63
F1.0
sS'g209g5Vve6'
p99
F1.0
sg66
F1.0
sg16
F1.0
sg69
F1.0
sg70
F1.0
sg48
F1.0
ssg55
(dp100
g14
F1.0
sg28
F1.0
sg11
F1.0
sg81
F1.0
sg33
F0.75
sg17
F1.0
sg46
F1.0
sS'0KS4yy9G96'
p101
F1.0
sg54
F1.0
ssS'm9a501e1MM'
p102
(dp103
sg58
(dp104
g6
F0.75
sg28
F1.0
sg9
F1.0
sg14
F0.875
sg15
F1.0
sg53
F1.0
sg8
F1.0
sg73
F1.0
sg37
F0.75
sg54
F1.0
sg38
F1.0
ssg59
(dp105
g14
F1.0
sg27
F1.0
sg66
F1.0
sg6
F1.0
sg34
F1.0
sg70
F1.0
sg64
F1.0
ssg89
(dp106
g26
F1.0
sg29
F0.75
sg13
F0.75
sg11
F0.75
sg81
F1.0
sg30
F1.0
sg17
F1.0
sg18
F0.7777777777777777
sg82
F0.75
ssg16
(dp107
g3
F0.75
sg14
F0.8333333333333334
sg27
F0.75
sg28
F1.0
sg13
F1.0
sg30
F1.0
sg19
F0.75
sg17
F1.0
sg54
F0.8333333333333333
sg9
F0.6666666666666666
sg11
F1.0
sg64
F1.0
sg50
F0.8333333333333333
sg51
F0.75
sg10
F1.0
sg15
F0.75
sg71
F1.0
sg78
F1.0
sg60
F0.6666666666666666
sg18
F1.0
sg8
F0.75
sg61
F1.0
sg63
F0.75
sg70
F0.75
sg72
F1.0
ssS'LjgZcY49TV'
p108
(dp109
sg62
(dp110
g26
F1.0
sg14
F1.0
sg29
F0.6666666666666666
sg13
F0.75
sg31
F0.8333333333333333
sg33
F0.75
sg17
F0.8333333333333334
sg34
F0.75
sg36
F0.75
sg40
F1.0
sg9
F0.6666666666666666
sg11
F0.75
sg35
F0.7777777777777777
sg46
F0.8125
sg49
F0.75
sg50
F1.0
sg51
F1.0
sg101
F1.0
sg15
F0.75
sg54
F0.8333333333333334
sg56
F0.75
sg60
F0.75
sg18
F0.75
sg8
F0.6666666666666666
sg72
F0.7777777777777777
sg81
F1.0
sg48
F0.75
ssS'oeTCjHG37z'
p111
(dp112
sg67
(dp113
g14
F1.0
sg28
F0.75
sg30
F1.0
sg78
F0.75
sg64
F0.8333333333333333
sg51
F1.0
sg98
F1.0
ssS'1to8tgu4IT'
p114
(dp115
sS'55jl7IFg3z'
p116
(dp117
g35
F1.0
ssS'x64anap2Kz'
p118
(dp119
sg81
(dp120
g26
F1.0
sg29
F0.75
sg55
F0.75
sg13
F0.75
sg11
F0.8400000000000001
sg77
F1.0
sg33
F1.0
sg30
F1.0
sg89
F1.0
sg17
F1.0
sg46
F1.0
sg82
F0.75
sg62
F1.0
sg101
F1.0
ssg20
(dp121
g3
F1.0
sg14
F1.0
sg27
F1.0
sg11
F1.0
sg8
F1.0
sg64
F1.0
sg10
F1.0
sg63
F1.0
ssg73
(dp122
g14
F1.0
sg58
F0.75
sg36
F0.75
sg38
F1.0
ssg19
(dp123
g26
F1.0
sg3
F1.0
sg65
F0.75
sg27
F1.0
sg28
F1.0
sg30
F1.0
sg31
F1.0
sg33
F1.0
sg14
F1.0
sg34
F1.0
sg7
F1.0
sg82
F0.75
sg36
F1.0
sg37
F1.0
sg38
F1.0
sg9
F1.0
sg11
F1.0
sg35
F1.0
sg49
F1.0
sg5
F1.0
sg54
F1.0
sg16
F1.0
sg18
F1.0
sg8
F1.0
sg63
F1.0
sg17
F1.0
ssg65
(dp124
g19
F1.0
sg14
F0.6666666666666666
sg7
F0.6666666666666666
sg28
F0.75
sg9
F0.75
sg41
F0.75
sg35
F1.0
sg17
F0.75
sg49
F1.0
sg36
F0.7777777777777777
sg63
F1.0
ssS'bt0ZuHaCGY'
p125
(dp126
g28
F1.0
sg9
F1.0
sg43
F1.0
ssg29
(dp127
g14
F1.0
sg7
F1.0
sg75
F1.0
sg30
F1.0
sg15
F1.0
sg82
F1.0
sg9
F1.0
sg11
F1.0
sg13
F1.0
sg35
F1.0
sg44
F1.0
sg64
F1.0
sg53
F1.0
sg54
F1.0
sg56
F1.0
sg89
F1.0
sg60
F1.0
sg18
F1.0
sg8
F1.0
sg62
F1.0
sg72
F1.0
sg81
F1.0
sg17
F1.0
ssS'5VZLSGPT10'
p128
(dp129
sS'yDO9pl8GC0'
p130
(dp131
sS'QS4cvQ8w0o'
p132
(dp133
sg15
(dp134
g3
F1.0
sg14
F0.7777777777777777
sg7
F0.75
sg29
F1.0
sg75
F1.0
sg12
F1.0
sS'2oNLCndtam'
p135
F1.0
sg33
F1.0
sg17
F0.75
sg36
F0.7777777777777777
sg37
F1.0
sg40
F1.0
sg9
F0.75
sg68
F0.75
sg35
F1.0
sg46
F1.0
sS'8ZPoEJbXB7'
p136
F1.0
sS'6A16l70g5Q'
p137
F1.0
sg49
F1.0
sg50
F1.0
sg53
F1.0
sg54
F1.0
sg56
F1.0
sg57
F0.75
sg58
F0.75
sg78
F0.7777777777777777
sg60
F1.0
sg18
F1.0
sg8
F1.0
sg61
F1.0
sg62
F1.0
sg72
F1.0
sg64
F0.75
sg16
F1.0
ssS'YvD7H8XduF'
p138
(dp139
sg97
(dp140
g49
F0.75
sg54
F0.6666666666666666
sg61
F0.75
ssg37
(dp141
g19
F1.0
sg6
F1.0
sg75
F1.0
sg14
F1.0
sg31
F1.0
sg58
F1.0
sg53
F1.0
sg15
F1.0
sg18
F1.0
ssg39
(dp142
g5
F1.0
sg14
F1.0
sg54
F1.0
sg33
F0.75
sg34
F1.0
sg8
F1.0
sg71
F1.0
sg63
F1.0
ssg9
(dp143
g26
F1.0
sg3
F1.0
sg14
F1.0
sg27
F1.0
sg28
F1.0
sg29
F1.0
sg30
F1.0
sg19
F1.0
sg33
F1.0
sg15
F1.0
sg34
F1.0
sg7
F1.0
sg35
F1.0
sg36
F1.0
sg54
F1.0
sg125
F1.0
sg40
F1.0
sg11
F1.0
sg42
F1.0
sg43
F1.0
sg45
F1.0
sg46
F1.0
sg136
F1.0
sg38
F1.0
sg72
F1.0
sg51
F1.0
sg10
F1.0
sg71
F1.0
sg53
F1.0
sS't4K5z0e2NZ'
p144
F1.0
sg57
F1.0
sg58
F1.0
sg16
F1.0
sg60
F1.0
sg18
F1.0
sg8
F1.0
sg61
F1.0
sg62
F1.0
sg63
F1.0
sg64
F1.0
sg65
F1.0
sg66
F1.0
sg68
F1.0
sg17
F1.0
sg69
F1.0
ssg68
(dp145
g15
F1.0
sg7
F1.0
sg9
F1.0
sg14
F1.0
sg69
F1.0
sg46
F1.0
sg36
F1.0
ssS'7oiAa7MlW2'
p146
(dp147
sg41
(dp148
S'45TTYcotWk'
p149
F1.0
sg65
F1.0
sg28
F1.0
sg78
F1.0
sS'bcoY3s64sj'
p150
F1.0
sg14
F1.0
sg64
F1.0
sg36
F1.0
ssg149
(dp151
g41
F0.75
ssg136
(dp152
g5
F0.75
sg15
F1.0
sg9
F0.75
ssg49
(dp153
g26
F1.0
sg19
F1.0
sg14
F1.0
sg27
F1.0
sg33
F1.0
sg17
F1.0
sg34
F1.0
sg97
F1.0
sg36
F1.0
sg54
F1.0
sg35
F1.0
sg46
F1.0
sg50
F1.0
sg94
F0.75
sg5
F1.0
sg15
F1.0
sg144
F1.0
sg78
F1.0
sg61
F1.0
sg62
F1.0
sg48
F1.0
sg65
F0.75
sS'CZDz8OSRfI'
p154
F1.0
ssS'Fm7ESoRh9v'
p155
(dp156
sS'SH1cSNDIA8'
p157
(dp158
sg101
(dp159
g28
F0.75
sg55
F0.75
sg11
F0.75
sg81
F1.0
sg78
F0.75
sg17
F1.0
sg82
F0.75
sg62
F1.0
ssg5
(dp160
g39
F1.0
sg3
F1.0
sg14
F1.0
sg54
F1.0
sg64
F1.0
sg52
F1.0
sg19
F1.0
sg35
F1.0
sg72
F1.0
sg136
F1.0
sg49
F1.0
sg94
F1.0
sg63
F1.0
ssg71
(dp161
g39
F0.75
sg14
F1.0
sg28
F0.75
sg9
F1.0
sg11
F0.75
sg30
F1.0
sg16
F0.6666666666666666
sg60
F0.8333333333333333
sg64
F0.75
sg51
F1.0
sg54
F1.0
ssS'pI9Tpj13ty'
p162
(dp163
sS's9O034dIc4'
p164
(dp165
sS'5yasLi1Avt'
p166
(dp167
sS'MPqJdqnPtc'
p168
(dp169
sS'u004wY493z'
p170
(dp171
sg61
(dp172
g26
F1.0
sg99
F1.0
sg14
F1.0
sg27
F0.75
sg54
F0.8333333333333334
sg9
F0.6666666666666666
sg36
F0.6875
sg60
F0.75
sg35
F0.75
sg16
F1.0
sg15
F0.75
sg18
F1.0
sg8
F0.6666666666666666
sg97
F0.75
sg46
F0.6666666666666666
sg49
F0.75
sg72
F1.0
sg51
F0.75
sg10
F1.0
sg63
F0.75
ssg48
(dp173
g26
F1.0
sg14
F1.0
sg7
F0.6666666666666666
sg54
F1.0
sg33
F1.0
sg17
F1.0
sg46
F1.0
sg49
F1.0
sg62
F1.0
ssg66
(dp174
g14
F1.0
sg54
F1.0
sg9
F1.0
sg59
F1.0
sg8
F1.0
sg64
F1.0
sg10
F1.0
sg72
F1.0
ssS'UEArk7W20r'
p175
(dp176
sS'5yM8I4Uut9'
p177
(dp178
sg69
(dp179
g14
F1.0
sg40
F1.0
sg144
F0.75
sg9
F1.0
sg30
F1.0
sg78
F0.75
sg42
F1.0
sg154
F1.0
sg68
F1.0
sg17
F1.0
sg7
F1.0
sg54
F1.0
sg28
F1.0
ssg18
(dp180
g26
F1.0
sg3
F0.7777777777777777
sg14
F1.0
sg27
F0.75
sg29
F1.0
sg13
F1.0
sg30
F1.0
sg19
F0.75
sg33
F0.6666666666666666
sg17
F1.0
sg7
F0.8333333333333334
sg82
F1.0
sg36
F0.75
sg37
F0.7777777777777778
sg9
F0.75
sg11
F1.0
sg44
F1.0
sg64
F1.0
sg50
F0.8333333333333333
sg51
F0.6666666666666666
sg15
F0.75
sg89
F1.0
sg16
F1.0
sg61
F1.0
sg62
F0.75
sg63
F0.75
sg60
F0.6666666666666666
ssg26
(dp181
g19
F0.75
sg14
F1.0
sg27
F0.75
sg54
F0.8333333333333333
sg9
F0.75
sg11
F1.0
sg81
F1.0
sg33
F0.75
sg89
F1.0
sg17
F1.0
sg34
F0.75
sg18
F1.0
sg46
F0.75
sg7
F0.8333333333333333
sg48
F0.75
sg49
F0.75
sg36
F0.75
sg61
F1.0
sg62
F1.0
sg63
F0.75
ssg6
(dp182
g52
F0.75
sg3
F0.75
sg14
F1.0
sg40
F1.0
sg75
F1.0
sg31
F1.0
sg58
F1.0
sg59
F1.0
sg34
F1.0
sS'Ru21xRreim'
p183
F1.0
sg46
F1.0
sg137
F1.0
sg64
F1.0
sg37
F1.0
ssg27
(dp184
g26
F1.0
sg19
F0.75
sg14
F1.0
sg54
F0.6666666666666666
sg9
F0.8333333333333333
sg10
F0.8333333333333333
sS'5SXHhHKGxC'
p185
F1.0
sg59
F0.75
sS'80nlN05JQ6'
p186
F1.0
sg16
F0.8333333333333333
sg17
F1.0
sg34
F0.7777777777777778
sg18
F1.0
sg8
F0.7777777777777777
sg49
F1.0
sg36
F1.0
sg61
F1.0
sg20
F0.75
sg63
F0.7777777777777777
ssg28
(dp187
g19
F1.0
sg14
F1.0
sg125
F1.0
sg30
F1.0
sg150
F0.75
sg65
F0.75
sg82
F0.75
sg36
F1.0
sg71
F1.0
sg9
F1.0
sg11
F1.0
sg41
F0.75
sg88
F1.0
sg64
F1.0
sg51
F1.0
sg101
F0.75
sg54
F1.0
sg55
F1.0
sg57
F1.0
sg58
F1.0
sg78
F1.0
sg60
F1.0
sg43
F1.0
sg99
F1.0
sg67
F1.0
sg16
F1.0
sg69
F1.0
sg17
F1.0
ssg75
(dp188
g6
F1.0
sg7
F1.0
sg54
F1.0
sg29
F1.0
sg12
F1.0
sg15
F1.0
sg34
F1.0
sg46
F1.0
sg37
F1.0
sg72
F1.0
ssS'9493h91NUB'
p189
(dp190
sg31
(dp191
g19
F1.0
sg14
F1.0
sg35
F1.0
sg6
F1.0
sg34
F1.0
sg8
F1.0
sg46
F1.0
sS'F25axtfCKG'
p192
F1.0
sg37
F1.0
sg62
F1.0
sg63
F1.0
ssg33
(dp193
g26
F1.0
sg39
F1.0
sg19
F1.0
sg14
F1.0
sg7
F1.0
sg55
F1.0
sg9
F1.0
sg11
F1.0
sg81
F1.0
sg77
F1.0
sg15
F1.0
sg56
F1.0
sg17
F1.0
sg48
F1.0
sg18
F1.0
sg46
F1.0
sg49
F1.0
sg62
F1.0
sg54
F1.0
ssg186
(dp194
g185
F1.0
sg27
F1.0
ssS'stK4H8Vit6'
p195
(dp196
sg82
(dp197
g99
F1.0
sg19
F1.0
sg28
F1.0
sg29
F1.0
sg13
F1.0
sg11
F1.0
sg81
F1.0
sg78
F1.0
sg77
F1.0
sg30
F1.0
sg89
F1.0
sg17
F1.0
sg18
F1.0
sg64
F1.0
sg94
F1.0
sg101
F1.0
ssg36
(dp198
g26
F1.0
sg19
F1.0
sg65
F0.7777777777777777
sg27
F1.0
sg28
F1.0
sg150
F0.75
sg14
F1.0
sg7
F1.0
sg38
F1.0
sg9
F1.0
sg68
F1.0
sg41
F0.75
sg35
F1.0
sg46
F1.0
sg49
F1.0
sg72
F1.0
sg15
F1.0
sg54
F1.0
sg56
F1.0
sg78
F1.0
sg60
F1.0
sg18
F1.0
sg8
F1.0
sg61
F1.0
sg62
F1.0
sg63
F1.0
sg64
F1.0
sg185
F1.0
sg17
F1.0
sg73
F1.0
ssg38
(dp199
g19
F1.0
sg14
F1.0
sg40
F1.0
sg54
F1.0
sg9
F1.0
sg58
F1.0
sg60
F1.0
sg46
F0.75
sg7
F0.75
sg36
F1.0
sg73
F1.0
ssS'XGFd357i6u'
p200
(dp201
sS'6Kbx2aEeUm'
p202
(dp203
sg43
(dp204
g14
F1.0
sg28
F1.0
sg9
F1.0
sg125
F1.0
ssS'jx1ndu85oq'
p205
(dp206
sg44
(dp207
g14
F1.0
sg18
F1.0
sg29
F1.0
ssS'66Ak255E3j'
p208
(dp209
sg63
(dp210
g26
F1.0
sg39
F1.0
sg5
F1.0
sg14
F1.0
sg27
F1.0
sg8
F1.0
sg9
F1.0
sg31
F1.0
sg19
F1.0
sg16
F1.0
sg65
F1.0
sg34
F1.0
sg18
F1.0
sg70
F1.0
sg36
F1.0
sg61
F1.0
sg20
F1.0
sg54
F1.0
ssg51
(dp211
g71
F1.0
sg14
F1.0
sg28
F0.6666666666666666
sg9
F1.0
sg30
F1.0
sg67
F1.0
sg60
F0.85
sg16
F0.7777777777777777
sg17
F0.75
sg18
F0.75
sg45
F1.0
sg50
F1.0
sg61
F1.0
sg62
F1.0
sg54
F1.0
ssS'jdT9cZAxyb'
p212
(dp213
sg52
(dp214
g14
F1.0
sg5
F1.0
sg6
F1.0
sg7
F1.0
ssg144
(dp215
g49
F1.0
sg69
F1.0
sg9
F1.0
ssg56
(dp216
g14
F1.0
sg7
F1.0
sg54
F1.0
sg29
F0.6666666666666666
sg77
F0.75
sg15
F1.0
sg33
F0.8333333333333333
sg17
F0.8333333333333333
sg36
F1.0
sg62
F1.0
sg72
F1.0
ssS'b4NIYojEYn'
p217
(dp218
sS'6s8DOcciCW'
p219
(dp220
sg57
(dp221
g14
F1.0
sg7
F1.0
sg28
F1.0
sg9
F1.0
sg60
F1.0
sg15
F1.0
ssg8
(dp222
g3
F1.0
sg14
F1.0
sg27
F1.0
sg29
F1.0
sg31
F1.0
sg19
F1.0
sg17
F1.0
sg34
F1.0
sg36
F1.0
sg39
F1.0
sg9
F1.0
sg35
F1.0
sg46
F1.0
sg64
F1.0
sg10
F1.0
sg15
F1.0
sg54
F1.0
sg58
F1.0
sg60
F1.0
sg61
F1.0
sg62
F1.0
sg72
F1.0
sg66
F1.0
sg63
F1.0
sg16
F1.0
sg20
F1.0
ssS'ySs2g6X4Jx'
p223
(dp224
sg98
(dp225
g11
F1.0
sg67
F1.0
sg54
F1.0
ssg99
(dp226
g11
F0.75
sg61
F1.0
sg82
F0.75
sg28
F0.75
sg54
F1.0
ssS'P5t2zh16z0'
p227
(dp228
sS'1k3GIfwBw6'
p229
(dp230
sg154
(dp231
g69
F1.0
sg49
F0.75
sg78
F0.75
ssS'nOkrXE4gnk'
p232
(dp233
sg13
(dp234
g3
F1.0
sg29
F1.0
sg30
F1.0
sg81
F1.0
sg78
F1.0
sg16
F1.0
sg89
F1.0
sg17
F1.0
sg18
F1.0
sg82
F1.0
sg64
F1.0
sg137
F1.0
sg62
F1.0
ssg183
(dp235
g6
F1.0
ssg12
(dp236
g3
F1.0
sg15
F1.0
sg7
F1.0
sg54
F1.0
sg75
F1.0
sg34
F1.0
sg72
F1.0
ssg135
(dp237
g15
F0.75
ssg32
(dp238
g14
F1.0
sg42
F1.0
ssg150
(dp239
g36
F1.0
sg41
F1.0
sg28
F1.0
ssg17
(dp240
g26
F1.0
sg3
F0.7777777777777777
sg14
F1.0
sg27
F0.75
sg28
F0.7777777777777777
sg29
F0.75
sg13
F0.75
sg30
F1.0
sg19
F0.75
sg33
F0.75
sg65
F0.75
sg7
F0.8333333333333334
sg82
F0.75
sg36
F0.75
sg9
F0.7777777777777778
sg11
F0.7777777777777777
sg46
F0.7777777777777778
sg49
F0.75
sg50
F0.8333333333333333
sg51
F0.6666666666666666
sg101
F1.0
sg15
F0.75
sg54
F0.8333333333333333
sg55
F0.7777777777777777
sg56
F0.75
sg78
F0.75
sg89
F1.0
sg60
F0.6666666666666666
sg18
F0.8888888888888888
sg8
F0.75
sg62
F0.8333333333333334
sg72
F1.0
sg64
F0.8333333333333333
sg81
F1.0
sg185
F1.0
sg16
F1.0
sg69
F1.0
sg48
F0.75
ssS'bnNE2RRUsd'
p241
(dp242
sg11
(dp243
g26
F1.0
sg3
F0.75
sg14
F1.0
sg28
F0.75
sg29
F1.0
sg30
F0.7222222222222223
sg19
F0.75
sg33
F1.0
sg17
F1.0
sg82
F1.0
sg71
F0.75
sg9
F0.8333333333333333
sg62
F1.0
sg98
F1.0
sg46
F0.75
sg64
F0.6666666666666666
sg101
F1.0
sg54
F0.7777777777777777
sg55
F1.0
sg89
F1.0
sg16
F0.8333333333333333
sg18
F1.0
sg90
F1.0
sg99
F1.0
sg81
F0.8400000000000001
sg70
F1.0
sg20
F0.75
ssS'41qrfb88lU'
p244
(dp245
sg42
(dp246
g14
F1.0
sg69
F1.0
sg9
F1.0
sg32
F1.0
sg54
F1.0
ssg35
(dp247
g5
F1.0
sg14
F1.0
sg65
F0.75
sg54
F1.0
sg9
F1.0
sg31
F1.0
sg29
F1.0
sg19
F0.875
sg15
F1.0
sg116
F0.75
sg60
F1.0
sg8
F1.0
sg46
F1.0
sg49
F1.0
sg36
F1.0
sg61
F1.0
sg62
F1.0
sg72
F1.0
ssS'TF9ADS4g8k'
p248
(dp249
sg88
(dp250
g30
F1.0
sg60
F1.0
sg28
F0.75
ssg46
(dp251
g26
F1.0
sg6
F1.0
sg7
F1.0
sg75
F1.0
sg31
F1.0
sg33
F1.0
sg14
F1.0
sg34
F1.0
sg36
F1.0
sg38
F1.0
sg40
F1.0
sg9
F1.0
sg11
F1.0
sg35
F1.0
sg49
F1.0
sg15
F1.0
sg54
F1.0
sg55
F1.0
sg60
F1.0
sg8
F1.0
sg61
F1.0
sg62
F1.0
sg72
F1.0
sg81
F1.0
sg68
F1.0
sg17
F1.0
sg48
F1.0
ssg137
(dp252
g6
F1.0
sg15
F1.0
sg13
F1.0
ssg64
(dp253
g6
F1.0
sg28
F1.0
sg29
F1.0
sg13
F1.0
sg30
F1.0
sg14
F1.0
sg82
F1.0
sg36
F1.0
sg9
F1.0
sg11
F1.0
sg41
F1.0
sg5
F1.0
sg15
F1.0
sg71
F1.0
sg78
F1.0
sg59
F1.0
sg16
F1.0
sg18
F1.0
sg8
F1.0
sg72
F1.0
sg66
F1.0
sg67
F1.0
sg17
F1.0
sg20
F1.0
ssg10
(dp254
g3
F1.0
sg14
F1.0
sg27
F1.0
sg54
F1.0
sg9
F1.0
sg66
F1.0
sg16
F1.0
sg8
F1.0
sg61
F1.0
sg20
F1.0
ssg53
(dp255
g14
F1.0
sg9
F1.0
sg29
F1.0
sg58
F1.0
sg15
F1.0
sg37
F1.0
ssS'12M70dm49w'
p256
(dp257
sS'y8BlGe62E7'
p258
(dp259
sg78
(dp260
g15
F0.7777777777777778
sg7
F1.0
sg28
F1.0
sg64
F1.0
sg13
F1.0
sg67
F1.0
sg41
F0.75
sg60
F1.0
sg154
F1.0
sg16
F1.0
sg17
F1.0
sg69
F1.0
sg36
F1.0
sg82
F0.75
sg49
F1.0
sg50
F0.75
sg94
F0.75
sg101
F0.75
ssg60
(dp261
g14
F1.0
sg7
F1.0
sg28
F1.0
sg29
F1.0
sg30
F1.0
sg17
F1.0
sg36
F1.0
sg54
F1.0
sg40
F0.7777777777777778
sg9
F1.0
sg35
F1.0
sg88
F1.0
sg45
F1.0
sg46
F1.0
sg38
F1.0
sg50
F0.8
sg51
F1.0
sg15
F0.7777777777777778
sg71
F1.0
sg78
F1.0
sg16
F1.0
sg18
F1.0
sg8
F1.0
sg61
F1.0
sg62
F1.0
sg72
F1.0
sg57
F0.75
sg70
F1.0
ssg72
(dp262
g14
F1.0
sg7
F0.8333333333333333
sg29
F1.0
sg75
F0.8333333333333333
sg12
F0.75
sg17
F1.0
sg34
F0.75
sg36
F0.75
sg9
F0.6666666666666666
sg35
F0.75
sg46
F0.75
sg64
F1.0
sg5
F0.8333333333333333
sg15
F0.75
sg54
F0.8333333333333334
sg56
F0.75
sg60
F0.75
sg8
F0.6666666666666666
sg61
F1.0
sg62
F0.8333333333333334
sg66
F1.0
sg16
F1.0
ssS'd6MRvZi66J'
p263
(dp264
sg185
(dp265
g36
F1.0
sg186
F1.0
sg17
F1.0
sg27
F1.0
ssS'694Y3fju01'
p266
(dp267
sg47
(dp268
g14
F1.0
ssg70
(dp269
g14
F1.0
sg54
F0.6666666666666666
sg11
F1.0
sg59
F0.6666666666666666
sg60
F1.0
sg16
F0.8333333333333333
sg50
F0.6666666666666666
sg63
F0.8888888888888888
ssg192
(dp270
g31
F0.75
ss.