(dp0
S'XJyS25Yg27'
p1
(dp2
S'X5eS5kvC8h'
p3
F1.0
sS'ajPRq0Q08b'
p4
F1.0
sS'XL0eQIoG72'
p5
F1.0
sS'i8f2gg51r5'
p6
F1.0
sS'y5009rpZ12'
p7
F1.0
sS's19Mo891H5'
p8
F1.0
sS'm64Rgy40OF'
p9
F1.0
sS'Gwk4z777oU'
p10
F1.0
sS'dvG32rxRzQ'
p11
F1.0
sS'saNy7ix5ZY'
p12
F1.0
sS'34f4oB5Cod'
p13
F1.0
sS'EfN583275t'
p14
F1.0
sS'0jSb6S70X1'
p15
F1.0
sS'5a5qA8VLfI'
p16
F1.0
sS'0U9x5pNv8t'
p17
F1.0
sS'h0UbH181l8'
p18
F1.0
sS'ZP886G3Z76'
p19
F1.0
sS'242fhbKRf9'
p20
F1.0
sS'l5eh0S53tB'
p21
F1.0
ssS'D4md1bS6DC'
p22
(dp23
sS'dTIQk6Xt3r'
p24
(dp25
sS'6bJ4auIa8L'
p26
(dp27
g3
F1.0
sg4
F1.0
sg5
F1.0
sg21
F1.0
sg7
F1.0
sS'IQ98biy227'
p28
F1.0
sg11
F1.0
sg9
F1.0
sS'qL6HDg57R9'
p29
F1.0
sS'YNGlv7F45C'
p30
F1.0
sg12
F1.0
sg18
F1.0
sg6
F1.0
sg16
F1.0
sS'SoEcLAeJi1'
p31
F1.0
sS'OS2vxzjz6W'
p32
F1.0
sS'1bJbgQ32E3'
p33
F1.0
sS'6Ax4SKe470'
p34
F1.0
sg17
F1.0
ssS'QQTAp3k3UP'
p35
(dp36
sS'D08sSQFrq3'
p37
(dp38
sS'0GlR30c2Mt'
p39
(dp40
S'E38It7fjg0'
p41
F1.0
ssS'77y7iIIXuv'
p42
(dp43
S'apCLF0uF21'
p44
F1.0
sg10
F1.0
sg4
F1.0
sg5
F1.0
sS'02i5jCrfQK'
p45
F1.0
sS'c1zVCHxCEz'
p46
F1.0
sg8
F1.0
sS'3hSu07XfGd'
p47
F1.0
sg18
F1.0
sS'Dmq6441349'
p48
F1.0
sg28
F1.0
sg34
F1.0
sg7
F1.0
sg32
F1.0
sg16
F1.0
sS'6jCygPdswz'
p49
F1.0
sg33
F1.0
sg31
F1.0
sg11
F1.0
sg21
F1.0
sS'LnVZmUuwc8'
p50
F1.0
sg29
F1.0
sg6
F1.0
sg30
F1.0
sg20
F1.0
sg17
F1.0
sg15
F1.0
sS'1CI7f2R98c'
p51
F1.0
sS'4X3016rdOZ'
p52
F1.0
sS'9EAa0nJjb1'
p53
F1.0
ssS'i5Y9A05Ph8'
p54
(dp55
sS'0nF0z1401O'
p56
(dp57
sS'88Uhb8760x'
p58
(dp59
sS'qvGwtJZv09'
p60
(dp61
sS'xH487WMLoS'
p62
(dp63
sS'2IaH8665Ha'
p64
(dp65
sS'81E41tTtV9'
p66
(dp67
sg20
(dp68
g44
F1.0
sg1
F0.625
sg4
F1.0
sg5
F1.0
sg45
F1.0
sg46
F1.0
sg8
F0.75
sg47
F1.0
sg18
F1.0
sg42
F1.0
sg48
F1.0
sg28
F0.8333333333333334
sg7
F0.8
sg32
F1.0
sg16
F1.0
sg49
F1.0
sg33
F1.0
sg19
F0.9166666666666666
sg11
F1.0
sg21
F0.8571428571428571
sg50
F0.75
sS'9aw67h1Z47'
p69
F1.0
sg29
F0.8
sg14
F0.7777777777777777
sg6
F1.0
sg17
F1.0
sg51
F0.8125
sg52
F0.75
sg53
F1.0
ssg9
(dp70
g44
F1.0
sg1
F0.875
sg4
F0.7363636363636363
sg5
F0.6666666666666666
sg46
F1.0
sg31
F0.7777777777777777
sg26
F1.0
sg10
F0.75
sg18
F0.6666666666666666
sg34
F0.8333333333333334
sg7
F0.8888888888888888
sg16
F0.75
sg53
F0.8333333333333334
sg33
F1.0
sg19
F0.75
sg3
F1.0
sg11
F0.71875
sg21
F0.7878787878787877
sg50
F1.0
sg29
F0.75
sg6
F0.75
sg17
F0.7777777777777778
sg13
F0.6666666666666666
sg12
F1.0
ssg46
(dp71
g44
F0.8888888888888888
sg10
F0.6499999999999999
sg4
F0.8269230769230769
sg5
F0.7818181818181819
sg45
F0.625
sg8
F1.0
sg47
F0.6944444444444445
sg18
F0.6666666666666666
sg42
F0.8
sg48
F0.75
sg28
F0.8571428571428572
sg34
F0.8333333333333334
sg7
F0.875
sg32
F0.75
sg9
F1.0
sg16
F1.0
sg49
F0.875
sg33
F0.75
sg31
F1.0
sg3
F1.0
sg11
F0.7962962962962963
sg21
F1.0
sg50
F1.0
sS'B7l5Zfxxu6'
p72
F1.0
sg29
F0.75
sg14
F1.0
sg6
F0.7555555555555555
sg30
F0.84375
sg20
F1.0
sg17
F0.8
sg13
F0.6666666666666666
sg12
F1.0
sg52
F0.8333333333333334
sg53
F0.875
ssg33
(dp73
g44
F0.75
sg4
F0.8012820512820512
sg5
F1.0
sg45
F0.8333333333333334
sg46
F1.0
sg8
F0.8333333333333334
sg26
F0.75
sg47
F1.0
sg18
F1.0
sg42
F1.0
sg48
F1.0
sg28
F1.0
sg34
F1.0
sg7
F1.0
sg32
F0.6666666666666666
sg9
F0.8333333333333333
sg49
F0.8541666666666666
sg31
F0.7777777777777777
sg3
F0.75
sg11
F0.875
sg21
F0.75
sg50
F0.7777777777777777
sg29
F0.8666666666666666
sg14
F0.7777777777777777
sg6
F0.75
sg30
F1.0
sg20
F1.0
sg17
F1.0
sg19
F1.0
sg12
F0.75
sg15
F1.0
sg53
F0.7777777777777777
ssg41
(dp74
g39
F1.0
ssS'XqBaV46VbC'
p75
(dp76
sg21
(dp77
g44
F0.8
sg10
F0.6428571428571428
sg4
F0.730769230769231
sg5
F0.8285714285714285
sg45
F0.6785714285714286
sg46
F1.0
sg8
F0.8125
sg26
F0.65
sg1
F1.0
sg47
F0.75
sg18
F0.6938775510204083
sg42
F0.8125
sg48
F1.0
sg28
F0.8888888888888888
sg34
F0.82
sg7
F0.9090909090909091
sg32
F0.6875
sg9
F0.6629629629629631
sg16
F1.0
sg49
F0.8333333333333334
sg33
F1.0
sg31
F0.8400000000000001
sg3
F0.6249999999999999
sg11
F0.8095238095238094
sg50
F0.8
sg69
F1.0
sg72
F1.0
sg29
F0.826530612244898
sg14
F1.0
sg6
F0.7307692307692308
sg30
F0.8125
sg20
F1.0
sg17
F0.8541666666666666
sg13
F0.6666666666666666
sS'yuB6nxh3FX'
p78
F0.9
sg19
F1.0
sg12
F0.875
sg15
F0.75
sg51
F1.0
sg52
F0.9
sg53
F0.8666666666666666
ssS'46z59pQP58'
p79
(dp80
S'Qwq8d0du28'
p81
F0.7777777777777777
sg7
F1.0
sS'Uml72Q91Du'
p82
F0.75
ssS'z9svx3mA4s'
p83
(dp84
S'LM96hW22T2'
p85
F1.0
ssS'7y5NJZ7S6u'
p86
(dp87
sg12
(dp88
g10
F0.7777777777777777
sg4
F0.9
sg46
F1.0
sg31
F1.0
sg26
F1.0
sg1
F1.0
sg18
F0.6666666666666666
sg34
F1.0
sg7
F1.0
sg9
F1.0
sg49
F1.0
sg33
F1.0
sg19
F1.0
sg3
F1.0
sg11
F0.8666666666666667
sg21
F1.0
sg50
F1.0
sg29
F1.0
sg14
F1.0
sg6
F0.8888888888888888
sg30
F1.0
sg17
F1.0
sg13
F0.6666666666666666
sg15
F1.0
sg52
F1.0
ssS'rA9d62o2bb'
p89
(dp90
sS'rnOGP59582'
p91
(dp92
sS'075kbY53c1'
p93
(dp94
sS'UmsZ3gHcg7'
p95
(dp96
sS'668lBbaKFE'
p97
(dp98
g4
F0.8928571428571429
sS'LP15lX652E'
p99
F1.0
ssS'1to8tgu4IT'
p100
(dp101
sS'z1iLCTB32T'
p102
(dp103
sS'YWe8V668Uz'
p104
(dp105
sS'2J2SH6Fk63'
p106
(dp107
S'mNzo8mGzu9'
p108
F1.0
ssS'78t79xOebG'
p109
(dp110
sg10
(dp111
g44
F1.0
sg1
F1.0
sg78
F0.6
sg5
F1.0
sg45
F1.0
sg46
F1.0
sg31
F1.0
sS'K4IIshw37g'
p112
F1.0
sg47
F1.0
sg4
F1.0
sg42
F1.0
sg28
F0.8333333333333334
sg34
F1.0
sg7
F1.0
sg32
F1.0
sg9
F1.0
sg16
F1.0
sg49
F1.0
sg52
F1.0
sg19
F1.0
sg3
F1.0
sg11
F1.0
sg21
F1.0
sg50
F1.0
sg12
F1.0
sg29
F1.0
sg14
F1.0
sg6
F1.0
sg17
F1.0
sg18
F1.0
sg15
F1.0
sg53
F1.0
ssg78
(dp113
g10
F1.0
sg4
F1.0
sg5
F0.6666666666666666
sg21
F1.0
sg7
F0.7777777777777778
sg50
F1.0
sg29
F1.0
sg32
F1.0
sg18
F0.7777777777777777
sg49
F1.0
sg28
F0.7777777777777777
sg17
F1.0
ssS'bt0ZuHaCGY'
p114
(dp115
sg81
(dp116
g79
F1.0
sS'93YVE85s1x'
p117
F0.7777777777777777
sS't4K5z0e2NZ'
p118
F0.6666666666666666
sg7
F0.8333333333333334
sg82
F1.0
ssS'5VZLSGPT10'
p119
(dp120
g6
F1.0
ssS'yDO9pl8GC0'
p121
(dp122
sS'QS4cvQ8w0o'
p123
(dp124
S'Hd9GW3f95j'
p125
F1.0
ssS'Un24RpQEWg'
p126
(dp127
sS'YvD7H8XduF'
p128
(dp129
sg48
(dp130
g4
F1.0
sg5
F1.0
sg45
F1.0
sg46
F1.0
sg47
F1.0
sg42
F1.0
sg28
F1.0
sg34
F1.0
sg7
F1.0
sg49
F0.7333333333333334
sg33
F1.0
sg3
F1.0
sg11
F1.0
sg21
F0.7777777777777778
sg72
F1.0
sg6
F1.0
sg30
F0.75
sg20
F1.0
sg53
F1.0
sg13
F1.0
sg17
F1.0
sg51
F1.0
ssg34
(dp131
g44
F0.8125
sg10
F0.8
sg4
F0.79004329004329
sg5
F0.7045454545454545
sg45
F0.8333333333333334
sg46
F0.9444444444444443
sg31
F0.7777777777777777
sg26
F0.6666666666666666
sg47
F0.75
sg18
F0.6666666666666666
sg42
F0.8333333333333333
sg48
F0.75
sg28
F0.9333333333333332
sg7
F1.0
sg32
F0.75
sg9
F0.7999999999999999
sg16
F1.0
sg49
F0.8888888888888888
sg33
F1.0
sg3
F0.75
sg11
F0.7333333333333334
sg21
F0.8666666666666666
sg50
F0.75
sg29
F1.0
sg14
F1.0
sg6
F0.6444444444444445
sg30
F1.0
sg17
F0.75
sg13
F0.6666666666666666
sg12
F1.0
sg52
F0.75
sg53
F0.7777777777777777
ssS'9hs21hUG5O'
p132
(dp133
sg7
(dp134
g44
F1.0
sg10
F0.8125
sg4
F0.9272727272727272
sg5
F0.9
sg81
F0.8285714285714285
sg45
F1.0
sg46
F1.0
sg8
F1.0
sg26
F1.0
sg1
F1.0
sg47
F0.8333333333333334
sg18
F0.8333333333333334
sg42
F1.0
sg48
F1.0
sg28
F0.9047619047619048
sg34
F1.0
sg21
F1.0
sg32
F1.0
sg69
F1.0
sg9
F0.7777777777777778
sg16
F1.0
sg49
F0.9
sg33
F1.0
sg31
F1.0
sg11
F0.888888888888889
sg118
F0.85
sg50
F1.0
sg79
F1.0
sg29
F1.0
sg14
F1.0
sg6
F0.9444444444444445
sg82
F1.0
sg30
F1.0
sg20
F1.0
sg17
F1.0
sg13
F0.7222222222222222
sg78
F1.0
sg19
F1.0
sg12
F1.0
sg15
F1.0
sg51
F1.0
sS'odPTXtfS78'
p135
F1.0
sg52
F0.8333333333333334
sg53
F1.0
ssS'yf2V5ll9mN'
p136
(dp137
sS'7oiAa7MlW2'
p138
(dp139
sS'0493L6bGa9'
p140
(dp141
sS'6O31vedZbI'
p142
(dp143
sS'45TTYcotWk'
p144
(dp145
sS'WmIXxzmmD3'
p146
(dp147
sg49
(dp148
g44
F1.0
sg10
F0.8800000000000001
sg78
F0.7222222222222223
sg5
F0.8888888888888888
sg45
F1.0
sg46
F1.0
sg8
F1.0
sg47
F0.8611111111111112
sg4
F0.9047619047619048
sg42
F1.0
sg48
F1.0
sg28
F0.8333333333333334
sg34
F0.8333333333333334
sg7
F1.0
sg32
F1.0
sg16
F1.0
sg52
F0.75
sg33
F1.0
sg31
F1.0
sg3
F1.0
sg11
F0.875
sg21
F1.0
sg50
F1.0
sg12
F1.0
sg29
F1.0
sg14
F1.0
sg6
F1.0
sg30
F1.0
sg20
F1.0
sg17
F1.0
sg13
F0.625
sg19
F1.0
sg18
F0.8400000000000001
sg51
F1.0
sg53
F1.0
ssS'Fm7ESoRh9v'
p149
(dp150
sS'971l4W5kQs'
p151
(dp152
sS'0KS4yy9G96'
p153
(dp154
sg3
(dp155
g1
F1.0
sg4
F1.0
sg5
F1.0
sg45
F0.7222222222222222
sg46
F1.0
sg8
F1.0
sg26
F1.0
sg10
F0.7777777777777777
sg18
F1.0
sg48
F1.0
sg34
F1.0
sg32
F1.0
sg9
F1.0
sg49
F0.7777777777777777
sg33
F0.6666666666666666
sg31
F1.0
sg11
F1.0
sg21
F1.0
sg50
F1.0
sg12
F0.75
sg6
F1.0
sg52
F1.0
sg17
F1.0
sg72
F1.0
sS'Vc0J7iVot4'
p156
F0.75
sg53
F1.0
ssS'X4ZaxfDz3Q'
p157
(dp158
sg50
(dp159
g44
F1.0
sg10
F0.7777777777777778
sg78
F0.6
sg5
F0.8888888888888888
sg45
F1.0
sg46
F1.0
sg8
F1.0
sg47
F0.7777777777777778
sg4
F0.75
sg42
F1.0
sg28
F0.8000000000000002
sg34
F0.8333333333333333
sg7
F0.875
sg32
F0.8125
sg9
F0.6666666666666666
sg49
F0.9142857142857143
sg33
F1.0
sg31
F0.7777777777777777
sg3
F1.0
sg11
F0.8571428571428571
sg21
F0.890909090909091
sg29
F0.7
sg14
F1.0
sg6
F1.0
sg30
F1.0
sg20
F0.8333333333333333
sg17
F0.8333333333333333
sg19
F0.75
sg12
F1.0
sg18
F0.7000000000000001
sg52
F0.8333333333333334
sg53
F1.0
ssS's9O034dIc4'
p160
(dp161
sS'5yasLi1Avt'
p162
(dp163
sS'HvghFVBS5v'
p164
(dp165
sS'MPqJdqnPtc'
p166
(dp167
g53
F0.8
ssS'dN4g3pRdSO'
p168
(dp169
sg30
(dp170
g44
F1.0
sg4
F0.8484848484848485
sg5
F0.6666666666666666
sg46
F0.875
sg31
F1.0
sg26
F1.0
sg47
F0.7777777777777777
sg42
F0.8333333333333334
sg48
F0.7777777777777778
sg28
F0.8125
sg34
F1.0
sg7
F1.0
sg32
F1.0
sg16
F0.8125
sg49
F0.6875
sg33
F0.75
sg19
F0.75
sg11
F0.8125
sg21
F1.0
sg50
F0.75
sg12
F1.0
sg14
F1.0
sg6
F0.78125
sg17
F0.7777777777777777
sg29
F1.0
sg52
F1.0
sg53
F0.75
ssg17
(dp171
g44
F1.0
sg10
F1.0
sg4
F1.0
sg5
F1.0
sg45
F1.0
sg46
F1.0
sg31
F1.0
sg26
F1.0
sg1
F1.0
sg47
F1.0
sg18
F1.0
sg42
F1.0
sg48
F1.0
sg28
F1.0
sg34
F1.0
sg7
F1.0
sg32
F1.0
sg9
F1.0
sg16
F1.0
sg49
F1.0
sg33
F1.0
sg19
F1.0
sg3
F1.0
sg11
F1.0
sg21
F1.0
sg50
F1.0
sg72
F1.0
sg29
F1.0
sg14
F1.0
sg6
F1.0
sg30
F1.0
sg20
F1.0
sg53
F1.0
sg13
F1.0
sg78
F1.0
sg12
F1.0
sg15
F1.0
sg51
F1.0
ssg13
(dp172
g44
F1.0
sg1
F1.0
sg4
F1.0
sg5
F1.0
sg21
F1.0
sg7
F1.0
sg46
F1.0
sg9
F1.0
sg47
F1.0
sg12
F1.0
sg11
F1.0
sg6
F1.0
sg48
F1.0
sg49
F1.0
sg28
F1.0
sg34
F1.0
sg17
F1.0
ssS'USdRVl9AOe'
p173
(dp174
sS'4pzSijxuK6'
p175
(dp176
sS'R440Y09vu3'
p177
(dp178
sg51
(dp179
g44
F0.75
sg4
F0.6666666666666666
sg5
F0.75
sg21
F0.7777777777777778
sg7
F0.75
sg45
F1.0
sg11
F0.8333333333333333
sg29
F1.0
sg47
F0.6666666666666666
sg18
F0.75
sg42
F0.75
sg48
F0.6666666666666666
sg53
F0.75
sg49
F0.625
sg28
F0.75
sg8
F1.0
sg20
F0.6875
sg17
F0.6666666666666666
ssg14
(dp180
g44
F1.0
sg1
F1.0
sg4
F0.8857142857142858
sg5
F1.0
sg46
F1.0
sg31
F0.875
sg112
F0.6666666666666666
sg10
F0.8
sg47
F1.0
sS'ljX78ko847'
p181
F1.0
sg18
F0.7916666666666666
sg28
F0.7777777777777778
sg34
F1.0
sg7
F0.7777777777777777
sg16
F1.0
sg49
F0.6666666666666666
sg33
F0.7777777777777777
sg19
F0.75
sg11
F1.0
sg21
F0.7777777777777777
sg50
F1.0
sg29
F0.75
sg30
F1.0
sg20
F0.8333333333333334
sg17
F0.8333333333333334
sg12
F0.75
sg53
F1.0
ssg44
(dp182
g10
F0.8
sg4
F0.875
sg5
F0.9027777777777778
sg45
F1.0
sg46
F1.0
sg31
F1.0
sg47
F0.8571428571428572
sg18
F0.8333333333333334
sg42
F1.0
sg28
F0.875
sg34
F0.875
sg7
F1.0
sg32
F1.0
sg9
F0.75
sg16
F1.0
sg49
F0.875
sg33
F1.0
sg11
F0.8333333333333333
sg21
F1.0
sg50
F1.0
sg29
F1.0
sg14
F1.0
sg6
F1.0
sg30
F1.0
sg20
F1.0
sg17
F1.0
sg13
F0.625
sg51
F1.0
sg52
F0.75
sg53
F1.0
ssg4
(dp183
g44
F0.8611111111111112
sg10
F0.7
sg78
F0.8333333333333334
sg5
F0.7740740740740741
sg45
F0.8214285714285714
sg46
F1.0
sg8
F0.75
sg26
F0.7000000000000001
sg1
F0.7777777777777778
sg47
F0.890625
sg18
F0.7142857142857143
sg42
F0.8571428571428572
sg48
F1.0
sg28
F0.8409090909090909
sg34
F0.8503401360544218
sg7
F0.8111888111888113
sg32
F0.8571428571428571
sg9
F0.75
sg16
F1.0
sg49
F0.9285714285714286
sg33
F0.9166666666666666
sg31
F0.8611111111111112
sg3
F0.8285714285714285
sg11
F0.8283333333333334
sg21
F0.8393939393939394
sg50
F0.8611111111111112
sg69
F1.0
sg72
F1.0
sg29
F1.0
sg14
F0.76
sg6
F0.7645502645502646
sg30
F1.0
sg20
F1.0
sg17
F0.8730158730158729
sg13
F0.6071428571428571
sg97
F0.8775510204081634
sg19
F1.0
sg12
F0.8571428571428571
sg99
F0.8
sg15
F1.0
sg51
F1.0
sg52
F0.9
sg53
F0.8611111111111112
ssg5
(dp184
g44
F0.75
sg10
F0.8333333333333333
sg4
F0.8888888888888888
sg45
F0.75
sg46
F1.0
sg8
F0.7777777777777777
sg26
F0.75
sg1
F0.5333333333333333
sg47
F0.9027777777777778
sg18
F0.7857142857142857
sg42
F0.8333333333333333
sg48
F1.0
sg28
F1.0
sg34
F1.0
sg7
F0.8400000000000001
sg32
F0.75
sg9
F0.8333333333333334
sg16
F1.0
sg49
F1.0
sg33
F0.9
sg31
F0.75
sg3
F0.625
sg11
F0.8148148148148148
sg21
F0.783882783882784
sg50
F0.8125
sg69
F1.0
sg29
F1.0
sg14
F0.6875
sg6
F0.825
sg30
F1.0
sg20
F1.0
sg17
F1.0
sg13
F0.7333333333333334
sg78
F1.0
sg19
F1.0
sg15
F1.0
sg51
F1.0
sg52
F0.7916666666666666
sg53
F0.8571428571428571
ssS'tyU2s0MBzm'
p185
(dp186
sg45
(dp187
g44
F0.7777777777777778
sg10
F1.0
sg4
F0.825
sg5
F0.8333333333333333
sg46
F1.0
sg8
F1.0
sg47
F0.7777777777777777
sg18
F1.0
sg42
F0.8125
sg48
F0.6666666666666666
sg28
F0.6666666666666666
sg34
F1.0
sg7
F0.75
sg32
F1.0
sg16
F1.0
sg49
F0.8666666666666667
sg33
F0.75
sg31
F1.0
sg3
F1.0
sg11
F0.8214285714285714
sg21
F1.0
sg50
F1.0
sg29
F1.0
sg6
F1.0
sg20
F0.75
sg17
F0.6666666666666666
sg156
F1.0
sg51
F1.0
sg52
F1.0
sg53
F1.0
ssS'9493h91NUB'
p188
(dp189
S'6A16l70g5Q'
p190
F1.0
ssS'8o0mJnIpFH'
p191
(dp192
sg31
(dp193
g44
F1.0
sg10
F0.6666666666666666
sg4
F1.0
sg5
F1.0
sg45
F0.6666666666666666
sg46
F1.0
sg8
F1.0
sg26
F1.0
sg47
F1.0
sg18
F1.0
sg42
F1.0
sg28
F1.0
sg34
F1.0
sg7
F1.0
sg32
F1.0
sg9
F1.0
sg16
F1.0
sg49
F0.7916666666666667
sg33
F0.75
sg19
F0.75
sg3
F1.0
sg11
F1.0
sg21
F1.0
sg50
F1.0
sg29
F1.0
sg14
F1.0
sg6
F1.0
sg30
F1.0
sg17
F1.0
sg12
F0.75
sg53
F1.0
ssg82
(dp194
g79
F1.0
sg81
F0.7777777777777777
sg7
F1.0
ssg112
(dp195
g10
F1.0
sg14
F1.0
sg19
F1.0
ssS'l1L9ZwV1KO'
p196
(dp197
sg47
(dp198
g44
F1.0
sg10
F1.0
sg4
F1.0
sg5
F1.0
sg45
F1.0
sg46
F1.0
sg8
F1.0
sg18
F1.0
sg42
F1.0
sg48
F1.0
sg28
F1.0
sg34
F1.0
sg7
F1.0
sg32
F1.0
sg16
F1.0
sg49
F1.0
sg33
F1.0
sg31
F1.0
sg11
F1.0
sg21
F1.0
sg50
F1.0
sg69
F1.0
sg29
F1.0
sg14
F1.0
sg6
F1.0
sg30
F1.0
sg20
F1.0
sg17
F1.0
sg13
F1.0
sg51
F1.0
sg52
F1.0
sg53
F1.0
ssS'80nlN05JQ6'
p199
(dp200
sS'stK4H8Vit6'
p201
(dp202
sS'ey9rvMnU57'
p203
(dp204
sS'5LMy832c47'
p205
(dp206
sS'eZRzEYP9oJ'
p207
(dp208
sg28
(dp209
g44
F1.0
sg10
F1.0
sg78
F0.7777777777777777
sg5
F0.8484848484848485
sg45
F1.0
sg46
F0.875
sg8
F1.0
sg26
F1.0
sg47
F0.8400000000000001
sg4
F0.8828125
sg42
F0.8333333333333334
sg48
F0.75
sg34
F0.8333333333333334
sg7
F1.0
sg32
F1.0
sg16
F1.0
sg49
F0.8666666666666667
sg33
F0.75
sg31
F1.0
sg11
F0.8701298701298701
sg21
F1.0
sg50
F0.7777777777777777
sg69
F1.0
sg29
F1.0
sg14
F1.0
sg6
F0.7916666666666666
sg30
F0.875
sg20
F1.0
sg17
F0.8285714285714285
sg13
F1.0
sg19
F0.75
sg18
F1.0
sg51
F1.0
sg52
F1.0
sg53
F0.7777777777777777
ssS'XNEgfvXx50'
p210
(dp211
sS'k4gaj1r2bT'
p212
(dp213
sS'12ws2Vy47j'
p214
(dp215
sS'hwF4tyWU50'
p216
(dp217
sS'Si4v9635O3'
p218
(dp219
sS'66Ak255E3j'
p220
(dp221
sg53
(dp222
g44
F1.0
sg10
F0.75
sg4
F0.8888888888888888
sg5
F0.85
sg45
F1.0
sg46
F1.0
sg8
F1.0
sg47
F0.8400000000000001
sg18
F0.8400000000000001
sg42
F1.0
sg48
F1.0
sg28
F0.8333333333333334
sg34
F0.7777777777777777
sg7
F1.0
sg9
F0.7777777777777777
sg16
F1.0
sg49
F1.0
sg33
F1.0
sg31
F1.0
sg3
F1.0
sg11
F0.8833333333333333
sg21
F1.0
sg50
F1.0
sg14
F1.0
sg6
F0.9166666666666666
sg166
F1.0
sg30
F1.0
sg20
F1.0
sg17
F1.0
sg19
F1.0
sg51
F1.0
sg52
F1.0
ssg19
(dp223
g1
F1.0
sg4
F1.0
sg5
F1.0
sg31
F1.0
sg112
F1.0
sg10
F1.0
sg18
F1.0
sg28
F1.0
sg7
F1.0
sg9
F1.0
sg49
F1.0
sg33
F1.0
sg11
F1.0
sg21
F1.0
sg50
F0.7777777777777777
sg29
F0.85
sg14
F0.7777777777777777
sg6
F1.0
sg30
F1.0
sg20
F1.0
sg53
F1.0
sg17
F1.0
sg12
F0.7777777777777777
ssg118
(dp224
g135
F1.0
sg81
F1.0
sg7
F1.0
ssS'txnqGG764s'
p225
(dp226
sg69
(dp227
g4
F1.0
sg5
F1.0
sg21
F1.0
sg7
F0.75
sg28
F1.0
sg47
F0.8333333333333333
sg11
F1.0
sg18
F0.8333333333333333
sg20
F1.0
sg52
F1.0
ssS'b4NIYojEYn'
p228
(dp229
sS'3k85qY4Y2B'
p230
(dp231
sS'52vEY7f17k'
p232
(dp233
sS'9FFmzviIHD'
p234
(dp235
sg6
(dp236
g44
F1.0
sg1
F1.0
sg4
F0.9259259259259258
sg5
F0.9
sg45
F1.0
sg46
F1.0
sg31
F1.0
sg26
F1.0
sg10
F0.8125
sg47
F0.7777777777777778
sg18
F0.8400000000000001
sg42
F1.0
sg48
F1.0
sg28
F0.875
sg34
F0.8666666666666666
sg7
F1.0
sg32
F1.0
sg9
F0.8333333333333333
sg16
F1.0
sg49
F1.0
sg33
F1.0
sg19
F1.0
sg3
F1.0
sg11
F0.8833333333333333
sg21
F1.0
sg50
F1.0
sg119
F0.8333333333333333
sg29
F1.0
sg52
F0.8333333333333334
sg30
F1.0
sg20
F1.0
sg17
F1.0
sg13
F0.6666666666666666
sg12
F1.0
sg53
F1.0
ssS'45euP7C062'
p237
(dp238
sS'ySs2g6X4Jx'
p239
(dp240
sg108
(dp241
g106
F1.0
ssS'QDsPNlZ5i1'
p242
(dp243
sS'g209g5Vve6'
p244
(dp245
sS'P5t2zh16z0'
p246
(dp247
sS'448d2Kv3hw'
p248
(dp249
sS'Kt1mv62gCP'
p250
(dp251
sS'CZDz8OSRfI'
p252
(dp253
sS'jw3jOU9C8I'
p254
(dp255
sg156
(dp256
g3
F1.0
sg45
F1.0
ssS'0BrbPbwCMz'
p257
(dp258
sS'c3Ee3W8hyq'
p259
(dp260
sS'8gH5u019ZH'
p261
(dp262
sS'Ru21xRreim'
p263
(dp264
sg8
(dp265
g1
F1.0
sg4
F1.0
sg5
F1.0
sg21
F1.0
sg7
F1.0
sg50
F1.0
sg53
F1.0
sg46
F1.0
sg31
F1.0
sg45
F1.0
sg3
F1.0
sg11
F1.0
sg47
F1.0
sg18
F0.7777777777777778
sg42
F1.0
sg28
F1.0
sg51
F1.0
sg49
F0.75
sg33
F0.8333333333333334
sg20
F1.0
sg52
F1.0
ssS'tlJn3I40bf'
p266
(dp267
sS'bcoY3s64sj'
p268
(dp269
sg181
(dp270
g18
F1.0
sg14
F1.0
ssg18
(dp271
g44
F1.0
sg1
F1.0
sg78
F1.0
sg5
F1.0
sg45
F1.0
sg46
F1.0
sg8
F1.0
sg26
F1.0
sg10
F1.0
sg47
F1.0
sg181
F0.75
sg4
F1.0
sg42
F1.0
sg28
F1.0
sg34
F1.0
sg7
F1.0
sg32
F1.0
sg9
F1.0
sg16
F1.0
sg49
F1.0
sg33
F0.7777777777777777
sg31
F1.0
sg3
F1.0
sg11
F1.0
sg21
F1.0
sg50
F0.8400000000000001
sg69
F1.0
sg29
F0.85
sg14
F0.8125
sg6
F1.0
sg20
F1.0
sg17
F1.0
sg19
F1.0
sg12
F0.75
sg51
F1.0
sg52
F0.7916666666666667
sg53
F1.0
ssS'c7A4cZK28M'
p272
(dp273
sS'QUcO70Q91P'
p274
(dp275
sS'uz40H610bF'
p276
(dp277
sg85
(dp278
g83
F0.5833333333333334
ssS'39Uc7ru04l'
p279
(dp280
sS'1k3GIfwBw6'
p281
(dp282
sS'1kKxS8urAH'
p283
(dp284
sS'41qrfb88lU'
p285
(dp286
sS'DS5ecUMGJi'
p287
(dp288
sS'EV28POlwE4'
p289
(dp290
sg32
(dp291
g44
F0.7777777777777778
sg10
F1.0
sg4
F0.8690476190476191
sg5
F0.75
sg45
F1.0
sg46
F1.0
sg31
F1.0
sg26
F1.0
sg47
F0.75
sg18
F1.0
sg42
F0.75
sg28
F0.875
sg34
F1.0
sg7
F0.8
sg16
F1.0
sg49
F0.888888888888889
sg33
F0.6666666666666666
sg3
F1.0
sg11
F0.7999999999999999
sg21
F1.0
sg50
F1.0
sg29
F1.0
sg6
F1.0
sg30
F1.0
sg20
F0.8
sg17
F0.6666666666666666
sg78
F0.7222222222222223
sg52
F1.0
ssg16
(dp292
g44
F0.7777777777777777
sg1
F1.0
sg4
F0.8333333333333334
sg5
F0.8333333333333333
sg45
F0.6666666666666666
sg46
F1.0
sg31
F1.0
sg26
F1.0
sg10
F0.75
sg47
F0.8125
sg18
F0.8125
sg42
F0.75
sg28
F1.0
sg34
F0.7777777777777777
sg7
F0.75
sg32
F0.75
sg9
F1.0
sg49
F0.7777777777777777
sg52
F1.0
sg11
F1.0
sg21
F1.0
sg29
F0.8125
sg14
F1.0
sg6
F0.8055555555555556
sg30
F0.8125
sg20
F1.0
sg17
F1.0
sg53
F1.0
ssg190
(dp293
g188
F0.75
ssS'PE6x6PxZ42'
p294
(dp295
sS'9QD9297moO'
p296
(dp297
sg125
(dp298
g123
F1.0
ssg11
(dp299
g44
F1.0
sg1
F1.0
sg4
F0.925
sg5
F0.8968253968253967
sg45
F1.0
sg46
F1.0
sg8
F1.0
sg26
F0.8
sg10
F1.0
sg47
F1.0
sg18
F0.8400000000000001
sg42
F1.0
sg48
F1.0
sg28
F0.8714285714285713
sg34
F1.0
sg7
F0.8571428571428572
sg32
F1.0
sg9
F1.0
sg16
F1.0
sg49
F1.0
sg33
F1.0
sg31
F1.0
sg3
F1.0
sg21
F1.0
sg50
F1.0
sg69
F1.0
sg72
F1.0
sg29
F1.0
sg14
F1.0
sg6
F1.0
sg30
F1.0
sg20
F1.0
sg17
F1.0
sg13
F1.0
sg19
F1.0
sg12
F1.0
sg51
F1.0
sg52
F1.0
sg53
F1.0
ssS'12M70dm49w'
p300
(dp301
sS'56dTCKdr74'
p302
(dp303
sS'y8BlGe62E7'
p304
(dp305
sS'rE6U5574qn'
p306
(dp307
sS'11fnXrq9Jf'
p308
(dp309
sS'7rP4RofmNF'
p310
(dp311
sS'GBwY1iQUSw'
p312
(dp313
sS'yB480DNZ70'
p314
(dp315
sg29
(dp316
g44
F0.7777777777777777
sg10
F1.0
sg78
F1.0
sg5
F0.8333333333333334
sg45
F1.0
sg46
F1.0
sg31
F1.0
sg26
F0.75
sg47
F0.7777777777777778
sg4
F0.7983193277310924
sg42
F0.75
sg28
F0.72
sg34
F1.0
sg7
F0.7678571428571429
sg32
F1.0
sg9
F0.6666666666666666
sg16
F1.0
sg49
F0.8095238095238094
sg33
F0.64
sg19
F0.8
sg11
F0.6666666666666667
sg21
F0.8186813186813187
sg50
F1.0
sg12
F0.8333333333333333
sg14
F1.0
sg6
F1.0
sg30
F1.0
sg20
F0.7333333333333333
sg17
F0.5833333333333334
sg18
F1.0
sg15
F1.0
sg51
F1.0
sg52
F1.0
ssS'3008m5T78s'
p317
(dp318
sg117
(dp319
g81
F1.0
ssS'EWHJMBPf94'
p320
(dp321
sg52
(dp322
g44
F0.75
sg10
F0.75
sg4
F0.8333333333333333
sg5
F0.75
sg45
F0.7333333333333334
sg46
F0.8333333333333334
sg8
F1.0
sg47
F0.6666666666666666
sg18
F0.65
sg42
F0.7777777777777777
sg28
F0.8333333333333334
sg34
F0.75
sg7
F0.75
sg32
F0.75
sg16
F1.0
sg49
F0.75
sg3
F1.0
sg11
F0.8666666666666667
sg21
F0.8666666666666668
sg50
F0.7777777777777778
sg69
F1.0
sg29
F0.75
sg6
F0.7777777777777778
sg30
F0.75
sg20
F1.0
sg53
F1.0
sg12
F1.0
ssS'jXc985G8qy'
p323
(dp324
sS'9Ydzn1ubPe'
p325
(dp326
sS'b4WRCgbjkN'
p327
(dp328
sS'h9Tx9ulI5Q'
p329
(dp330
sS'694Y3fju01'
p331
(dp332
sg72
(dp333
g3
F1.0
sg4
F1.0
sg21
F1.0
sg46
F1.0
sg11
F1.0
sg48
F1.0
sg17
F1.0
ssg99
(dp334
g97
F0.8125
sg4
F0.875
ssg15
(dp335
g1
F0.75
sg4
F0.875
sg5
F0.75
sg21
F0.6666666666666666
sg7
F0.8333333333333333
sg10
F0.75
sg12
F0.75
sg29
F1.0
sg42
F0.75
sg33
F0.75
sg17
F0.75
ssg135
(dp336
g118
F1.0
sg7
F1.0
ss.