(dp0
S'Ugr5eIIEf0'
p1
(dp2
S'QER9PsCgBT'
p3
F1.0
sS'dvG32rxRzQ'
p4
F1.0
sS'XL0eQIoG72'
p5
F1.0
sS'tyU2s0MBzm'
p6
F1.0
sS'Qwq8d0du28'
p7
F1.0
sS'02i5jCrfQK'
p8
F1.0
sS'879eYkR2Wu'
p9
F1.0
sS'i8f2gg51r5'
p10
F1.0
sS'8rsfNQdio8'
p11
F1.0
sS'PE6x6PxZ42'
p12
F1.0
sS'6Ax4SKe470'
p13
F1.0
sS'l5eh0S53tB'
p14
F1.0
sS'XNEgfvXx50'
p15
F1.0
ssS'b2W4ZO3uLV'
p16
(dp17
g3
F1.0
sg12
F0.75
sg6
F0.8125
sg8
F1.0
sS'C18qWKq212'
p18
F0.7777777777777777
sg11
F1.0
sS'6jCygPdswz'
p19
F1.0
ssg6
(dp20
g3
F1.0
sg1
F1.0
sg16
F1.0
sg14
F1.0
sS'y5009rpZ12'
p21
F1.0
sg8
F1.0
sg18
F1.0
sS'5ey2xUDZTA'
p22
F1.0
sS'2oNLCndtam'
p23
F1.0
sg4
F1.0
sg9
F1.0
sS'PpTLi2Qz8E'
p24
F1.0
sg12
F1.0
sg7
F1.0
sg10
F1.0
sg11
F1.0
sg5
F1.0
sg19
F1.0
sS'IQ98biy227'
p25
F1.0
sg13
F1.0
ssg7
(dp26
g3
F0.7777777777777778
sS'iyLqACAFyl'
p27
F0.8125
sg5
F1.0
sg6
F0.8
sg21
F0.7777777777777777
sg8
F1.0
sg23
F1.0
sg4
F1.0
sg1
F1.0
sg12
F1.0
sg10
F1.0
sg11
F1.0
sg19
F0.875
sg13
F1.0
sg14
F0.8333333333333333
ssg8
(dp28
g1
F0.8125
sg16
F0.7777777777777777
sg6
F1.0
sg7
F1.0
sg18
F1.0
sg23
F1.0
sg4
F0.8214285714285714
sg11
F1.0
sg5
F0.7916666666666666
sg19
F0.8666666666666667
sg25
F0.75
sg14
F1.0
sg15
F1.0
ssg23
(dp29
g4
F0.75
sg5
F0.8333333333333334
sg6
F1.0
sg7
F1.0
sg8
F1.0
sg18
F1.0
sg14
F1.0
ssg4
(dp30
g3
F1.0
sg1
F1.0
sg5
F1.0
sg6
F1.0
sg21
F1.0
sg8
F1.0
sg18
F1.0
sg22
F1.0
sg23
F1.0
sg7
F1.0
sg9
F1.0
sg27
F1.0
sg12
F1.0
sg10
F1.0
sg11
F1.0
sg19
F1.0
sg25
F1.0
sg13
F1.0
sg14
F1.0
sg15
F1.0
ssg5
(dp31
g3
F1.0
sg1
F0.75
sg6
F0.8333333333333334
sg21
F1.0
sg8
F0.8333333333333333
sg18
F0.8125
sg22
F0.75
sg23
F0.7777777777777777
sg7
F0.7777777777777777
sg9
F1.0
sg4
F0.7792207792207791
sg10
F0.8285714285714285
sg11
F1.0
sg19
F1.0
sg25
F1.0
sg13
F1.0
sg14
F1.0
ssg25
(dp32
g4
F0.7916666666666667
sg5
F0.7916666666666667
sg6
F1.0
sg21
F1.0
sg8
F1.0
sg18
F0.75
sg22
F0.6666666666666666
sg9
F1.0
sg12
F1.0
sg10
F0.7777777777777778
sg11
F1.0
sg19
F0.8222222222222222
sg13
F1.0
sg14
F1.0
sg15
F0.8
ssg13
(dp33
g3
F1.0
sg27
F1.0
sg5
F0.85
sg6
F0.8333333333333334
sg21
F1.0
sg18
F0.7777777777777777
sg7
F0.7777777777777777
sg4
F0.7428571428571429
sg9
F1.0
sg1
F0.7777777777777777
sg10
F0.65
sg11
F1.0
sg19
F0.7777777777777778
sg25
F1.0
sg12
F1.0
sg14
F1.0
sg15
F0.75
ssg15
(dp34
g3
F0.75
sg1
F1.0
sg14
F1.0
sg21
F1.0
sg8
F1.0
sg9
F1.0
sg4
F1.0
sg11
F0.8125
sg19
F1.0
sg25
F1.0
sg13
F1.0
ssg21
(dp35
g3
F1.0
sg27
F1.0
sg5
F1.0
sg6
F1.0
sg12
F1.0
sg18
F1.0
sg22
F1.0
sg7
F1.0
sg9
F1.0
sg4
F1.0
sg10
F1.0
sg11
F1.0
sg19
F1.0
sg25
F1.0
sg13
F1.0
sg14
F1.0
sg15
F1.0
ssg18
(dp36
g4
F1.0
sg16
F1.0
sg6
F1.0
sg21
F1.0
sg8
F1.0
sg22
F1.0
sg23
F1.0
sg12
F1.0
sg10
F1.0
sg5
F1.0
sg19
F1.0
sg25
F1.0
sg13
F1.0
sg14
F1.0
ssg19
(dp37
g3
F1.0
sg27
F1.0
sg16
F1.0
sg6
F1.0
sg21
F1.0
sg8
F1.0
sg18
F1.0
sg7
F1.0
sg4
F1.0
sg10
F1.0
sg11
F1.0
sg5
F1.0
sg25
F1.0
sg13
F1.0
sg14
F1.0
sg15
F1.0
ssg12
(dp38
g1
F1.0
sg16
F0.75
sg6
F0.7777777777777778
sg21
F1.0
sg18
F1.0
sg7
F1.0
sg9
F0.75
sg4
F0.75
sg10
F1.0
sg11
F0.7777777777777778
sg25
F0.7777777777777777
sg13
F0.75
sg14
F0.8666666666666667
ssg3
(dp39
g1
F1.0
sg16
F1.0
sg6
F1.0
sg21
F1.0
sg22
F1.0
sg4
F1.0
sg9
F1.0
sg27
F1.0
sg7
F1.0
sg10
F1.0
sg11
F1.0
sg5
F1.0
sg19
F1.0
sg13
F1.0
sg14
F1.0
sg15
F1.0
ssg27
(dp40
g3
F1.0
sg4
F0.8333333333333333
sg14
F0.6666666666666666
sg21
F1.0
sg7
F0.8
sg11
F0.7777777777777777
sg19
F1.0
sg13
F1.0
ssg14
(dp41
g3
F0.75
sg27
F1.0
sg5
F0.875
sg6
F0.7666666666666666
sg21
F0.8571428571428571
sg8
F0.6666666666666666
sg18
F0.7777777777777778
sg7
F0.65
sg23
F0.75
sg4
F0.8214285714285714
sg9
F0.8611111111111112
sg24
F0.6666666666666666
sg1
F0.75
sg12
F1.0
sg10
F0.7142857142857142
sg11
F0.72
sg19
F0.7916666666666666
sg25
F1.0
sg13
F0.875
sg15
F0.75
ssg22
(dp42
g3
F0.75
sg4
F1.0
sg5
F1.0
sg6
F0.8
sg21
F0.75
sg18
F1.0
sg9
F1.0
sg25
F0.75
ssg10
(dp43
g3
F1.0
sg1
F1.0
sg5
F1.0
sg6
F1.0
sg21
F1.0
sg18
F1.0
sg7
F1.0
sg4
F1.0
sg9
F1.0
sg24
F1.0
sg12
F1.0
sg11
F1.0
sg19
F1.0
sg25
F1.0
sg13
F1.0
sg14
F1.0
ssg24
(dp44
g6
F0.6666666666666666
sg10
F0.75
sg14
F0.75
ssg9
(dp45
g3
F0.75
sg1
F1.0
sg5
F0.75
sg6
F0.75
sg21
F0.75
sg22
F0.7777777777777777
sg4
F1.0
sg10
F0.8333333333333333
sg11
F0.8125
sg12
F1.0
sg25
F1.0
sg13
F0.7777777777777777
sg14
F0.8333333333333334
sg15
F1.0
ssg11
(dp46
g3
F0.8400000000000001
sg1
F1.0
sg16
F1.0
sg6
F0.8125
sg21
F0.75
sg8
F1.0
sg7
F1.0
sg4
F1.0
sg9
F1.0
sg27
F0.7777777777777777
sg12
F1.0
sg10
F1.0
sg5
F1.0
sg19
F0.875
sg25
F0.75
sg13
F1.0
sg14
F0.8444444444444444
sg15
F0.8125
ss.