(lp0
F0.9173553719008264
aF0.9173553719008264
aF1.0
aF1.0
aF0.9545454545454546
aF1.0
aF1.0
aF1.0
aF1.0
aF1.0
aF1.0
aF1.0
aF1.0
aF0.9393939393939393
aF1.0
aF1.0
aF1.0
aF1.0
aF1.0
aF1.0
aF0.9393939393939393
aF1.0
aF1.0
aF1.0
aF1.0
aF1.0
aF1.0
aF1.0
aF1.0
aF1.0
aF1.0
aF1.0
aF1.0
aF1.0
aF1.0
aF1.0
aF1.0
aF1.0
aF1.0
aF1.0
aF1.0
aF1.0
aF1.0
aF1.0
aF1.0
aF1.0
aF0.9173553719008264
aF1.0
aF1.0
aF1.0
aF1.0
aF1.0
aF1.0
aF1.0
aF1.0
aF1.0
aF0.9173553719008264
aF1.0
aF1.0
aF0.9173553719008264
aF0.9545454545454546
aF0.9173553719008264
aF0.9173553719008264
aF0.9173553719008264
aF0.9545454545454546
aF1.0
aF0.9173553719008264
aF0.9173553719008264
aF1.0
aF1.0
aF1.0
aF0.9173553719008264
aF1.0
aF1.0
aF1.0
aF1.0
aF1.0
aF0.9173553719008264
aF1.0
aF1.0
aF1.0
aF1.0
aF1.0
aF1.0
aF1.0
aF1.0
aF1.0
aF1.0
aF1.0
aF1.0
aF1.0
aF0.9173553719008264
aF1.0
aF1.0
aF1.0
aF0.9545454545454546
aF1.0
aF1.0
aF1.0
aF1.0
aF1.0
aF1.0
aF1.0
aF1.0
aF1.0
aF1.0
aF1.0
aF1.0
aF1.0
aF1.0
aF1.0
aF1.0
aF1.0
aF1.0
aF0.9173553719008264
aF1.0
aF1.0
aF1.0
aF1.0
aF1.0
aF1.0
aF1.0
aF0.9545454545454546
aF1.0
aF0.9545454545454546
aF1.0
aF1.0
aF1.0
aF1.0
aF1.0
aF1.0
aF1.0
aF1.0
aF1.0
aF1.0
aF1.0
aF1.0
aF1.0
aF0.9173553719008264
aF0.9545454545454546
aF1.0
aF1.0
aF1.0
aF1.0
aF1.0
aF1.0
aF0.9173553719008264
aF1.0
aF1.0
aF1.0
aF1.0
aF1.0
aF1.0
aF1.0
aF1.0
aF1.0
aF1.0
aF1.0
aF1.0
aF1.0
aF1.0
aF1.0
aF1.0
aF1.0
aF1.0
aF1.0
aF1.0
aF0.9393939393939393
aF1.0
aF1.0
aF1.0
aF1.0
aF1.0
aF1.0
aF0.9173553719008264
aF1.0
aF1.0
aF1.0
aF1.0
aF1.0
aF1.0
aF0.9545454545454546
aF1.0
aF1.0
aF1.0
aF1.0
aF1.0
aF1.0
aF1.0
aF1.0
aF0.9204545454545454
aF1.0
aF1.0
aF1.0
aF1.0
aF1.0
aF1.0
aF1.0
aF1.0
aF1.0
aF1.0
aF0.9545454545454546
aF0.9173553719008264
aF0.9173553719008264
aF0.9181818181818181
aF0.9242424242424243
aF0.9173553719008264
aF0.9173553719008264
aF0.9173553719008264
aF0.9173553719008264
aF0.9173553719008264
aF0.9173553719008264
aF0.9173553719008264
aF0.9173553719008264
aF0.9173553719008264
aF0.9173553719008264
aF0.9173553719008264
aF1.0
aF0.9173553719008264
aF0.9173553719008264
aF0.9173553719008264
aF0.9173553719008264
aF0.9173553719008264
aF0.9173553719008264
aF1.0
aF1.0
aF1.0
aF1.0
aF1.0
aF0.9545454545454546
aF1.0
aF0.9173553719008264
aF0.9545454545454546
aF0.9173553719008264
aF0.9545454545454546
aF0.9173553719008264
aF1.0
aF1.0
aF1.0
aF1.0
aF0.9545454545454546
aF0.9545454545454546
aF1.0
aF0.9545454545454546
aF0.9545454545454546
aF1.0
aF0.9173553719008264
aF0.9545454545454546
aF1.0
aF1.0
aF0.9545454545454546
aF0.9545454545454546
aF1.0
aF0.9545454545454546
aF0.9204545454545454
aF0.9173553719008264
aF1.0
aF1.0
aF0.9545454545454546
aF0.9545454545454546
aF1.0
aF0.9272727272727272
aF0.9204545454545454
aF1.0
aF1.0
aF0.9545454545454546
aF0.9204545454545454
aF0.9181818181818181
aF1.0
aF1.0
aF0.9173553719008264
aF1.0
aF1.0
aF0.9173553719008264
aF1.0
aF0.9173553719008264
aF1.0
aF0.9173553719008264
aF1.0
aF0.9173553719008264
aF1.0
aF1.0
aF1.0
aF1.0
aF1.0
aF0.9545454545454546
aF0.9173553719008264
aF0.9173553719008264
aF0.9173553719008264
aF0.9173553719008264
aF1.0
aF1.0
aF0.9545454545454546
aF0.9545454545454546
aF1.0
aF1.0
aF1.0
aF0.9173553719008264
aF0.9173553719008264
aF1.0
aF1.0
aF1.0
aF0.9173553719008264
aF1.0
aF0.9181818181818181
aF1.0
aF0.9545454545454546
aF1.0
aF1.0
aF1.0
aF0.9173553719008264
aF0.9173553719008264
aF0.9173553719008264
aF0.9173553719008264
aF1.0
aF0.9173553719008264
aF0.9173553719008264
aF0.9545454545454546
aF1.0
aF1.0
aF0.9545454545454546
aF0.9173553719008264
aF1.0
aF0.9545454545454546
aF1.0
aF1.0
aF0.9173553719008264
aF1.0
aF1.0
aF0.9204545454545454
aF0.9173553719008264
aF0.9545454545454546
aF1.0
aF0.9173553719008264
aF0.9173553719008264
aF0.9173553719008264
aF1.0
aF0.9173553719008264
aF0.9173553719008264
aF0.9173553719008264
aF0.9173553719008264
aF0.9173553719008264
aF0.9173553719008264
aF1.0
aF0.9545454545454546
aF1.0
aF1.0
aF1.0
aF1.0
aF1.0
aF0.9173553719008264
aF1.0
aF0.922077922077922
aF0.9173553719008264
aF1.0
aF0.9545454545454546
aF0.9545454545454546
aF1.0
aF0.9318181818181818
aF1.0
aF0.9173553719008264
aF0.9173553719008264
aF0.9545454545454546
aF1.0
aF1.0
aF0.9173553719008264
aF1.0
aF1.0
aF1.0
aF1.0
aF0.9173553719008264
aF0.9545454545454546
aF0.9545454545454546
aF0.9173553719008264
aF0.9393939393939393
aF1.0
aF0.9545454545454546
aF0.9173553719008264
aF0.9173553719008264
aF1.0
aF1.0
aF0.9545454545454546
aF0.9545454545454546
aF1.0
aF0.9191919191919191
aF1.0
aF0.9173553719008264
aF0.9393939393939393
aF0.9173553719008264
aF1.0
aF0.9173553719008264
aF0.9173553719008264
aF0.9173553719008264
aF0.9173553719008264
aF0.9173553719008264
aF1.0
aF0.9173553719008264
aF1.0
aF0.9173553719008264
aF0.9173553719008264
aF0.9173553719008264
aF0.9173553719008264
aF0.9204545454545454
aF1.0
aF0.9173553719008264
aF0.9173553719008264
aF0.9173553719008264
aF0.9545454545454546
aF0.9173553719008264
aF1.0
aF0.9173553719008264
aF1.0
aF0.9173553719008264
aF0.9173553719008264
aF0.9173553719008264
aF1.0
aF0.9173553719008264
aF1.0
aF1.0
aF0.9545454545454546
aF1.0
aF0.9173553719008264
aF0.9545454545454546
aF1.0
aF1.0
aF1.0
aF1.0
aF1.0
aF1.0
aF1.0
aF1.0
aF1.0
aF0.9545454545454546
aF0.9173553719008264
aF1.0
aF1.0
aF1.0
aF0.9173553719008264
aF0.9173553719008264
aF0.9173553719008264
aF1.0
aF0.9545454545454546
aF1.0
aF0.9173553719008264
aF1.0
aF0.9173553719008264
aF0.9173553719008264
aF1.0
aF0.9173553719008264
aF1.0
aF0.9545454545454546
aF1.0
aF1.0
aF1.0
aF1.0
aF1.0
aF1.0
aF1.0
aF0.9173553719008264
aF1.0
aF1.0
aF1.0
aF0.9173553719008264
aF0.9173553719008264
aF0.9173553719008264
aF0.9173553719008264
aF0.9173553719008264
aF0.9173553719008264
aF0.9545454545454546
aF0.9173553719008264
aF1.0
aF0.9173553719008264
aF0.9204545454545454
aF0.9173553719008264
aF0.9545454545454546
aF1.0
aF1.0
aF0.9393939393939393
aF1.0
aF0.9173553719008264
aF0.9173553719008264
aF0.9545454545454546
aF0.9173553719008264
aF1.0
aF0.9173553719008264
aF0.9173553719008264
aF0.9173553719008264
aF1.0
aF1.0
aF1.0
aF0.9173553719008264
aF1.0
aF0.9173553719008264
aF1.0
aF0.9545454545454546
aF0.9393939393939393
aF1.0
aF0.9173553719008264
aF1.0
aF0.9173553719008264
aF0.9173553719008264
aF0.9545454545454546
aF0.9173553719008264
aF0.9173553719008264
aF0.9173553719008264
aF0.9173553719008264
aF0.9173553719008264
aF0.9173553719008264
aF1.0
aF0.9173553719008264
aF0.9173553719008264
aF1.0
aF1.0
aF0.9173553719008264
aF0.9173553719008264
aF0.9173553719008264
aF1.0
aF1.0
aF1.0
aF0.9173553719008264
aF0.9173553719008264
aF0.9173553719008264
aF0.9545454545454546
aF1.0
aF0.9173553719008264
aF0.9173553719008264
aF1.0
aF1.0
aF1.0
aF1.0
aF0.9173553719008264
aF0.9173553719008264
aF0.9545454545454546
aF0.9173553719008264
aF0.9545454545454546
aF1.0
aF1.0
aF0.9173553719008264
aF1.0
aF0.9173553719008264
aF1.0
aF1.0
aF0.9393939393939393
aF0.9173553719008264
aF1.0
aF0.9545454545454546
aF0.9173553719008264
aF1.0
aF1.0
aF0.9191919191919191
aF1.0
aF1.0
aF1.0
aF0.9545454545454546
aF0.9173553719008264
aF0.9173553719008264
aF0.9545454545454546
aF1.0
aF0.9545454545454546
aF0.9173553719008264
aF1.0
aF1.0
aF1.0
aF0.9173553719008264
aF1.0
aF0.9545454545454546
aF1.0
aF0.9173553719008264
aF1.0
aF1.0
aF0.9545454545454546
aF0.9173553719008264
aF0.9173553719008264
aF0.9173553719008264
aF0.9173553719008264
a.