(dp0
S'Ugr5eIIEf0'
p1
(dp2
S'QER9PsCgBT'
p3
F1.0
sS'02i5jCrfQK'
p4
F1.0
sS'C18qWKq212'
p5
F1.0
sS'5ey2xUDZTA'
p6
F1.0
sS'879eYkR2Wu'
p7
F1.0
sS'5a5qA8VLfI'
p8
F1.0
sS'S7E3jvZbGG'
p9
F1.0
sS'c1zVCHxCEz'
p10
F1.0
sS'8rsfNQdio8'
p11
F1.0
sS'PE6x6PxZ42'
p12
F1.0
sS'6Ax4SKe470'
p13
F1.0
ssS'b2W4ZO3uLV'
p14
(dp15
S'l5eh0S53tB'
p16
F0.6666666666666666
sS'y5009rpZ12'
p17
F0.8333333333333333
sg5
F0.7777777777777777
sS'IQ98biy227'
p18
F1.0
sS'i8f2gg51r5'
p19
F0.7777777777777777
sS'6jCygPdswz'
p20
F1.0
sS'1bJbgQ32E3'
p21
F1.0
sS'0U9x5pNv8t'
p22
F0.7777777777777777
ssS'tyU2s0MBzm'
p23
(dp24
g3
F1.0
sS'AQfVkV1aEx'
p25
F1.0
sg17
F1.0
sg5
F1.0
sg6
F1.0
sg7
F1.0
sS'bt0ZuHaCGY'
p26
F1.0
sg12
F1.0
sg18
F1.0
sg16
F1.0
ssS'Qwq8d0du28'
p27
(dp28
S'dvG32rxRzQ'
p29
F1.0
sS'XL0eQIoG72'
p30
F1.0
sg16
F1.0
sg17
F1.0
sg4
F1.0
sg9
F1.0
sS'iyLqACAFyl'
p31
F1.0
sg19
F1.0
sg12
F1.0
ssg4
(dp32
g1
F1.0
sg30
F1.0
sg16
F1.0
sg27
F1.0
sg29
F1.0
sS'8r7mHkuKX9'
p33
F1.0
sg8
F1.0
sg13
F1.0
ssg10
(dp34
g1
F1.0
sg7
F1.0
sg19
F1.0
sg8
F1.0
sg13
F1.0
sg22
F1.0
ssS'Mhc6xUn6X1'
p35
(dp36
sS'2oNLCndtam'
p37
(dp38
g29
F0.75
ssg29
(dp39
g3
F0.8333333333333333
sg31
F1.0
sg30
F0.75
sg16
F1.0
sg17
F0.75
sg4
F1.0
sg5
F0.7777777777777777
sg9
F1.0
sg6
F0.75
sg37
F1.0
sg27
F1.0
sg7
F1.0
sg18
F0.7777777777777777
sg12
F0.75
sg19
F1.0
sS'90o991hXMa'
p40
F1.0
sg8
F1.0
sS'8ZPoEJbXB7'
p41
F1.0
sg20
F1.0
sg21
F1.0
sg13
F1.0
ssS'pg8uPBYamG'
p42
(dp43
sg40
(dp44
g29
F1.0
sg30
F0.6666666666666666
sg16
F1.0
sg17
F0.7777777777777777
sg5
F0.75
sS'HujcxU5LVb'
p45
F1.0
sg18
F0.7777777777777777
ssg30
(dp46
g3
F1.0
sg29
F0.7777777777777778
sg16
F0.6666666666666666
sg17
F0.7777777777777777
sg4
F0.6666666666666666
sg5
F0.7777777777777778
sg27
F0.75
sg18
F1.0
sg9
F0.75
sg8
F1.0
sg40
F1.0
sg21
F0.6666666666666666
sS'XNEgfvXx50'
p47
F0.75
ssg9
(dp48
g1
F1.0
sg45
F1.0
sg16
F1.0
sg27
F1.0
sg29
F1.0
sg30
F1.0
ssg18
(dp49
g29
F1.0
sg14
F1.0
sg23
F1.0
sg17
F1.0
sg5
F1.0
sg7
F1.0
sg20
F1.0
sg19
F1.0
sg40
F1.0
sg8
F1.0
sg30
F1.0
sg22
F1.0
sg12
F1.0
sg16
F1.0
sg47
F1.0
ssg13
(dp50
g1
F1.0
sg4
F1.0
sg10
F1.0
sg6
F1.0
sg31
F1.0
sg29
F1.0
sg11
F1.0
ssg47
(dp51
g30
F0.75
sg16
F1.0
sg17
F1.0
sg6
F1.0
sg7
F1.0
sg8
F0.75
sg11
F0.7777777777777778
sg18
F1.0
ssg26
(dp52
g23
F1.0
sg17
F1.0
ssg17
(dp53
g26
F1.0
sg31
F1.0
sg14
F1.0
sg23
F1.0
sg30
F1.0
sg5
F1.0
sg45
F1.0
sg6
F1.0
sg29
F1.0
sg7
F1.0
sS'PpTLi2Qz8E'
p54
F1.0
sg27
F1.0
sg19
F1.0
sg40
F1.0
sg8
F1.0
sg41
F1.0
sg22
F1.0
sg18
F1.0
sg12
F1.0
sg16
F1.0
sg47
F1.0
ssg5
(dp55
g1
F1.0
sg14
F1.0
sg23
F1.0
sg17
F1.0
sg6
F1.0
sg7
F1.0
sg29
F1.0
sg20
F1.0
sg19
F1.0
sg40
F1.0
sg8
F1.0
sg30
F1.0
sg22
F1.0
sg18
F1.0
sg12
F1.0
sg16
F1.0
ssS'LQm0n9F5e0'
p56
(dp57
sg33
(dp58
g8
F1.0
sg4
F1.0
ssg8
(dp59
g3
F1.0
sg1
F1.0
sg30
F1.0
sg17
F1.0
sg25
F1.0
sg4
F1.0
sg5
F1.0
sg33
F1.0
sg29
F1.0
sg19
F1.0
sg10
F1.0
sg20
F1.0
sg18
F1.0
sg16
F1.0
sg47
F1.0
ssg41
(dp60
g11
F0.7777777777777777
sg3
F0.8333333333333334
sg29
F1.0
sg17
F0.75
ssg20
(dp61
g29
F1.0
sg14
F1.0
sg16
F1.0
sg18
F1.0
sg5
F1.0
sg8
F1.0
sg21
F1.0
ssg21
(dp62
g29
F1.0
sg30
F1.0
sg16
F1.0
sg14
F0.75
sg20
F0.7777777777777778
sg22
F1.0
ssg3
(dp63
g1
F1.0
sg30
F1.0
sg23
F1.0
sg29
F1.0
sg7
F1.0
sg8
F1.0
sg31
F1.0
sg11
F1.0
sg41
F1.0
sg12
F1.0
ssg31
(dp64
g3
F1.0
sg29
F1.0
sg17
F1.0
sg27
F1.0
sg6
F1.0
sg13
F1.0
ssg16
(dp65
g45
F1.0
sg23
F1.0
sg27
F1.0
sg4
F1.0
sg40
F1.0
sg14
F1.0
sg18
F1.0
sg47
F0.7777777777777777
sg17
F1.0
sg5
F1.0
sg9
F1.0
sg8
F1.0
sg20
F1.0
sg21
F0.6666666666666666
sg29
F1.0
sg25
F0.75
sg6
F0.6666666666666666
sg30
F1.0
sg19
F1.0
sg22
F0.7777777777777777
sg12
F1.0
sg7
F0.8400000000000001
ssg25
(dp66
g8
F1.0
sg23
F1.0
sg16
F1.0
ssg6
(dp67
g1
F0.75
sg23
F1.0
sg17
F1.0
sg5
F1.0
sg29
F1.0
sg31
F1.0
sg19
F1.0
sg11
F1.0
sg22
F1.0
sg13
F0.75
sg16
F1.0
sg47
F1.0
ssg19
(dp68
g29
F1.0
sg14
F1.0
sg16
F1.0
sg17
F1.0
sg5
F1.0
sg6
F1.0
sg27
F1.0
sg10
F1.0
sg8
F1.0
sg12
F1.0
sg18
F1.0
sg22
F1.0
ssS'3Whv9UbPsR'
p69
(dp70
sS'XT7r2I6hmm'
p71
(dp72
sg22
(dp73
g14
F1.0
sg16
F1.0
sg17
F1.0
sg5
F1.0
sg6
F1.0
sg18
F1.0
sg19
F1.0
sg10
F1.0
sg21
F1.0
ssg54
(dp74
g17
F0.8333333333333333
ssg45
(dp75
g40
F1.0
sg9
F0.75
sg16
F0.75
sg17
F1.0
ssS'y8U9Hdz4E3'
p76
(dp77
sg7
(dp78
g3
F0.8333333333333333
sg1
F1.0
sg23
F0.6666666666666666
sg17
F0.7777777777777777
sg10
F1.0
sg29
F1.0
sg5
F0.75
sg11
F1.0
sg12
F0.75
sg18
F0.75
sg16
F0.9333333333333332
sg47
F1.0
ssS'0jSb6S70X1'
p79
(dp80
sg11
(dp81
g3
F1.0
sg1
F1.0
sg6
F1.0
sg7
F1.0
sg41
F1.0
sg12
F1.0
sg13
F1.0
sg47
F1.0
ssS'cbgx682J78'
p82
(dp83
sg12
(dp84
g3
F1.0
sg1
F1.0
sg23
F1.0
sg17
F1.0
sg5
F1.0
sg27
F1.0
sg7
F1.0
sg29
F1.0
sg19
F1.0
sg11
F1.0
sg18
F1.0
sg16
F1.0
ss.