(dp0
S'XJyS25Yg27'
p1
(dp2
S'Gwk4z777oU'
p3
F1.0
sS'ajPRq0Q08b'
p4
F1.0
sS'XL0eQIoG72'
p5
F1.0
sS'0YvZonpLW8'
p6
F1.0
sS's19Mo891H5'
p7
F1.0
sS'k3jBd30ocz'
p8
F1.0
sS'S7E3jvZbGG'
p9
F1.0
sS'y5009rpZ12'
p10
F1.0
sS'f1924U65I1'
p11
F1.0
sS'm64Rgy40OF'
p12
F1.0
sS'5a5qA8VLfI'
p13
F1.0
sS'ZP886G3Z76'
p14
F1.0
sS'X5eS5kvC8h'
p15
F1.0
sS'dvG32rxRzQ'
p16
F1.0
sS'l5eh0S53tB'
p17
F1.0
sS'saNy7ix5ZY'
p18
F1.0
sS'EfN583275t'
p19
F1.0
sS'i8f2gg51r5'
p20
F1.0
sS'242fhbKRf9'
p21
F1.0
sS'0U9x5pNv8t'
p22
F1.0
sS'34f4oB5Cod'
p23
F1.0
sS'D1VwdFc01t'
p24
F1.0
sS'h0UbH181l8'
p25
F1.0
ssS'M7hLaVJGvX'
p26
(dp27
S'LM96hW22T2'
p28
F0.7777777777777777
ssS'Fx8d98DRud'
p29
(dp30
sS'l8bH01vT7z'
p31
(dp32
sS'9eV0EGVC6j'
p33
(dp34
sS'6bJ4auIa8L'
p35
(dp36
g15
F1.0
sg4
F1.0
sg5
F1.0
sg17
F1.0
sg10
F1.0
sS'IQ98biy227'
p37
F1.0
sg16
F1.0
sg12
F1.0
sg8
F1.0
sS'qL6HDg57R9'
p38
F1.0
sS'YNGlv7F45C'
p39
F1.0
sg18
F1.0
sg25
F1.0
sg20
F1.0
sg13
F1.0
sS'OS2vxzjz6W'
p40
F1.0
sS'1bJbgQ32E3'
p41
F1.0
sS'SoEcLAeJi1'
p42
F1.0
sg22
F1.0
ssS'Exz0X2naK1'
p43
(dp44
g4
F0.625
sg5
F0.7777777777777777
sS'c1zVCHxCEz'
p45
F1.0
sS'3hSu07XfGd'
p46
F0.75
sg16
F0.75
sS'77y7iIIXuv'
p47
F0.8333333333333333
sS'Dmq6441349'
p48
F0.6666666666666666
sS'9EAa0nJjb1'
p49
F0.75
sg37
F1.0
sg22
F0.6666666666666666
ssS'8csPxY44OZ'
p50
(dp51
sS'0GlR30c2Mt'
p52
(dp53
sg47
(dp54
S'apCLF0uF21'
p55
F1.0
sg3
F1.0
sg4
F1.0
sg5
F1.0
sS'02i5jCrfQK'
p56
F1.0
sg45
F1.0
sg7
F1.0
sg43
F1.0
sg46
F1.0
sg8
F1.0
sg48
F1.0
sg37
F1.0
sg10
F1.0
sg40
F1.0
sg21
F1.0
sg9
F1.0
sg13
F1.0
sS'6jCygPdswz'
p57
F1.0
sg41
F1.0
sg42
F1.0
sg16
F1.0
sg17
F1.0
sS'LnVZmUuwc8'
p58
F1.0
sS'stK4H8Vit6'
p59
F1.0
sS'8a0vIMw4At'
p60
F1.0
sg38
F1.0
sg20
F1.0
sS'EWHJMBPf94'
p61
F1.0
sg39
F1.0
sS'mNzo8mGzu9'
p62
F1.0
sg22
F1.0
sS'HvghFVBS5v'
p63
F1.0
sg24
F1.0
sg25
F1.0
sS'odPTXtfS78'
p64
F1.0
sS'4X3016rdOZ'
p65
F1.0
sg49
F1.0
ssS'88Uhb8760x'
p66
(dp67
sS'vpuUyzUJ0z'
p68
(dp69
sS'H4UD7rojkA'
p70
(dp71
sS'2IaH8665Ha'
p72
(dp73
sS'XTXYl6nJ7J'
p74
(dp75
sS'OPv5PP9Bi4'
p76
(dp77
sg12
(dp78
g55
F1.0
sg1
F0.875
sg4
F0.7363636363636363
sg5
F0.6666666666666666
sg45
F1.0
sg42
F0.7777777777777777
sg35
F1.0
sg3
F0.75
sg25
F0.6666666666666666
sS'276487SwvF'
p79
F1.0
sg10
F0.8888888888888888
sg9
F1.0
sg13
F0.75
sg49
F0.8333333333333334
sg41
F1.0
sg14
F0.75
sg15
F1.0
sg16
F0.71875
sg17
F0.7878787878787877
sg58
F1.0
sg38
F0.75
sg20
F0.75
sg22
F0.7777777777777778
sg23
F0.6666666666666666
sg8
F0.7857142857142857
sg18
F1.0
ssg6
(dp80
g3
F1.0
sg10
F1.0
sg15
F1.0
sg42
F1.0
sg1
F1.0
sg11
F1.0
sg18
F1.0
sg8
F1.0
sg19
F1.0
ssS'1iPV6aca5w'
p81
(dp82
sg41
(dp83
g55
F0.75
sg4
F0.8012820512820512
sg5
F1.0
sg56
F0.8333333333333334
sg45
F1.0
sg7
F0.8333333333333334
sg35
F0.75
sg46
F1.0
sg25
F1.0
sg47
F1.0
sg48
F1.0
sg37
F1.0
sg10
F1.0
sg40
F0.6666666666666666
sg12
F0.8333333333333333
sg57
F0.8541666666666666
sg42
F0.7777777777777777
sg15
F0.75
sg16
F0.875
sg17
F0.75
sg58
F0.7777777777777777
sg38
F0.8666666666666666
sg19
F0.7777777777777777
sg20
F0.75
sg39
F1.0
sg21
F1.0
sg22
F1.0
sg8
F0.75
sg14
F1.0
sg18
F0.75
sg49
F0.7777777777777777
ssS'E38It7fjg0'
p84
(dp85
sS'O4PQ25r2dR'
p86
(dp87
sg17
(dp88
g55
F0.8
sg1
F1.0
sS'yuB6nxh3FX'
p89
F0.9
sg5
F0.8285714285714285
sg56
F0.6785714285714286
sg45
F1.0
sg7
F0.8125
sg35
F0.65
sg3
F0.6428571428571428
sg46
F0.75
sg4
F0.730769230769231
sg47
F0.8125
sg48
F1.0
sg42
F0.8400000000000001
sg37
F0.8888888888888888
sg10
F0.9090909090909091
sg11
F0.75
sg79
F0.8333333333333334
sg40
F0.6875
sg12
F0.6629629629629631
sg13
F1.0
sg57
F0.8333333333333334
sg41
F1.0
sS'nxe3l4KD0z'
p90
F1.0
sg15
F0.6249999999999999
sg16
F0.8095238095238094
sg9
F1.0
sg58
F0.8
sS'dD0vTK3gXD'
p91
F1.0
sS'm58s5oOZCm'
p92
F1.0
sg18
F0.875
sg38
F0.826530612244898
sg19
F1.0
sg20
F0.7307692307692308
sg39
F0.8125
sg21
F1.0
sg22
F0.8541666666666666
sg23
F0.6666666666666666
sg8
F0.7435897435897435
sg24
F0.7777777777777777
sg14
F1.0
sg25
F0.6938775510204083
sg65
F0.9
sg49
F0.8666666666666666
ssS'qN6WN7C097'
p93
(dp94
g8
F0.75
ssS'46z59pQP58'
p95
(dp96
S'66Ak255E3j'
p97
F1.0
sg15
F1.0
sS'z1iLCTB32T'
p98
F1.0
sg22
F1.0
ssS'0ZroSLGL09'
p99
(dp100
sS'z9svx3mA4s'
p101
(dp102
sS'8eqtD31y66'
p103
(dp104
sS'8d194g9ccT'
p105
(dp106
g4
F1.0
sS'LP15lX652E'
p107
F0.6666666666666666
ssg60
(dp108
g47
F1.0
ssS'h31E235Th5'
p109
(dp110
sS'02ZjVTxC34'
p111
(dp112
sS'7y5NJZ7S6u'
p113
(dp114
sg18
(dp115
g1
F1.0
sg4
F0.9
sg45
F1.0
sg42
F1.0
sg35
F1.0
sg3
F0.7777777777777777
sg25
F0.6666666666666666
sg79
F0.8333333333333334
sg10
F1.0
sg11
F1.0
sg12
F1.0
sg6
F1.0
sg57
F1.0
sg41
F1.0
sg14
F1.0
sg15
F1.0
sg16
F0.8666666666666667
sg17
F1.0
sg58
F1.0
sg92
F1.0
sg38
F1.0
sg19
F1.0
sg20
F0.8888888888888888
sg39
F1.0
sg22
F1.0
sg23
F0.6666666666666666
sg8
F0.8285714285714286
sg65
F1.0
ssS'075kbY53c1'
p116
(dp117
sS'7RB2G4NbCn'
p118
(dp119
sg79
(dp120
g55
F1.0
sg3
F0.75
sg4
F1.0
sg5
F0.8571428571428572
sg45
F1.0
sg46
F0.75
sg8
F0.6666666666666666
sg10
F1.0
sg11
F1.0
sg12
F1.0
sg13
F1.0
sg57
F1.0
sg16
F0.875
sg17
F1.0
sg58
F0.8888888888888888
sg18
F0.8888888888888888
sg20
F0.8888888888888888
sg39
F1.0
sg65
F0.6666666666666666
sg23
F0.6666666666666666
sg24
F1.0
sg38
F0.8333333333333333
sg25
F0.9166666666666666
ssS'UmsZ3gHcg7'
p121
(dp122
sS'668lBbaKFE'
p123
(dp124
g4
F0.8928571428571429
sg107
F1.0
ssS'mt4GxUF641'
p125
(dp126
g40
F1.0
ssg98
(dp127
g95
F1.0
sS'PE6x6PxZ42'
p128
F0.7
ssS'7YX78oEdjZ'
p129
(dp130
g63
F1.0
sg59
F0.75
ssS'DkXJps09H6'
p131
(dp132
sS'2J2SH6Fk63'
p133
(dp134
sS'0KS4yy9G96'
p135
(dp136
sg128
(dp137
g15
F1.0
sg4
F0.8541666666666666
sS'tB4vqSxzqo'
p138
F0.75
sg98
F1.0
sg28
F1.0
sg20
F1.0
sS'78t79xOebG'
p139
F0.8
ssg139
(dp140
g15
F1.0
sg128
F0.8125
sg138
F0.8
sg22
F1.0
ssg3
(dp141
g55
F1.0
sg1
F1.0
sg89
F0.6
sg5
F1.0
sg56
F1.0
sg45
F1.0
sg42
F1.0
sg46
F1.0
sg4
F1.0
sg47
F1.0
sg37
F0.8333333333333334
sg10
F1.0
sg11
F1.0
sg79
F1.0
sg40
F1.0
sg12
F1.0
sg6
F1.0
sg13
F1.0
sg57
F1.0
sg65
F1.0
sg14
F1.0
sg15
F1.0
sg16
F1.0
sg17
F1.0
sg58
F1.0
sg92
F1.0
sg18
F1.0
sg38
F1.0
sg19
F1.0
sg20
F1.0
sg22
F1.0
sg8
F1.0
sS'N18G8VLF9v'
p142
F1.0
sg25
F1.0
sg49
F1.0
ssg89
(dp143
g3
F1.0
sg4
F1.0
sg5
F0.6666666666666666
sg17
F1.0
sg10
F0.7777777777777778
sg58
F1.0
sg38
F1.0
sg40
F1.0
sg25
F0.7777777777777777
sg57
F1.0
sg37
F0.7777777777777777
ssS'bt0ZuHaCGY'
p144
(dp145
sS'Qwq8d0du28'
p146
(dp147
sS'5VZLSGPT10'
p148
(dp149
sS'2AMmebFl86'
p150
(dp151
sS'FrPh305pw8'
p152
(dp153
sS'QS4cvQ8w0o'
p154
(dp155
sS'7esK30uHH1'
p156
(dp157
sg48
(dp158
g43
F1.0
sg4
F1.0
sg5
F1.0
sg56
F1.0
sg45
F1.0
sg46
F1.0
sg8
F1.0
sg47
F1.0
sg37
F1.0
sg10
F1.0
sg11
F0.6666666666666666
sg57
F0.7333333333333334
sg41
F1.0
sg90
F1.0
sg15
F1.0
sg16
F1.0
sg17
F0.7777777777777778
sg20
F1.0
sg39
F0.75
sg21
F1.0
sg49
F1.0
sg23
F1.0
sg22
F1.0
ssg9
(dp159
g1
F0.875
sg16
F0.7999999999999999
sg5
F0.75
sg17
F0.7777777777777777
sg56
F1.0
sg42
F1.0
sg12
F1.0
sg47
F1.0
sg20
F0.7
sg13
F0.75
sg22
F0.75
ssS'CZDz8OSRfI'
p160
(dp161
sg10
(dp162
g55
F1.0
sg1
F1.0
sg89
F1.0
sg5
F0.9
sg56
F1.0
sg45
F1.0
sg7
F1.0
sg35
F1.0
sg3
F0.8125
sg46
F0.8333333333333334
sg4
F0.9272727272727272
sg47
F1.0
sg48
F1.0
sg37
F0.9047619047619048
sg11
F1.0
sg79
F1.0
sg40
F1.0
sS'KiDu7A3iD8'
p163
F1.0
sg12
F0.7777777777777778
sg6
F1.0
sg13
F1.0
sg57
F0.9
sg41
F1.0
sg42
F1.0
sg16
F0.888888888888889
sg17
F1.0
sg58
F1.0
sg92
F1.0
sg18
F1.0
sg38
F1.0
sg19
F1.0
sg20
F0.9444444444444445
sg39
F1.0
sg21
F1.0
sg22
F1.0
sg23
F0.7222222222222222
sg8
F0.875
sg24
F1.0
sg14
F1.0
sg25
F0.8333333333333334
sg142
F1.0
sg65
F0.8333333333333334
sg49
F1.0
ssS'yf2V5ll9mN'
p164
(dp165
sg37
(dp166
g55
F1.0
sg3
F1.0
sg89
F0.7777777777777777
sg5
F0.8484848484848485
sg56
F1.0
sg45
F0.875
sg7
F1.0
sg35
F1.0
sg43
F1.0
sg46
F0.8400000000000001
sg4
F0.8828125
sg47
F0.8333333333333334
sg48
F0.75
sg42
F1.0
sg10
F1.0
sg40
F1.0
sg13
F1.0
sg57
F0.8666666666666667
sg41
F0.75
sg90
F1.0
sg16
F0.8701298701298701
sg17
F1.0
sg58
F0.7777777777777777
sg91
F1.0
sg92
F1.0
sg38
F1.0
sg19
F1.0
sg20
F0.7916666666666666
sg39
F0.875
sg21
F1.0
sg22
F0.8285714285714285
sg23
F1.0
sg8
F1.0
sg14
F0.75
sg25
F1.0
sg65
F1.0
sg49
F0.7777777777777777
ssS'6O31vedZbI'
p167
(dp168
sS'45TTYcotWk'
p169
(dp170
sS'8fyjxTqDpQ'
p171
(dp172
sg57
(dp173
g55
F1.0
sg3
F0.8800000000000001
sg89
F0.7222222222222223
sg5
F0.8888888888888888
sg56
F1.0
sg45
F1.0
sg7
F1.0
sg46
F0.8611111111111112
sg4
F0.9047619047619048
sg47
F1.0
sg48
F1.0
sg37
F0.8333333333333334
sg10
F1.0
sg11
F1.0
sg79
F1.0
sg40
F1.0
sg13
F1.0
sg65
F0.75
sg41
F1.0
sg42
F1.0
sg15
F1.0
sg16
F0.875
sg17
F1.0
sg58
F1.0
sg92
F1.0
sg18
F1.0
sg38
F1.0
sg19
F1.0
sg20
F1.0
sg39
F1.0
sg21
F1.0
sg22
F1.0
sg23
F0.625
sg24
F1.0
sg14
F1.0
sg8
F0.75
sg25
F0.8400000000000001
sg49
F1.0
ssS'v52MhQAVT9'
p174
(dp175
sg15
(dp176
g1
F1.0
sg4
F1.0
sg5
F1.0
sg56
F0.7222222222222222
sg45
F1.0
sg7
F1.0
sg35
F1.0
sg3
F0.7777777777777777
sg25
F1.0
sg49
F1.0
sg48
F1.0
sg11
F0.6666666666666666
sg40
F1.0
sg97
F1.0
sg12
F1.0
sg6
F0.8333333333333333
sg57
F0.7777777777777777
sg41
F0.6666666666666666
sg42
F1.0
sg16
F1.0
sg138
F0.75
sg17
F1.0
sg58
F1.0
sg95
F1.0
sg65
F1.0
sg18
F0.75
sg20
F1.0
sg22
F1.0
sg90
F1.0
sg8
F1.0
sg128
F0.7777777777777778
sg139
F1.0
ssS'X4ZaxfDz3Q'
p177
(dp178
sg58
(dp179
g55
F1.0
sg3
F0.7777777777777778
sg89
F0.6
sg5
F0.8888888888888888
sg56
F1.0
sg45
F1.0
sg7
F1.0
sg46
F0.7777777777777778
sg4
F0.75
sg47
F1.0
sg37
F0.8000000000000002
sg10
F0.875
sg79
F0.8333333333333334
sg40
F0.8125
sg12
F0.6666666666666666
sg57
F0.9142857142857143
sg41
F1.0
sg42
F0.7777777777777777
sg15
F1.0
sg16
F0.8571428571428571
sg17
F0.890909090909091
sg92
F1.0
sg18
F1.0
sg38
F0.7
sg19
F1.0
sg20
F1.0
sg39
F1.0
sg21
F0.8333333333333333
sg22
F0.8333333333333333
sg14
F0.75
sg8
F0.75
sg25
F0.7000000000000001
sg65
F0.8333333333333334
sg49
F1.0
ssS'mI0bEZaepz'
p180
(dp181
sS'c8Gl35DPn4'
p182
(dp183
sS'5yasLi1Avt'
p184
(dp185
sg63
(dp186
g55
F1.0
sS'1kKxS8urAH'
p187
F0.8571428571428571
sg129
F0.75
sg59
F0.85
sg47
F0.6666666666666666
sg64
F1.0
sg62
F1.0
ssS'ftgrG3jT2m'
p188
(dp189
sg39
(dp190
g55
F1.0
sg4
F0.8484848484848485
sg5
F0.6666666666666666
sg45
F0.875
sg42
F1.0
sg35
F1.0
sg46
F0.7777777777777777
sg8
F1.0
sg47
F0.8333333333333334
sg48
F0.7777777777777778
sg37
F0.8125
sg10
F1.0
sg11
F1.0
sg79
F1.0
sg40
F1.0
sg13
F0.8125
sg57
F0.6875
sg41
F0.75
sg14
F0.75
sg16
F0.8125
sg17
F1.0
sg58
F0.75
sg18
F1.0
sg19
F1.0
sg20
F0.78125
sg22
F0.7777777777777777
sg24
F1.0
sg38
F1.0
sg65
F1.0
sg49
F0.75
ssS'3C1dH8H8v3'
p191
(dp192
sg22
(dp193
g55
F1.0
sg1
F1.0
sg4
F1.0
sg5
F1.0
sg56
F1.0
sg45
F1.0
sg42
F1.0
sg35
F1.0
sg3
F1.0
sg46
F1.0
sg25
F1.0
sg47
F1.0
sg48
F1.0
sg9
F1.0
sg37
F1.0
sg10
F1.0
sg40
F1.0
sg97
F1.0
sg12
F1.0
sg13
F1.0
sg57
F1.0
sg41
F1.0
sg90
F1.0
sg15
F1.0
sg16
F1.0
sg138
F1.0
sg17
F1.0
sg58
F1.0
sg95
F1.0
sg18
F1.0
sg38
F1.0
sg19
F1.0
sg20
F1.0
sg39
F1.0
sg21
F1.0
sg49
F1.0
sg43
F1.0
sg23
F1.0
sg14
F1.0
sg8
F1.0
sg139
F1.0
ssg23
(dp194
g55
F1.0
sg1
F1.0
sg4
F1.0
sg5
F1.0
sg17
F1.0
sg10
F1.0
sg79
F1.0
sg11
F1.0
sg45
F1.0
sg12
F1.0
sg8
F1.0
sg46
F1.0
sg18
F1.0
sg16
F1.0
sg20
F1.0
sg48
F1.0
sg57
F1.0
sg37
F1.0
sg22
F1.0
ssS'5x5fHvFFLv'
p195
(dp196
sS'USdRVl9AOe'
p197
(dp198
sS'p5CPTG2423'
p199
(dp200
sg24
(dp201
g1
F1.0
sg4
F1.0
sg17
F1.0
sg10
F1.0
sg11
F1.0
sg45
F1.0
sg7
F1.0
sg8
F1.0
sg16
F1.0
sg46
F1.0
sg39
F1.0
sg38
F1.0
sg47
F1.0
sg20
F1.0
sg13
F1.0
sg57
F1.0
sg79
F1.0
sg42
F1.0
ssS'4pzSijxuK6'
p202
(dp203
sS'y4Vg256UzB'
p204
(dp205
sg19
(dp206
g55
F1.0
sg1
F1.0
sg4
F0.8857142857142858
sg5
F1.0
sg45
F1.0
sg42
F0.875
sg3
F0.8
sg46
F1.0
sg8
F1.0
sg37
F0.7777777777777778
sg10
F0.7777777777777777
sg11
F0.75
sg6
F0.8333333333333333
sg13
F1.0
sg57
F0.6666666666666666
sg41
F0.7777777777777777
sg14
F0.75
sg16
F1.0
sg17
F0.7777777777777777
sg58
F1.0
sg92
F0.8333333333333333
sg18
F0.75
sg39
F1.0
sg21
F0.8333333333333334
sg22
F0.8333333333333334
sg38
F0.75
sg25
F0.7916666666666666
sg49
F1.0
ssg55
(dp207
g3
F0.8
sg4
F0.875
sg5
F0.9027777777777778
sg56
F1.0
sg45
F1.0
sg42
F1.0
sg46
F0.8571428571428572
sg8
F0.8333333333333334
sg47
F1.0
sg37
F0.875
sg10
F1.0
sg187
F0.8125
sg79
F1.0
sg40
F1.0
sg21
F1.0
sg12
F0.75
sg13
F1.0
sg57
F0.875
sg41
F1.0
sg16
F0.8333333333333333
sg17
F1.0
sg58
F1.0
sg59
F1.0
sg38
F1.0
sg19
F1.0
sg20
F1.0
sg39
F1.0
sg62
F1.0
sg22
F1.0
sg23
F0.625
sg63
F0.7777777777777777
sg25
F0.8333333333333334
sg142
F1.0
sg65
F0.75
sg49
F1.0
ssg4
(dp208
g55
F0.8611111111111112
sg1
F0.7777777777777778
sg89
F0.8333333333333334
sg5
F0.7740740740740741
sg56
F0.8214285714285714
sg45
F1.0
sg7
F0.75
sg35
F0.7000000000000001
sg3
F0.7
sg46
F0.890625
sg8
F0.7
sg47
F0.8571428571428572
sg48
F1.0
sg42
F0.8611111111111112
sg37
F0.8409090909090909
sg28
F0.888888888888889
sg10
F0.8111888111888113
sg11
F0.75
sg79
F1.0
sg40
F0.8571428571428571
sg163
F1.0
sg12
F0.75
sg13
F1.0
sg57
F0.9285714285714286
sg41
F0.9166666666666666
sg90
F1.0
sg15
F0.8285714285714285
sg16
F0.8283333333333334
sg17
F0.8393939393939394
sg58
F0.8611111111111112
sg91
F1.0
sg105
F0.85
sg92
F1.0
sg18
F0.8571428571428571
sg38
F1.0
sg19
F0.76
sg20
F0.7371794871794872
sg39
F1.0
sg21
F1.0
sg22
F0.8730158730158729
sg43
F1.0
sg23
F0.6071428571428571
sg123
F0.8775510204081634
sg65
F0.9
sg24
F1.0
sg14
F1.0
sg25
F0.7142857142857143
sg107
F0.8
sg128
F0.6458333333333334
sg49
F0.8611111111111112
ssg5
(dp209
g55
F0.75
sg1
F0.5333333333333333
sg89
F1.0
sg56
F0.75
sg45
F1.0
sg7
F0.7777777777777777
sg35
F0.75
sg3
F0.8333333333333333
sg46
F0.9027777777777778
sg4
F0.8888888888888888
sg47
F0.8333333333333333
sg48
F1.0
sg42
F0.75
sg9
F0.75
sg37
F1.0
sg10
F0.8400000000000001
sg11
F0.75
sg79
F1.0
sg40
F0.75
sg12
F0.8333333333333334
sg13
F1.0
sg57
F1.0
sg41
F0.9
sg90
F1.0
sg15
F0.625
sg16
F0.8148148148148148
sg17
F0.783882783882784
sg58
F0.8125
sg91
F1.0
sg38
F1.0
sg19
F0.6875
sg20
F0.825
sg39
F1.0
sg21
F1.0
sg22
F1.0
sg43
F0.7777777777777778
sg23
F0.7333333333333334
sg8
F0.7708333333333334
sg14
F1.0
sg25
F0.7857142857142857
sg142
F0.75
sg65
F0.7916666666666666
sg49
F0.8571428571428571
ssS'tyU2s0MBzm'
p210
(dp211
sg56
(dp212
g55
F0.7777777777777778
sg3
F1.0
sg4
F0.825
sg5
F0.8333333333333333
sg45
F1.0
sg7
F1.0
sg46
F0.7777777777777777
sg8
F0.7333333333333334
sg47
F0.8125
sg48
F0.6666666666666666
sg37
F0.6666666666666666
sg10
F0.75
sg11
F1.0
sg40
F1.0
sg9
F1.0
sg13
F1.0
sg57
F0.8666666666666667
sg41
F0.75
sg42
F1.0
sg15
F1.0
sg16
F0.8214285714285714
sg17
F1.0
sg58
F1.0
sg38
F1.0
sg20
F1.0
sg21
F0.75
sg22
F0.6666666666666666
sg25
F1.0
sg65
F1.0
sg49
F1.0
ssS'81E41tTtV9'
p213
(dp214
sg45
(dp215
g55
F0.8888888888888888
sg3
F0.6499999999999999
sg4
F0.8269230769230769
sg5
F0.7818181818181819
sg56
F0.625
sg7
F1.0
sg43
F1.0
sg46
F0.6944444444444445
sg8
F0.7916666666666666
sg47
F0.8
sg48
F0.75
sg42
F1.0
sg37
F0.8571428571428572
sg10
F0.875
sg11
F0.6666666666666666
sg79
F0.8333333333333334
sg40
F0.75
sg12
F1.0
sg13
F1.0
sg57
F0.875
sg41
F0.75
sg90
F1.0
sg15
F1.0
sg16
F0.7962962962962963
sg17
F1.0
sg58
F1.0
sg91
F1.0
sg18
F1.0
sg38
F0.75
sg19
F1.0
sg20
F0.7555555555555555
sg39
F0.84375
sg21
F1.0
sg22
F0.8
sg23
F0.6666666666666666
sg24
F0.7777777777777777
sg25
F0.6666666666666666
sg65
F0.8333333333333334
sg49
F0.875
ssg42
(dp216
g55
F1.0
sg3
F0.6666666666666666
sg4
F1.0
sg5
F1.0
sg56
F0.6666666666666666
sg45
F1.0
sg7
F1.0
sg35
F1.0
sg46
F1.0
sg25
F1.0
sg47
F1.0
sg9
F1.0
sg37
F1.0
sg10
F1.0
sg11
F0.6666666666666666
sg40
F1.0
sg12
F1.0
sg6
F0.8333333333333333
sg13
F1.0
sg57
F0.7916666666666667
sg41
F0.75
sg14
F0.75
sg15
F1.0
sg16
F1.0
sg17
F1.0
sg58
F1.0
sg92
F0.8333333333333334
sg18
F0.75
sg38
F1.0
sg19
F1.0
sg20
F1.0
sg39
F1.0
sg22
F1.0
sg90
F1.0
sg24
F1.0
sg8
F1.0
sg49
F1.0
ssS'jR1rpwLHNu'
p217
(dp218
sS'rPj8YeG1I5'
p219
(dp220
sg46
(dp221
g55
F1.0
sg3
F1.0
sg4
F1.0
sg5
F1.0
sg56
F1.0
sg45
F1.0
sg7
F1.0
sg43
F1.0
sg8
F1.0
sg47
F1.0
sg48
F1.0
sg42
F1.0
sg37
F1.0
sg10
F1.0
sg79
F1.0
sg40
F1.0
sg13
F1.0
sg57
F1.0
sg41
F1.0
sg90
F1.0
sg16
F1.0
sg17
F1.0
sg58
F1.0
sg91
F1.0
sg38
F1.0
sg19
F1.0
sg20
F1.0
sg39
F1.0
sg21
F1.0
sg22
F1.0
sg23
F1.0
sg24
F1.0
sg25
F1.0
sg142
F1.0
sg65
F1.0
sg49
F1.0
ssS'MPqJdqnPtc'
p222
(dp223
sS'80nlN05JQ6'
p224
(dp225
sg59
(dp226
g55
F0.8888888888888888
sg187
F0.75
sg63
F0.8
sg129
F1.0
sg47
F0.75
sg61
F1.0
sg62
F1.0
ssS'ey9rvMnU57'
p227
(dp228
sS'oEt3YTvS4G'
p229
(dp230
sS'5LMy832c47'
p231
(dp232
sg11
(dp233
g1
F1.0
sg4
F1.0
sg5
F1.0
sg20
F1.0
sg10
F1.0
sg56
F1.0
sg6
F1.0
sg45
F1.0
sg42
F1.0
sg15
F1.0
sg24
F1.0
sg18
F1.0
sg23
F1.0
sg19
F1.0
sg3
F1.0
sg48
F1.0
sg13
F1.0
sg57
F1.0
sg79
F1.0
sg39
F1.0
sg17
F1.0
ssS'dTIQk6Xt3r'
p234
(dp235
sS'4EUt9uDfjG'
p236
(dp237
sg21
(dp238
g55
F1.0
sg1
F0.625
sg4
F1.0
sg5
F1.0
sg56
F1.0
sg45
F1.0
sg7
F0.75
sg46
F1.0
sg8
F0.7
sg47
F1.0
sg48
F1.0
sg37
F0.8333333333333334
sg10
F0.8
sg40
F1.0
sg13
F1.0
sg57
F1.0
sg41
F1.0
sg14
F0.9166666666666666
sg16
F1.0
sg17
F0.8571428571428571
sg58
F0.75
sg38
F0.8
sg19
F0.7777777777777777
sg20
F1.0
sg22
F1.0
sg25
F1.0
sg65
F0.75
sg49
F1.0
ssS'hwF4tyWU50'
p239
(dp240
sS'fTCaypQv7J'
p241
(dp242
sS'dc35t0IQHq'
p243
(dp244
sS'Si4v9635O3'
p245
(dp246
sg97
(dp247
g95
F1.0
sg15
F1.0
sg138
F1.0
sg22
F1.0
ssg49
(dp248
g55
F1.0
sg3
F0.75
sg4
F0.8888888888888888
sg5
F0.85
sg56
F1.0
sg45
F1.0
sg7
F1.0
sg43
F1.0
sg46
F0.8400000000000001
sg8
F0.7333333333333334
sg47
F1.0
sg48
F1.0
sg37
F0.8333333333333334
sg10
F1.0
sg12
F0.7777777777777777
sg13
F1.0
sg57
F1.0
sg41
F1.0
sg42
F1.0
sg15
F1.0
sg16
F0.8833333333333333
sg17
F1.0
sg58
F1.0
sg91
F1.0
sg19
F1.0
sg20
F0.9166666666666666
sg39
F1.0
sg21
F1.0
sg22
F1.0
sg14
F1.0
sg25
F0.8400000000000001
sg65
F1.0
ssS'f4fNYL73Z2'
p249
(dp250
sS'S833Nk9r71'
p251
(dp252
sg138
(dp253
g15
F1.0
sg128
F1.0
sg97
F1.0
sg139
F0.8
sg22
F0.6666666666666666
ssS't4K5z0e2NZ'
p254
(dp255
sg91
(dp256
g4
F1.0
sg5
F0.9166666666666667
sg17
F1.0
sg45
F1.0
sg8
F0.6666666666666666
sg16
F0.875
sg46
F0.75
sg25
F0.75
sg49
F1.0
sg37
F0.8
sg65
F1.0
ssS's39qS245G2'
p257
(dp258
sg20
(dp259
g55
F1.0
sg1
F1.0
sg4
F0.9166666666666666
sg5
F0.9
sg56
F1.0
sg45
F1.0
sg42
F1.0
sg35
F1.0
sg3
F0.8125
sg46
F0.7777777777777778
sg8
F0.8285714285714286
sg47
F1.0
sg48
F1.0
sg9
F1.0
sg37
F0.875
sg28
F0.8125
sg10
F1.0
sg11
F1.0
sg79
F1.0
sg40
F1.0
sg12
F0.8333333333333333
sg13
F1.0
sg57
F1.0
sg41
F1.0
sg14
F1.0
sg15
F1.0
sg16
F0.8833333333333333
sg17
F1.0
sg58
F1.0
sg18
F1.0
sg38
F1.0
sg65
F0.8333333333333334
sg39
F1.0
sg21
F1.0
sg22
F1.0
sg23
F0.6666666666666666
sg24
F1.0
sg25
F0.8400000000000001
sg128
F0.875
sg49
F1.0
ssS'GlZwe88Gzo'
p260
(dp261
g8
F1.0
ssS'u08WLS2awz'
p262
(dp263
sS'589M2uPIY4'
p264
(dp265
sS'V2p98HHF6o'
p266
(dp267
sg62
(dp268
g55
F1.0
sg187
F1.0
sg63
F1.0
sg59
F0.8333333333333334
sg47
F0.7777777777777777
sg64
F1.0
sg61
F1.0
ssg7
(dp269
g1
F1.0
sg4
F1.0
sg5
F1.0
sg56
F1.0
sg45
F1.0
sg42
F1.0
sg46
F1.0
sg8
F1.0
sg47
F1.0
sg37
F1.0
sg10
F1.0
sg57
F0.75
sg41
F0.8333333333333334
sg15
F1.0
sg16
F1.0
sg17
F1.0
sg58
F1.0
sg65
F1.0
sg21
F1.0
sg49
F1.0
sg24
F1.0
sg25
F0.7777777777777778
ssS'zfYl0YECr0'
p270
(dp271
sg14
(dp272
g1
F1.0
sg4
F1.0
sg5
F1.0
sg42
F1.0
sg3
F1.0
sg8
F0.75
sg37
F1.0
sg10
F1.0
sg12
F1.0
sg57
F1.0
sg41
F1.0
sg16
F1.0
sg17
F1.0
sg58
F0.7777777777777777
sg38
F0.85
sg19
F0.7777777777777777
sg20
F1.0
sg39
F1.0
sg21
F1.0
sg49
F1.0
sg22
F1.0
sg18
F0.7777777777777777
sg25
F1.0
ssS'15V4J8fDs3'
p273
(dp274
sg8
(dp275
g55
F1.0
sg1
F1.0
sg4
F1.0
sg5
F1.0
sg56
F1.0
sg45
F1.0
sg7
F1.0
sg35
F1.0
sg3
F1.0
sg46
F1.0
sg25
F1.0
sg47
F1.0
sg48
F1.0
sg42
F1.0
sg37
F1.0
sg10
F1.0
sg79
F1.0
sg40
F1.0
sg12
F1.0
sg6
F1.0
sg13
F1.0
sg57
F1.0
sg41
F1.0
sg90
F1.0
sg15
F1.0
sg16
F1.0
sg17
F1.0
sg93
F1.0
sg58
F1.0
sg91
F1.0
sg38
F1.0
sg19
F1.0
sg20
F1.0
sg260
F1.0
sg39
F1.0
sg21
F1.0
sg22
F1.0
sg23
F1.0
sg24
F1.0
sg14
F1.0
sg18
F1.0
sg142
F1.0
sg65
F1.0
sg49
F1.0
ssg142
(dp276
g55
F1.0
sg3
F0.75
sg5
F0.9166666666666667
sg10
F1.0
sg8
F0.75
sg46
F0.6666666666666666
sg25
F0.6666666666666666
ssS'c3Ee3W8hyq'
p277
(dp278
sS'84qYt0yA5y'
p279
(dp280
sS'8gH5u019ZH'
p281
(dp282
sS'Ru21xRreim'
p283
(dp284
sS'CaA0123UJL'
p285
(dp286
sS'uYf5028a75'
p287
(dp288
sS'tlJn3I40bf'
p289
(dp290
sS'bcoY3s64sj'
p291
(dp292
sg25
(dp293
g55
F1.0
sg1
F1.0
sg89
F1.0
sg5
F1.0
sg56
F1.0
sg45
F1.0
sg7
F1.0
sg35
F1.0
sg3
F1.0
sg46
F1.0
sg4
F1.0
sg47
F1.0
sg37
F1.0
sg10
F1.0
sg79
F0.8333333333333334
sg40
F1.0
sg12
F1.0
sg13
F1.0
sg57
F1.0
sg41
F0.7777777777777777
sg42
F1.0
sg15
F1.0
sg16
F1.0
sg17
F1.0
sg58
F0.8400000000000001
sg91
F1.0
sg92
F1.0
sg18
F0.75
sg38
F0.85
sg19
F0.8125
sg20
F1.0
sg21
F1.0
sg22
F1.0
sg14
F1.0
sg8
F0.8285714285714285
sg142
F1.0
sg65
F0.7916666666666667
sg49
F1.0
ssS'gv1l9iqcam'
p294
(dp295
sS'31ApG55XoV'
p296
(dp297
sS'517LN52NOL'
p298
(dp299
sS'gPaagaJ8aq'
p300
(dp301
sS'hqew2E2l61'
p302
(dp303
sg28
(dp304
g4
F0.7803030303030303
sg26
F1.0
sg128
F0.625
sg20
F0.78125
ssS'39Uc7ru04l'
p305
(dp306
sS'CEA35ELhs4'
p307
(dp308
sg187
(dp309
g55
F1.0
sg63
F0.761904761904762
sg59
F0.7777777777777777
sg62
F0.75
ssS'DS5ecUMGJi'
p310
(dp311
sS'eD0u9WOep7'
p312
(dp313
sS'EV28POlwE4'
p314
(dp315
sg40
(dp316
g55
F0.7777777777777778
sg3
F0.875
sg4
F0.8690476190476191
sg5
F0.75
sg56
F1.0
sg45
F1.0
sg42
F1.0
sg35
F1.0
sg46
F0.75
sg25
F1.0
sg47
F0.75
sg37
F0.875
sg10
F0.8
sg13
F1.0
sg57
F0.888888888888889
sg41
F0.6666666666666666
sg15
F1.0
sg16
F0.7999999999999999
sg17
F1.0
sg58
F1.0
sg38
F1.0
sg20
F1.0
sg39
F1.0
sg21
F0.8
sg22
F0.6666666666666666
sg89
F0.7222222222222223
sg125
F0.75
sg8
F0.75
sg65
F1.0
ssg163
(dp317
g4
F1.0
sg10
F0.75
ssS'VHCF3iE0a4'
p318
(dp319
sg13
(dp320
g55
F0.7777777777777777
sg1
F1.0
sg4
F0.8333333333333334
sg5
F0.8333333333333333
sg56
F0.6666666666666666
sg45
F1.0
sg42
F1.0
sg35
F1.0
sg3
F0.75
sg46
F0.8125
sg25
F0.8125
sg47
F0.75
sg9
F1.0
sg37
F1.0
sg10
F0.75
sg11
F0.6666666666666666
sg79
F0.6666666666666666
sg40
F0.75
sg12
F1.0
sg57
F0.7777777777777777
sg65
F1.0
sg16
F1.0
sg17
F1.0
sg38
F0.8125
sg19
F1.0
sg20
F0.8055555555555556
sg39
F0.8125
sg21
F1.0
sg22
F1.0
sg90
F1.0
sg24
F0.75
sg8
F1.0
sg49
F1.0
ssg90
(dp321
g15
F1.0
sg4
F0.7142857142857143
sg5
F0.8333333333333333
sg17
F0.8666666666666667
sg45
F0.7777777777777777
sg42
F0.75
sg16
F0.8333333333333334
sg46
F0.75
sg8
F0.7333333333333334
sg48
F1.0
sg13
F0.8333333333333333
sg37
F0.6666666666666666
sg22
F1.0
ssS'9QD9297moO'
p322
(dp323
sS'Hd9GW3f95j'
p324
(dp325
sS'f45jOmRd4S'
p326
(dp327
sS'wY56ZI2gyL'
p328
(dp329
sg16
(dp330
g55
F1.0
sg1
F1.0
sg4
F0.925
sg5
F0.8968253968253967
sg56
F1.0
sg45
F1.0
sg7
F1.0
sg35
F0.8
sg3
F1.0
sg46
F1.0
sg25
F0.8400000000000001
sg47
F1.0
sg48
F1.0
sg42
F1.0
sg9
F1.0
sg37
F0.8714285714285713
sg10
F0.8571428571428572
sg79
F1.0
sg40
F1.0
sg12
F1.0
sg13
F1.0
sg57
F1.0
sg41
F1.0
sg90
F1.0
sg15
F1.0
sg17
F1.0
sg58
F1.0
sg91
F1.0
sg18
F1.0
sg38
F1.0
sg19
F1.0
sg20
F1.0
sg39
F1.0
sg21
F1.0
sg22
F1.0
sg43
F1.0
sg23
F1.0
sg24
F1.0
sg14
F1.0
sg8
F1.0
sg65
F1.0
sg49
F1.0
ssS'12M70dm49w'
p331
(dp332
sS'56dTCKdr74'
p333
(dp334
sS'e7uv9PqtYY'
p335
(dp336
sS'11fnXrq9Jf'
p337
(dp338
sS'2rSW5fZ50h'
p339
(dp340
sg92
(dp341
g3
F0.75
sg4
F1.0
sg17
F1.0
sg10
F1.0
sg58
F1.0
sg42
F1.0
sg18
F1.0
sg25
F0.75
sg19
F1.0
sg57
F1.0
sg37
F0.875
ssS'yB480DNZ70'
p342
(dp343
sg38
(dp344
g55
F0.7777777777777777
sg3
F1.0
sg89
F1.0
sg5
F0.8333333333333334
sg56
F1.0
sg45
F1.0
sg42
F1.0
sg35
F0.75
sg46
F0.7777777777777778
sg4
F0.7983193277310924
sg47
F0.75
sg37
F0.72
sg10
F0.7678571428571429
sg79
F1.0
sg40
F1.0
sg12
F0.6666666666666666
sg13
F1.0
sg57
F0.8095238095238094
sg41
F0.64
sg14
F0.8
sg16
F0.6666666666666667
sg17
F0.8186813186813187
sg58
F1.0
sg18
F0.8333333333333333
sg19
F1.0
sg20
F1.0
sg39
F1.0
sg21
F0.7333333333333333
sg22
F0.5833333333333334
sg8
F0.7142857142857143
sg24
F0.75
sg25
F1.0
sg65
F1.0
ssg61
(dp345
g59
F1.0
sg64
F1.0
sg47
F1.0
sg62
F1.0
ssg65
(dp346
g55
F0.75
sg3
F0.75
sg4
F0.8333333333333333
sg5
F0.75
sg56
F0.7333333333333334
sg45
F0.8333333333333334
sg7
F1.0
sg46
F0.6666666666666666
sg8
F0.8
sg47
F0.7777777777777777
sg37
F0.8333333333333334
sg10
F0.75
sg79
F0.611111111111111
sg40
F0.75
sg13
F1.0
sg57
F0.75
sg15
F1.0
sg16
F0.8666666666666667
sg17
F0.8666666666666668
sg58
F0.7777777777777778
sg91
F1.0
sg18
F1.0
sg20
F0.7777777777777778
sg39
F0.75
sg21
F1.0
sg49
F1.0
sg38
F0.75
sg25
F0.65
ssS't0fI2c7EMH'
p347
(dp348
sS'Wi92e1D7bp'
p349
(dp350
sS'4ajdr1a4Kc'
p351
(dp352
sg107
(dp353
g123
F0.8125
sg4
F0.875
sg105
F0.75
ssS'7XQtQA55O7'
p354
(dp355
sg64
(dp356
g61
F1.0
sg47
F1.0
sg62
F1.0
sg63
F1.0
ss.