(dp0
S'XJyS25Yg27'
p1
(dp2
S'Gwk4z777oU'
p3
F1.0
sS'ajPRq0Q08b'
p4
F1.0
sS'XL0eQIoG72'
p5
F1.0
sS'8gH5u019ZH'
p6
F1.0
sS'81E41tTtV9'
p7
F1.0
sS'80nlN05JQ6'
p8
F1.0
sS'h0UbH181l8'
p9
F1.0
sS'90o991hXMa'
p10
F1.0
sS'S7E3jvZbGG'
p11
F1.0
sS'y5009rpZ12'
p12
F1.0
sS'1kKxS8urAH'
p13
F1.0
sS'm64Rgy40OF'
p14
F1.0
sS'5a5qA8VLfI'
p15
F1.0
sS'Hd9GW3f95j'
p16
F1.0
sS'X5eS5kvC8h'
p17
F1.0
sS'dvG32rxRzQ'
p18
F1.0
sS'l5eh0S53tB'
p19
F1.0
sS'saNy7ix5ZY'
p20
F1.0
sS'EfN583275t'
p21
F1.0
sS'i8f2gg51r5'
p22
F1.0
sS'0U9x5pNv8t'
p23
F1.0
sS'HujcxU5LVb'
p24
F1.0
sS'78t79xOebG'
p25
F1.0
ssS'M7hLaVJGvX'
p26
(dp27
g6
F1.0
ssS'Fx8d98DRud'
p28
(dp29
S'wY56ZI2gyL'
p30
F1.0
sg4
F1.0
sS'X4ZaxfDz3Q'
p31
F1.0
sS'Qwq8d0du28'
p32
F1.0
sg13
F1.0
sS'HvghFVBS5v'
p33
F1.0
sS'z1iLCTB32T'
p34
F1.0
sS'qL6HDg57R9'
p35
F1.0
sg20
F1.0
sS'PE6x6PxZ42'
p36
F1.0
ssS'DS5ecUMGJi'
p37
(dp38
sS'9eV0EGVC6j'
p39
(dp40
S'apCLF0uF21'
p41
F0.75
sg4
F0.75
sg5
F0.8333333333333333
sS'tyU2s0MBzm'
p42
F0.6666666666666666
sg32
F0.75
sS'LnVZmUuwc8'
p43
F0.75
sg7
F0.6666666666666666
sS'8d194g9ccT'
p44
F0.8333333333333333
sg9
F0.7777777777777777
sS'4pzSijxuK6'
p45
F0.75
sg22
F0.8333333333333333
sS'6jCygPdswz'
p46
F0.75
sS'1bJbgQ32E3'
p47
F1.0
sg19
F0.75
ssS'6bJ4auIa8L'
p48
(dp49
g17
F1.0
sg4
F1.0
sg5
F1.0
sg19
F1.0
sS'46z59pQP58'
p50
F1.0
sS'Ru21xRreim'
p51
F1.0
sg18
F1.0
sg14
F1.0
sg35
F1.0
sS'OS2vxzjz6W'
p52
F1.0
sg20
F1.0
sg9
F1.0
sg22
F1.0
sg10
F1.0
sS'SoEcLAeJi1'
p53
F1.0
sg23
F1.0
ssS'Exz0X2naK1'
p54
(dp55
g5
F1.0
ssS'Zl09dc50NB'
p56
(dp57
sS'pVG9cgOpCR'
p58
(dp59
sS'0GlR30c2Mt'
p60
(dp61
S'bt0ZuHaCGY'
p62
F1.0
sS'g209g5Vve6'
p63
F1.0
sg31
F0.7777777777777777
sg4
F1.0
sg42
F0.8
sg12
F0.8333333333333333
sg43
F1.0
sg50
F1.0
sg51
F1.0
sg53
F1.0
sg8
F1.0
sg20
F0.8333333333333333
sg7
F0.7142857142857143
sS'yB480DNZ70'
p64
F1.0
sg35
F1.0
sg22
F0.75
sS'hwF4tyWU50'
p65
F1.0
sg23
F0.6666666666666666
sS'K8b2FfNFdp'
p66
F1.0
sS'E38It7fjg0'
p67
F1.0
sg19
F0.75
ssS'77y7iIIXuv'
p68
(dp69
g4
F1.0
sg5
F1.0
sg42
F1.0
sS'02i5jCrfQK'
p70
F1.0
sg7
F1.0
sS'c1zVCHxCEz'
p71
F1.0
sS'3hSu07XfGd'
p72
F1.0
sS'stK4H8Vit6'
p73
F1.0
sS'Dmq6441349'
p74
F1.0
sS'oEt3YTvS4G'
p75
F1.0
sS'IQ98biy227'
p76
F1.0
sS'88Uhb8760x'
p77
F1.0
sg12
F1.0
sS'242fhbKRf9'
p78
F1.0
sg46
F1.0
sg47
F1.0
sg16
F1.0
sg18
F1.0
sg19
F1.0
sg43
F1.0
sS'rE6U5574qn'
p79
F1.0
sS'11fnXrq9Jf'
p80
F1.0
sg22
F1.0
sS'YNGlv7F45C'
p81
F1.0
sS'mNzo8mGzu9'
p82
F1.0
sg23
F1.0
sS'5ZR29q8c56'
p83
F1.0
sg9
F1.0
sS'1CI7f2R98c'
p84
F1.0
sS'odPTXtfS78'
p85
F1.0
sS'4X3016rdOZ'
p86
F1.0
sg25
F1.0
ssS'i5Y9A05Ph8'
p87
(dp88
sS'D4md1bS6DC'
p89
(dp90
sS'Mhc6xUn6X1'
p91
(dp92
sS'kh6j72S63h'
p93
(dp94
sS'a43DzeQWut'
p95
(dp96
sg77
(dp97
g4
F0.625
sg5
F0.8333333333333334
sg62
F0.75
sg76
F0.75
sg70
F0.75
sg71
F0.75
sS'z9svx3mA4s'
p98
F1.0
sS'QS4cvQ8w0o'
p99
F0.75
sg18
F0.7999999999999999
sg72
F0.75
sS'7y5NJZ7S6u'
p100
F0.75
sg35
F0.7777777777777777
sg68
F1.0
sS'2IaH8665Ha'
p101
F0.75
sg15
F0.8333333333333333
sg45
F1.0
sg47
F1.0
sg67
F0.75
sg78
F1.0
ssS'2kb387yOiG'
p102
(dp103
g5
F1.0
sg19
F1.0
sg32
F1.0
sg70
F1.0
ssS'y2Z0J1858D'
p104
(dp105
sS'vpuUyzUJ0z'
p106
(dp107
g42
F1.0
sg32
F1.0
sg7
F1.0
sg35
F1.0
sS'UmsZ3gHcg7'
p108
F1.0
sg9
F1.0
sg75
F1.0
sS'5LMy832c47'
p109
F1.0
sg86
F1.0
ssS'H4UD7rojkA'
p110
(dp111
sg101
(dp112
g4
F1.0
sg77
F1.0
sg19
F1.0
sg71
F1.0
sg80
F1.0
sg73
F1.0
sS'5yasLi1Avt'
p113
F1.0
sg47
F1.0
ssS'Axp5cwW7T8'
p114
(dp115
S'MPqJdqnPtc'
p116
F1.0
sg18
F0.75
sg67
F0.75
sS'9EAa0nJjb1'
p117
F0.6666666666666666
sg62
F0.8333333333333333
ssS'9TvPity5px'
p118
(dp119
sS'LQDsuDw2tX'
p120
(dp121
g3
F0.75
sg18
F0.8333333333333333
sg5
F0.6666666666666666
sg19
F0.6666666666666666
sg14
F1.0
sg9
F0.75
sg22
F0.8333333333333333
sg117
F0.8333333333333333
ssS'OPv5PP9Bi4'
p122
(dp123
g4
F1.0
sg19
F1.0
sg32
F1.0
sg7
F1.0
sg51
F1.0
sg14
F1.0
sg52
F1.0
sS'USdRVl9AOe'
p124
F1.0
sg18
F1.0
sg45
F1.0
sg22
F1.0
sg15
F1.0
sS'LP15lX652E'
p125
F1.0
sg67
F1.0
sg16
F1.0
ssg14
(dp126
g41
F1.0
sg1
F0.875
sg4
F1.0
sg5
F0.75
sg62
F0.6666666666666666
sg32
F0.75
sg7
F0.75
sg51
F0.7333333333333334
sg53
F1.0
sg48
F1.0
sg3
F0.75
sg9
F0.7777777777777778
sg10
F1.0
sg31
F0.7777777777777778
sg13
F0.75
sg120
F1.0
sg82
F1.0
sg11
F1.0
sg15
F0.75
sg117
F0.8333333333333334
sg67
F1.0
sg17
F1.0
sg18
F0.7999999999999999
sg19
F0.7916666666666667
sg43
F1.0
sg50
F1.0
sg35
F1.0
sg22
F0.8333333333333334
sg122
F0.75
sg23
F0.7777777777777777
sS'668lBbaKFE'
p127
F0.75
sS'ZP886G3Z76'
p128
F0.75
sg20
F1.0
sg125
F0.75
ssg71
(dp129
g41
F0.7777777777777777
sg3
F0.8
sg4
F0.8333333333333333
sg5
F0.7777777777777777
sg42
F0.7777777777777777
sg32
F0.75
sg70
F0.6666666666666666
sg7
F0.75
sg53
F1.0
sg72
F0.7777777777777777
sg99
F1.0
sg73
F1.0
sg68
F0.7777777777777777
sg109
F0.75
sg76
F1.0
sg77
F1.0
sg12
F0.75
sS'f1924U65I1'
p130
F0.75
sg101
F1.0
sS'verm1Wp12u'
p131
F0.8333333333333333
sg15
F1.0
sg46
F0.75
sg86
F1.0
sg16
F1.0
sg18
F1.0
sg19
F1.0
sg43
F0.75
sg21
F1.0
sg22
F0.8333333333333334
sg81
F0.75
sg78
F1.0
sg23
F1.0
sg83
F1.0
sS'5x5fHvFFLv'
p132
F0.75
sg124
F0.75
sg9
F0.75
sg25
F0.75
sg113
F0.75
ssS'wwSQeRjs22'
p133
(dp134
sS'auW9kr3fh6'
p135
(dp136
sS'7N07jFgyQJ'
p137
(dp138
g15
F1.0
sg70
F1.0
ssg47
(dp139
g4
F0.7115384615384615
sg5
F1.0
sg42
F1.0
sg32
F1.0
sg70
F0.7999999999999999
sg7
F1.0
sS's19Mo891H5'
p140
F0.8888888888888888
sg39
F1.0
sS'5VZLSGPT10'
p141
F1.0
sg72
F1.0
sg68
F1.0
sg74
F1.0
sg75
F0.75
sg10
F0.75
sg53
F0.75
sg76
F1.0
sg62
F0.75
sg77
F1.0
sg12
F1.0
sg6
F1.0
sg101
F0.6666666666666666
sg46
F0.7916666666666666
sg67
F0.75
sg17
F0.6666666666666666
sg18
F0.8571428571428571
sg117
F0.75
sg43
F0.7777777777777777
sg80
F1.0
sS'C0qLCIhI0O'
p142
F0.75
sg98
F0.7777777777777777
sg100
F0.75
sg20
F0.75
sg21
F0.75
sg22
F0.75
sg82
F0.7777777777777778
sg23
F1.0
sg33
F1.0
sg34
F1.0
sg128
F1.0
sS'c3Ee3W8hyq'
p143
F1.0
ssg67
(dp144
g41
F1.0
sg3
F0.6666666666666666
sg4
F1.0
sg5
F0.8
sg42
F1.0
sg32
F0.75
sg70
F1.0
sg7
F0.8333333333333334
sS'8o0mJnIpFH'
p145
F1.0
sg53
F1.0
sg72
F1.0
sg60
F1.0
sg9
F0.75
sg109
F0.75
sg76
F1.0
sg19
F0.7333333333333334
sg62
F0.7857142857142857
sg77
F1.0
sg13
F0.8333333333333333
sg52
F1.0
sg114
F0.75
sS'66Ak255E3j'
p146
F1.0
sg82
F1.0
sg14
F1.0
sg51
F0.75
sg15
F0.6666666666666666
sg125
F0.75
sg46
F0.625
sg47
F1.0
sg16
F1.0
sg66
F1.0
sg17
F0.7777777777777777
sg18
F0.8125
sS'tB4vqSxzqo'
p147
F1.0
sS't4K5z0e2NZ'
p148
F0.75
sg80
F1.0
sg98
F0.75
sg100
F0.7777777777777777
sg21
F0.75
sg22
F0.8333333333333333
sg116
F0.75
sg122
F0.75
sg23
F0.75
sg63
F1.0
sg36
F0.75
sg124
F1.0
sg99
F1.0
sS'CZDz8OSRfI'
p149
F1.0
sg45
F0.8888888888888888
sg85
F0.6666666666666666
sg31
F0.75
sg117
F0.8333333333333333
ssS'XqBaV46VbC'
p150
(dp151
S'45TTYcotWk'
p152
F1.0
sg4
F1.0
ssS'6W08a98ZQV'
p153
(dp154
g3
F0.75
sg4
F0.75
sg5
F0.75
sg19
F1.0
sg12
F0.75
sg43
F0.75
sg130
F0.75
sg70
F0.6666666666666666
sg35
F0.75
sg131
F0.8333333333333333
sg73
F1.0
sg46
F0.75
ssg19
(dp155
g1
F1.0
sg39
F0.75
sg48
F0.6666666666666666
sg60
F0.7777777777777777
sg68
F0.7777777777777777
sg24
F1.0
sg101
F0.8333333333333333
sg131
F0.8333333333333334
sg120
F1.0
sg122
F0.6666666666666666
sg14
F0.75
sg67
F0.7777777777777778
sg153
F1.0
sg50
F0.75
sg44
F1.0
sg100
F1.0
sg20
F0.7999999999999999
sg78
F1.0
sg83
F1.0
sg127
F1.0
sg34
F0.7777777777777777
sS'XrH5AAPdtj'
p156
F0.7777777777777778
sg25
F0.7777777777777777
sg3
F0.7380952380952381
sg62
F0.8333333333333333
sg32
F0.65
sg141
F0.8333333333333334
sg99
F1.0
sg10
F0.7777777777777777
sg12
F0.8571428571428571
sg130
F0.75
sg102
F0.8333333333333333
sg46
F0.7333333333333334
sg17
F0.5833333333333334
sg31
F0.875
sg43
F0.6875
sS'0w8srd7i18'
p157
F1.0
sg113
F0.75
sg116
F1.0
sg65
F0.8333333333333333
sg117
F0.75
sg132
F0.75
sg124
F0.8125
sg45
F0.7777777777777778
sg84
F1.0
sS'D431zXkvuC'
p158
F0.75
sg41
F0.6875
sg4
F0.6796875
sg5
F0.875
sg42
F0.7666666666666666
sg70
F0.6666666666666666
sg7
F0.8214285714285715
sg71
F1.0
sg53
F0.8125
sg72
F0.8125
sg8
F0.8125
sg73
F0.8888888888888888
sS'Uv4cSe2ijd'
p159
F0.75
sg109
F0.75
sg76
F1.0
sg81
F0.75
sg23
F0.8333333333333334
sg128
F1.0
sg147
F0.75
sg11
F1.0
sg22
F0.7142857142857142
sg82
F0.75
sg63
F0.8
sg149
F1.0
sS'EWo6L00OAS'
p160
F0.75
sg6
F0.75
sg51
F1.0
sg140
F0.7777777777777777
sS'tlJn3I40bf'
p161
F1.0
sg9
F0.72
sS'39Uc7ru04l'
p162
F0.8333333333333334
sg13
F0.875
sS'dTIQk6Xt3r'
p163
F0.75
sS'EV28POlwE4'
p164
F1.0
sg52
F0.6875
sg15
F1.0
sg36
F1.0
sg16
F0.875
sg18
F0.8214285714285714
sS'16zN4n2fFO'
p165
F0.75
sg79
F0.75
sS'yf2V5ll9mN'
p166
F1.0
sS'm58s5oOZCm'
p167
F1.0
sg64
F0.8333333333333333
sg35
F0.8055555555555555
sg86
F1.0
sS'Wi92e1D7bp'
p168
F1.0
sg125
F0.75
ssg50
(dp169
g63
F1.0
sg17
F0.75
sg4
F1.0
sg19
F1.0
sg32
F0.7777777777777777
sg6
F0.75
sg13
F0.6666666666666666
sg51
F1.0
sS'Uml72Q91Du'
p170
F0.75
sg48
F1.0
sg20
F0.6666666666666666
sg7
F1.0
sg60
F0.75
sg9
F1.0
sg146
F0.75
sg14
F1.0
sg33
F1.0
sg66
F1.0
sg23
F0.75
ssS'EE579r50K3'
p171
(dp172
sg98
(dp173
g5
F1.0
sg6
F1.0
sg7
F1.0
sg140
F1.0
sg141
F0.6666666666666666
sg99
F0.75
sg75
F0.75
sg76
F0.75
sg77
F1.0
sg12
F0.75
sg163
F0.75
sg36
F1.0
sS'9QD9297moO'
p174
F1.0
sg128
F1.0
sg18
F0.8333333333333334
sg148
F0.75
sg43
F1.0
sg100
F0.75
sg20
F1.0
sg78
F0.7777777777777777
sg46
F0.875
sg47
F0.7777777777777777
sg67
F0.75
sg45
F0.75
sg84
F1.0
sg143
F1.0
ssg44
(dp175
g41
F0.75
sg4
F1.0
sg5
F1.0
sg42
F0.8333333333333333
sg32
F0.75
sg43
F0.75
sg39
F0.75
sg52
F0.75
sg9
F0.75
sg125
F0.75
sg22
F0.6666666666666666
sg19
F1.0
ssS'8a0vIMw4At'
p176
(dp177
g167
F0.75
sg4
F0.75
ssS'h31E235Th5'
p178
(dp179
sg100
(dp180
g41
F0.7777777777777777
sg3
F1.0
sg4
F0.875
sg5
F0.75
sg42
F0.75
sg32
F0.75
sg7
F1.0
sg72
F0.75
sg99
F0.75
sg9
F1.0
sg75
F1.0
sg109
F0.75
sg77
F0.75
sg13
F0.75
sg15
F1.0
sg36
F0.8333333333333333
sg47
F1.0
sg67
F0.7777777777777778
sS'0KS4yy9G96'
p181
F1.0
sg18
F0.7777777777777777
sg19
F1.0
sg80
F0.75
sg98
F1.0
sg66
F1.0
sg21
F0.8125
sg23
F0.7777777777777777
sg63
F1.0
sg132
F0.75
sg124
F1.0
sg128
F1.0
sg149
F1.0
sg45
F0.75
sg85
F0.8333333333333333
ssg20
(dp182
g1
F0.75
sg4
F0.875
sg42
F1.0
sg28
F1.0
sg6
F1.0
sg7
F1.0
sg48
F0.75
sg3
F0.75
sg60
F1.0
sg9
F1.0
sg31
F1.0
sg12
F0.6666666666666666
sg13
F1.0
sg14
F0.75
sg36
F1.0
sg47
F0.8333333333333334
sg128
F0.75
sg16
F1.0
sg30
F1.0
sg18
F0.75
sg19
F0.7999999999999999
sg43
F1.0
sg50
F1.0
sg80
F1.0
sg98
F1.0
sg21
F1.0
sg22
F0.75
sg81
F1.0
sg23
F0.7777777777777778
sg33
F1.0
sg34
F1.0
sg86
F1.0
sg143
F1.0
ssS'DkXJps09H6'
p183
(dp184
S'jw3jOU9C8I'
p185
F1.0
sg141
F1.0
ssS'rA9d62o2bb'
p186
(dp187
sS'SH1cSNDIA8'
p188
(dp189
sS'6d2wZ1x370'
p190
(dp191
sS'075kbY53c1'
p192
(dp193
sS'YgQ57c2glM'
p194
(dp195
sg83
(dp196
g4
F0.75
sg5
F0.75
sg19
F1.0
sg12
F0.75
sg43
F0.75
sg130
F0.75
sg71
F1.0
sg72
F0.75
sg68
F0.75
sg22
F0.8333333333333333
sg15
F1.0
sg46
F0.75
sg81
F0.75
ssg24
(dp197
g10
F1.0
sg1
F1.0
sg140
F1.0
sg19
F1.0
sg12
F1.0
ssg108
(dp198
g141
F1.0
sg109
F1.0
sg106
F1.0
sg42
F1.0
ssg127
(dp199
g62
F1.0
sg31
F0.75
sg4
F0.8148148148148149
sg19
F0.8888888888888888
sg32
F1.0
sg13
F1.0
sg51
F1.0
sg35
F1.0
sg9
F1.0
sg125
F1.0
sg14
F0.75
sg78
F1.0
sg23
F0.75
ssS'6EjPt2xgrB'
p200
(dp201
sg34
(dp202
g4
F1.0
sg42
F0.75
sg28
F0.75
sg141
F1.0
sg161
F1.0
sg73
F1.0
sg109
F0.75
sg19
F1.0
sg32
F0.75
sg12
F1.0
sg13
F0.6666666666666666
sg164
F1.0
sg36
F0.8333333333333333
sg47
F1.0
sg30
F0.8333333333333333
sg31
F1.0
sg43
F0.75
sg79
F1.0
sg20
F0.6666666666666666
sg113
F1.0
sg86
F0.6666666666666666
sg132
F0.75
sg33
F1.0
sg9
F1.0
sg45
F1.0
sg156
F1.0
ssS'emTkxI1340'
p203
(dp204
sS'081u59Iq1D'
p205
(dp206
sS'YWe8V668Uz'
p207
(dp208
sS'5AhC6ORULJ'
p209
(dp210
sg156
(dp211
g3
F1.0
sg5
F1.0
sg19
F1.0
sg12
F1.0
sg124
F1.0
sg32
F1.0
sg34
F1.0
sg164
F1.0
sg9
F1.0
sg45
F1.0
sg22
F1.0
sg16
F1.0
ssS'TAw598sUia'
p212
(dp213
sS'2J2SH6Fk63'
p214
(dp215
sS'eqyJr5jsoU'
p216
(dp217
sS'0YvZonpLW8'
p218
(dp219
sS'mt4GxUF641'
p220
(dp221
g52
F1.0
ssg25
(dp222
g1
F1.0
sg4
F1.0
sg5
F1.0
sg42
F1.0
sg32
F1.0
sg7
F1.0
sg71
F1.0
sS'0w3IAZa8rQ'
p223
F1.0
sg3
F1.0
sg72
F1.0
sg9
F1.0
sg68
F1.0
sg109
F1.0
sg12
F1.0
sg15
F1.0
sg46
F1.0
sg16
F1.0
sg18
F1.0
sg147
F1.0
sg19
F1.0
sg80
F1.0
sg21
F1.0
sg22
F1.0
sg23
F1.0
sg36
F1.0
sg124
F1.0
sg73
F1.0
sg113
F1.0
ssg159
(dp224
g7
F0.75
sg4
F1.0
sg19
F0.6666666666666666
ssg3
(dp225
g41
F1.0
sg1
F1.0
sg4
F1.0
sg5
F1.0
sg42
F1.0
sg32
F1.0
sg70
F1.0
sg7
F1.0
sg71
F1.0
sg53
F1.0
sg17
F1.0
sg72
F1.0
sg9
F1.0
sg117
F1.0
sg109
F1.0
sg76
F1.0
sg62
F1.0
sg12
F1.0
sg13
F1.0
sg52
F1.0
sg131
F1.0
sg120
F1.0
sg14
F1.0
sg46
F1.0
sg67
F1.0
sg16
F1.0
sg156
F1.0
sg153
F1.0
sg18
F1.0
sg19
F1.0
sg43
F1.0
sg79
F1.0
sg80
F1.0
sg100
F1.0
sg20
F1.0
sg113
F1.0
sg22
F1.0
sg116
F1.0
sS'589M2uPIY4'
p226
F1.0
sg86
F1.0
sg36
F1.0
sg132
F1.0
sg124
F1.0
sg128
F1.0
sg149
F1.0
sg130
F1.0
sg73
F1.0
sg45
F1.0
sS'yuB6nxh3FX'
p227
F1.0
sg31
F1.0
sg25
F1.0
sg21
F1.0
ssg227
(dp228
g3
F1.0
sg4
F1.0
sg5
F1.0
sg42
F1.0
sg12
F1.0
sg52
F1.0
sg9
F1.0
sg46
F1.0
sg76
F1.0
ssS'6e1627evYc'
p229
(dp230
sg62
(dp231
g41
F0.7777777777777777
sg3
F1.0
sg4
F0.8333333333333333
sg5
F0.8
sg42
F1.0
sg32
F1.0
sg7
F1.0
sg53
F1.0
sg72
F0.75
sg60
F1.0
sg9
F1.0
sg76
F0.7777777777777778
sg31
F0.7777777777777777
sg114
F1.0
sg77
F0.75
sg12
F0.7777777777777777
sg13
F1.0
sg152
F1.0
sg146
F0.8333333333333333
sg14
F1.0
sg125
F1.0
sS'WmIXxzmmD3'
p232
F0.75
sg46
F0.75
sg47
F0.6666666666666666
sg67
F0.8125
sg16
F1.0
sg18
F0.8125
sg147
F1.0
sg19
F1.0
sg43
F1.0
sg64
F1.0
sg35
F1.0
sg113
F1.0
sg22
F1.0
sg116
F1.0
sg65
F1.0
sg82
F0.75
sg117
F1.0
sg124
F1.0
sg127
F1.0
sg8
F1.0
sg149
F1.0
sg168
F1.0
sg45
F0.75
sg85
F0.8333333333333333
sg21
F1.0
ssg32
(dp233
g41
F1.0
sg3
F1.0
sg4
F0.8666666666666666
sg5
F1.0
sg42
F0.8
sg28
F1.0
sg70
F1.0
sg7
F1.0
sg71
F1.0
sg53
F0.75
sg39
F1.0
sg8
F0.75
sg73
F0.75
sg117
F1.0
sg75
F1.0
sg109
F1.0
sg11
F1.0
sg163
F1.0
sg62
F0.8
sg162
F1.0
sg13
F1.0
sg6
F1.0
sg106
F1.0
sg52
F0.8125
sg131
F1.0
sg102
F1.0
sS'Fe9oJAU48c'
p234
F1.0
sS'Si4v9635O3'
p235
F0.7777777777777777
sg78
F0.8333333333333334
sg14
F1.0
sg15
F1.0
sg125
F1.0
sg46
F0.875
sg47
F1.0
sg67
F1.0
sg16
F1.0
sg181
F1.0
sg31
F1.0
sg18
F1.0
sg165
F0.75
sg19
F0.8333333333333333
sg43
F1.0
sg50
F1.0
sg44
F1.0
sg100
F1.0
sg35
F0.75
sg21
F1.0
sg22
F1.0
sg170
F1.0
sg116
F0.8125
sS'93YVE85s1x'
p236
F0.75
sg65
F0.6666666666666666
sg122
F1.0
sg23
F0.8333333333333333
sg36
F1.0
sg132
F1.0
sg12
F0.7777777777777777
sg124
F1.0
sg127
F0.75
sg34
F1.0
sg99
F1.0
sg128
F1.0
sg9
F0.8333333333333334
sg45
F1.0
sg25
F1.0
sg156
F1.0
sg66
F1.0
sg86
F1.0
sg143
F1.0
ssS'zUlk9c7UEv'
p237
(dp238
sg11
(dp239
g1
F0.875
sg18
F0.7999999999999999
sg5
F0.6666666666666666
sg19
F0.6666666666666666
sg32
F0.75
sg70
F1.0
sg51
F0.75
sg14
F1.0
sg22
F0.8333333333333333
sg15
F0.75
sg23
F0.75
ssS'42FRuGgL06'
p240
(dp241
sg141
(dp242
g41
F1.0
sg4
F0.8148148148148149
sg5
F1.0
sg70
F1.0
sg161
F0.8333333333333333
sg72
F1.0
sg73
F0.75
sg76
F1.0
sg31
F0.75
sg12
F1.0
sS'6O31vedZbI'
p243
F1.0
sg52
F1.0
sg46
F1.0
sg47
F0.75
sg19
F0.8888888888888888
sg80
F0.75
sg98
F1.0
sg113
F0.7777777777777777
sg22
F1.0
sg82
F0.75
sg108
F0.75
sg174
F1.0
sg34
F0.75
sg185
F0.75
sg183
F0.75
sg45
F1.0
ssS'yDO9pl8GC0'
p244
(dp245
sS'WD2Q7495E0'
p246
(dp247
g64
F0.6666666666666666
ssg99
(dp248
g4
F0.875
sg5
F1.0
sg42
F0.8333333333333333
sg32
F0.75
sg70
F0.8333333333333333
sg7
F1.0
sg71
F1.0
sg53
F0.75
sg72
F1.0
sg76
F1.0
sg77
F1.0
sg163
F0.6666666666666666
sg146
F0.6666666666666666
sg67
F0.7777777777777777
sg16
F1.0
sg66
F0.75
sg18
F0.7777777777777777
sg147
F0.75
sg19
F1.0
sg98
F1.0
sg100
F1.0
sg22
F0.75
sg82
F0.75
sg63
F0.6666666666666666
ssS'R62GeR4qce'
p249
(dp250
sg74
(dp251
g4
F1.0
sg5
F1.0
sg12
F1.0
sg70
F1.0
sg76
F1.0
sg72
F1.0
sg18
F1.0
sg68
F1.0
sS'34f4oB5Cod'
p252
F1.0
sg84
F1.0
sg46
F0.7333333333333334
sg47
F1.0
sg78
F1.0
sg23
F1.0
ssg10
(dp253
g1
F1.0
sg4
F1.0
sg5
F1.0
sg70
F1.0
sg7
F1.0
sg140
F1.0
sg48
F1.0
sg8
F1.0
sg9
F1.0
sg24
F1.0
sg53
F1.0
sg76
F1.0
sg12
F1.0
sg6
F1.0
sg163
F1.0
sg14
F1.0
sg47
F1.0
sg128
F1.0
sg17
F1.0
sg18
F1.0
sg19
F1.0
sg43
F1.0
sg22
F1.0
sg116
F1.0
sg78
F1.0
sg117
F1.0
sg160
F1.0
sg84
F1.0
ssS'F9WJ1RKM4L'
p254
(dp255
sS'NX8N2fJ630'
p256
(dp257
sS'JU5Ms0pxvu'
p258
(dp259
sS'9hs21hUG5O'
p260
(dp261
sg12
(dp262
g41
F1.0
sg1
F1.0
sg4
F1.0
sg5
F1.0
sg42
F1.0
sg32
F1.0
sg7
F1.0
sg71
F1.0
sg140
F1.0
sg141
F1.0
sg3
F1.0
sg72
F1.0
sg60
F1.0
sg9
F1.0
sg68
F1.0
sg74
F1.0
sg75
F1.0
sg10
F1.0
sg52
F1.0
sg76
F1.0
sg19
F1.0
sg62
F1.0
sg130
F1.0
sg243
F1.0
sg164
F1.0
sg65
F1.0
sg131
F1.0
sg15
F1.0
sg232
F1.0
sg46
F1.0
sg174
F1.0
sg53
F1.0
sg16
F1.0
sg153
F1.0
sg18
F1.0
sg148
F1.0
sg43
F1.0
sg79
F1.0
sg98
F1.0
sg167
F1.0
sg35
F1.0
sg113
F1.0
sg22
F1.0
sg116
F1.0
sg81
F1.0
sg78
F1.0
sg23
F1.0
sg63
F1.0
sg252
F1.0
sg227
F1.0
sg83
F1.0
sg124
F1.0
sg47
F1.0
sg86
F1.0
sg34
F1.0
sg8
F1.0
sg24
F1.0
sg128
F1.0
sg20
F1.0
sg45
F1.0
sg156
F1.0
sg85
F1.0
sg31
F1.0
sg36
F1.0
sg25
F1.0
sg21
F1.0
ssg166
(dp263
g4
F0.9
sg19
F1.0
sg13
F1.0
sg35
F1.0
sg73
F0.75
sg113
F0.75
sg15
F1.0
ssg76
(dp264
g41
F1.0
sg3
F1.0
sg4
F1.0
sg5
F1.0
sg42
F1.0
sg70
F1.0
sg7
F1.0
sg71
F1.0
sg140
F1.0
sg141
F1.0
sg72
F1.0
sg8
F1.0
sg9
F1.0
sg68
F1.0
sg74
F1.0
sg10
F1.0
sg19
F1.0
sg62
F1.0
sg77
F1.0
sg12
F1.0
sg168
F1.0
sg163
F1.0
sg52
F1.0
sg131
F1.0
sg15
F1.0
sg232
F1.0
sg46
F1.0
sg174
F1.0
sg67
F1.0
sg18
F1.0
sg148
F1.0
sg43
F1.0
sg98
F1.0
sg167
F1.0
sg35
F1.0
sg113
F1.0
sg22
F1.0
sg116
F1.0
sg81
F1.0
sg78
F1.0
sg23
F1.0
sg252
F1.0
sg227
F1.0
sg47
F1.0
sg99
F1.0
sg128
F1.0
sg157
F1.0
sg84
F1.0
sg36
F1.0
ssS'68gXsA3M68'
p265
(dp266
sg243
(dp267
g41
F1.0
sg4
F1.0
sg5
F1.0
sg12
F1.0
sg124
F1.0
sg141
F1.0
sg161
F1.0
sg72
F1.0
sg45
F1.0
sg164
F1.0
sg52
F1.0
sg46
F1.0
sg86
F1.0
ssg152
(dp268
g4
F1.0
sg80
F1.0
sg62
F1.0
sg150
F1.0
ssS'j0D7C5VG29'
p269
(dp270
sS'K46aEi2Oi7'
p271
(dp272
sS'3v8ytbUoc6'
p273
(dp274
sS'O46hm6g2nf'
p275
(dp276
sS'N6wWxh9CL4'
p277
(dp278
sg232
(dp279
g4
F1.0
sg76
F1.0
sg46
F1.0
sg12
F1.0
sg62
F1.0
ssg46
(dp280
g41
F1.0
sg3
F1.0
sg4
F1.0
sg5
F1.0
sg42
F1.0
sg32
F1.0
sg70
F1.0
sg71
F1.0
sg140
F1.0
sg39
F1.0
sg141
F1.0
sg17
F1.0
sg72
F1.0
sg9
F1.0
sg68
F1.0
sg74
F1.0
sg75
F1.0
sg53
F1.0
sg76
F1.0
sg19
F1.0
sg62
F1.0
sS'LM96hW22T2'
p281
F1.0
sg12
F1.0
sg130
F1.0
sg243
F1.0
sg52
F1.0
sg131
F1.0
sg15
F1.0
sg232
F1.0
sg86
F1.0
sg47
F1.0
sg67
F1.0
sg153
F1.0
sg18
F1.0
sg148
F1.0
sg43
F1.0
sg80
F1.0
sg98
F1.0
sg167
F1.0
sg83
F1.0
sg21
F1.0
sg22
F1.0
sg116
F1.0
sg226
F1.0
sg81
F1.0
sg78
F1.0
sg23
F1.0
sg252
F1.0
sg227
F1.0
sg45
F1.0
sg84
F1.0
sg25
F1.0
ssS'8cSO1GK90W'
p282
(dp283
sS'971l4W5kQs'
p284
(dp285
sg181
(dp286
g32
F0.75
sg13
F0.6666666666666666
sg7
F1.0
sg100
F1.0
sg9
F1.0
sg78
F1.0
ssg17
(dp287
g1
F1.0
sg4
F1.0
sg5
F1.0
sg70
F1.0
sg140
F1.0
sg48
F1.0
sg3
F1.0
sg9
F1.0
sg10
F1.0
sg146
F1.0
sg14
F1.0
sg36
F1.0
sg47
F1.0
sg53
F1.0
sg18
F1.0
sg147
F1.0
sg19
F1.0
sg50
F1.0
sg22
F1.0
sg116
F1.0
sg23
F1.0
sg46
F1.0
sg67
F1.0
sg160
F1.0
sg86
F1.0
sg117
F1.0
ssS'Zxu8oS1jJ2'
p288
(dp289
sg31
(dp290
g41
F0.75
sg3
F1.0
sg4
F0.8333333333333334
sg5
F1.0
sg42
F0.8333333333333334
sg28
F0.75
sg7
F0.95
sg145
F0.75
sg141
F1.0
sg60
F0.7777777777777777
sg9
F0.9166666666666666
sg62
F0.7999999999999999
sg32
F0.7777777777777777
sg12
F1.0
sg13
F0.7916666666666666
sg146
F0.6666666666666666
sg14
F0.8333333333333334
sg125
F0.75
sg36
F0.75
sg67
F0.6875
sg16
F1.0
sg30
F0.8333333333333333
sg18
F0.7777777777777777
sg19
F0.875
sg43
F1.0
sg35
F0.8333333333333334
sg22
F0.75
sg82
F0.7777777777777778
sg117
F0.6666666666666666
sg124
F1.0
sg127
F1.0
sg34
F1.0
sg128
F1.0
sg20
F0.7333333333333334
sg45
F1.0
sg33
F1.0
sg143
F1.0
ssg43
(dp291
g41
F1.0
sg3
F0.7777777777777778
sg4
F0.8888888888888888
sg5
F0.7999999999999999
sg42
F0.8
sg32
F1.0
sg6
F1.0
sg7
F1.0
sg71
F0.8333333333333333
sg53
F0.7777777777777777
sg39
F1.0
sg72
F0.75
sg60
F0.7777777777777778
sg9
F0.8666666666666666
sg68
F0.75
sg75
F1.0
sg10
F0.75
sg76
F1.0
sg62
F0.6666666666666666
sg12
F0.7777777777777777
sg65
F0.6666666666666666
sg131
F1.0
sg14
F0.6666666666666666
sg117
F0.75
sg46
F0.8333333333333333
sg47
F0.7999999999999999
sg128
F0.6666666666666666
sg153
F0.75
sg18
F0.75
sg19
F0.7857142857142857
sg142
F0.75
sg98
F1.0
sg44
F1.0
sg167
F1.0
sg35
F0.7
sg22
F0.75
sg226
F1.0
sg81
F1.0
sg23
F1.0
sg83
F0.75
sg132
F1.0
sg34
F1.0
sg8
F0.75
sg20
F1.0
sg31
F1.0
sg86
F0.8333333333333334
sg143
F1.0
ssS'E97430334J'
p292
(dp293
sS'40ARhM4nkF'
p294
(dp295
sS'hK3QE3xOF8'
p296
(dp297
sS'9iQ6dU8Ooj'
p298
(dp299
sS'Vc0J7iVot4'
p300
(dp301
sS'UEArk7W20r'
p302
(dp303
sg157
(dp304
g4
F1.0
sg19
F1.0
sg9
F1.0
sg76
F1.0
sg78
F1.0
sg23
F1.0
ssg113
(dp305
g41
F1.0
sg3
F1.0
sg4
F1.0
sg5
F1.0
sg42
F1.0
sg7
F0.7777777777777777
sg71
F1.0
sg141
F0.8333333333333334
sg161
F1.0
sg72
F1.0
sg73
F1.0
sg109
F1.0
sg76
F0.75
sg62
F1.0
sg12
F0.75
sg13
F1.0
sg101
F1.0
sg15
F1.0
sg36
F0.75
sg16
F1.0
sg19
F0.78125
sg80
F1.0
sg132
F1.0
sg124
F1.0
sg34
F1.0
sg166
F1.0
sg25
F1.0
ssS'yG447121nm'
p306
(dp307
sg33
(dp308
g30
F0.8333333333333333
sg31
F1.0
sg28
F0.75
sg50
F1.0
sg34
F1.0
sg13
F0.8
sg20
F0.6666666666666666
sg73
F1.0
sg47
F1.0
sg82
F1.0
ssg116
(dp309
g3
F1.0
sg4
F0.8333333333333334
sg5
F1.0
sg62
F0.8333333333333334
sg32
F0.8
sg6
F0.7777777777777777
sg7
F0.8333333333333334
sg140
F0.75
sg8
F0.7777777777777777
sg9
F0.7777777777777777
sg10
F0.75
sg53
F0.75
sg76
F1.0
sg42
F0.8333333333333333
sg162
F1.0
sg163
F0.75
sg114
F1.0
sg235
F1.0
sg46
F1.0
sg67
F0.75
sg17
F0.75
sg18
F0.75
sg165
F0.75
sg19
F1.0
sg80
F1.0
sg64
F0.8333333333333334
sg21
F1.0
sg65
F0.8333333333333333
sg78
F1.0
sg23
F1.0
sg63
F0.75
sg36
F1.0
sg12
F1.0
sg128
F1.0
sg125
F0.75
sg117
F0.5833333333333334
ssS'LmiEiGqx5x'
p310
(dp311
sS'dN4g3pRdSO'
p312
(dp313
sS'U9iFacSl34'
p314
(dp315
sg81
(dp316
g4
F1.0
sg5
F0.75
sg71
F0.8333333333333333
sg72
F0.75
sg68
F0.75
sg109
F1.0
sg76
F0.6666666666666666
sg12
F0.75
sg130
F0.75
sg52
F0.75
sg15
F0.6666666666666666
sg46
F0.6666666666666666
sg128
F0.75
sg16
F1.0
sg19
F0.75
sg43
F1.0
sg20
F1.0
sg21
F1.0
sg22
F0.6666666666666666
sg86
F0.75
sg83
F0.75
sg23
F0.75
sg35
F0.75
ssS'3C1dH8H8v3'
p317
(dp318
sg23
(dp319
g1
F1.0
sg4
F1.0
sg5
F1.0
sg42
F1.0
sg32
F1.0
sg70
F1.0
sg7
F1.0
sg71
F1.0
sg53
F1.0
sg48
F1.0
sg72
F1.0
sg60
F1.0
sg9
F1.0
sg68
F1.0
sg74
F1.0
sg11
F1.0
sg76
F1.0
sg162
F1.0
sg163
F1.0
sg146
F1.0
sg78
F1.0
sg14
F1.0
sg51
F1.0
sg15
F1.0
sg46
F1.0
sg47
F1.0
sg67
F1.0
sg16
F1.0
sg17
F1.0
sg18
F1.0
sg19
F1.0
sg43
F1.0
sg50
F1.0
sg100
F1.0
sg20
F1.0
sg22
F1.0
sg116
F1.0
sg81
F1.0
sg82
F1.0
sg117
F1.0
sg252
F1.0
sg12
F1.0
sg127
F1.0
sg128
F1.0
sg157
F1.0
sg45
F1.0
sg84
F1.0
sg85
F1.0
sg25
F1.0
ssS'gUgPjz2364'
p320
(dp321
sg252
(dp322
g41
F1.0
sg18
F1.0
sg5
F1.0
sg12
F1.0
sg72
F1.0
sg4
F1.0
sg74
F1.0
sg46
F1.0
sg76
F1.0
sg23
F1.0
ssg132
(dp323
g41
F1.0
sg3
F1.0
sg4
F1.0
sg5
F1.0
sg42
F1.0
sg32
F1.0
sg7
F1.0
sg71
F1.0
sg72
F1.0
sg73
F1.0
sg75
F1.0
sg109
F1.0
sg13
F1.0
sg36
F1.0
sg16
F1.0
sg19
F1.0
sg43
F1.0
sg100
F1.0
sg113
F1.0
sg86
F1.0
sg124
F1.0
sg34
F1.0
sg149
F1.0
sg9
F1.0
sg21
F1.0
ssS'PRr0oy2KyT'
p324
(dp325
sS'RwM69ocq8e'
p326
(dp327
sg124
(dp328
g41
F1.0
sg3
F0.8
sg4
F1.0
sg5
F0.7333333333333334
sg42
F1.0
sg32
F0.75
sg70
F1.0
sg71
F1.0
sg161
F1.0
sg72
F1.0
sg9
F0.75
sg109
F1.0
sg62
F0.6666666666666666
sg12
F1.0
sg13
F0.8333333333333334
sg243
F1.0
sg164
F1.0
sg15
F0.75
sg36
F1.0
sg67
F1.0
sg16
F0.8333333333333333
sg31
F0.75
sg18
F0.75
sg19
F0.7857142857142857
sg79
F1.0
sg80
F1.0
sg100
F0.75
sg35
F1.0
sg113
F1.0
sg22
F0.7999999999999999
sg122
F0.75
sg86
F1.0
sg132
F1.0
sg149
F1.0
sg73
F1.0
sg45
F0.75
sg156
F0.75
sg25
F1.0
sg21
F0.75
ssS'N18G8VLF9v'
p329
(dp330
sS'DZXDgO0B3u'
p331
(dp332
sS'E1PaKK3181'
p333
(dp334
sS'5yM8I4Uut9'
p335
(dp336
sS'Ds3B2dRQo8'
p337
(dp338
sS'wwV3RhdO1l'
p339
(dp340
sg45
(dp341
g41
F1.0
sg3
F1.0
sg4
F1.0
sg5
F1.0
sg62
F1.0
sg32
F1.0
sg7
F1.0
sg39
F1.0
sg141
F1.0
sg72
F1.0
sg9
F1.0
sg75
F1.0
sg19
F1.0
sg77
F1.0
sg12
F1.0
sg243
F1.0
sg164
F1.0
sg15
F1.0
sg46
F0.7916666666666666
sg67
F0.8333333333333334
sg16
F1.0
sg31
F1.0
sg18
F1.0
sg148
F0.75
sg98
F0.75
sg100
F1.0
sg35
F1.0
sg22
F1.0
sg122
F1.0
sg23
F1.0
sg124
F1.0
sg34
F1.0
sg149
F0.75
sg156
F1.0
sg85
F1.0
ssS'R440Y09vu3'
p342
(dp343
sS'P5w9xdB3VM'
p344
(dp345
sg84
(dp346
g41
F0.75
sg4
F0.8
sg5
F0.6666666666666666
sg19
F1.0
sg70
F1.0
sg163
F0.75
sg140
F1.0
sg98
F1.0
sg72
F0.75
sg18
F0.8333333333333333
sg68
F0.75
sg74
F0.75
sg10
F1.0
sg46
F0.875
sg76
F0.7777777777777777
sg78
F0.7777777777777777
sg23
F0.75
ssS'cbgx682J78'
p347
(dp348
sS'U50h3ZFmGt'
p349
(dp350
sS'st945Ucdi6'
p351
(dp352
sg21
(dp353
g41
F1.0
sg1
F0.625
sg4
F0.9285714285714286
sg5
F0.7999999999999999
sg42
F0.7777777777777777
sg32
F1.0
sg6
F1.0
sg7
F1.0
sg71
F0.8333333333333333
sg53
F0.7777777777777777
sg3
F0.75
sg72
F0.75
sS'ljX78ko847'
p354
F0.75
sg9
F0.85
sg109
F1.0
sg62
F0.75
sg12
F1.0
sg13
F1.0
sg131
F1.0
sg235
F0.75
sg51
F0.75
sg46
F1.0
sg47
F0.8333333333333333
sg67
F1.0
sg16
F1.0
sg18
F0.7916666666666667
sg80
F0.75
sg167
F1.0
sg64
F0.75
sg20
F1.0
sg116
F0.7777777777777777
sg81
F1.0
sg117
F0.6666666666666666
sg36
F1.0
sg132
F1.0
sg124
F1.0
sg100
F1.0
sg128
F0.75
sg168
F0.75
sg25
F1.0
ssg41
(dp355
g3
F0.75
sg4
F0.9
sg5
F0.85
sg42
F1.0
sg32
F1.0
sg7
F1.0
sg145
F1.0
sg39
F1.0
sg141
F1.0
sg72
F0.8125
sg73
F1.0
sg75
F1.0
sg109
F1.0
sg76
F0.8125
sg62
F1.0
sg12
F0.7777777777777778
sg13
F1.0
sg243
F1.0
sg131
F1.0
sg146
F1.0
sg14
F0.6666666666666666
sg71
F0.8333333333333334
sg15
F0.75
sg46
F0.7333333333333334
sg67
F1.0
sg16
F1.0
sg66
F1.0
sg31
F1.0
sg18
F0.7857142857142857
sg19
F0.8125
sg43
F1.0
sg44
F1.0
sg100
F1.0
sg113
F1.0
sg22
F0.75
sg78
F1.0
sg86
F0.75
sg252
F0.625
sg132
F1.0
sg124
F1.0
sg9
F1.0
sg45
F1.0
sg84
F0.75
sg117
F0.75
sg21
F1.0
ssS'7o7172ufx2'
p356
(dp357
sg4
(dp358
g1
F0.75
sg28
F0.75
sg39
F0.75
sg48
F0.6666666666666666
sg176
F0.75
sg60
F0.8888888888888888
sg68
F0.6875
sg77
F1.0
sg101
F1.0
sg131
F0.8333333333333334
sg82
F0.7777777777777778
sg14
F0.6666666666666666
sg47
F0.7571428571428571
sg67
F0.7777777777777777
sg150
F1.0
sg153
F0.75
sg19
F0.7023809523809523
sg50
F0.75
sg44
F1.0
sg100
F1.0
sg20
F0.8333333333333333
sg78
F1.0
sg83
F0.75
sg127
F1.0
sg34
F1.0
sg25
F0.7000000000000001
sg3
F0.7
sg227
F0.7222222222222223
sg62
F0.8214285714285714
sg32
F0.7333333333333334
sg141
F1.0
sg99
F1.0
sg74
F0.75
sg10
F0.75
sg12
F0.7142857142857143
sg166
F1.0
sg243
F1.0
sg152
F1.0
sg232
F1.0
sg46
F0.78125
sg17
F0.75
sg31
F0.8125
sg43
F0.75
sg157
F0.8333333333333333
sg113
F1.0
sg116
F0.8888888888888888
sg81
F1.0
sg117
F0.75
sg252
F0.625
sg132
F1.0
sg124
F0.8125
sg45
F1.0
sg84
F0.75
sg21
F0.75
sg41
F0.8800000000000001
sg5
F0.85
sg42
F0.7333333333333334
sg70
F0.75
sg7
F0.8
sg71
F0.85
sg53
F0.6875
sg72
F0.8125
sg8
F0.75
sg73
F1.0
sg159
F0.75
sg75
F1.0
sg109
F1.0
sg130
F0.75
sg76
F0.8125
sg160
F0.75
sg65
F0.8333333333333333
sg235
F0.8125
sg146
F0.6666666666666666
sg23
F0.7
sg128
F0.75
sg66
F0.75
sg147
F0.75
sg22
F0.6428571428571429
sg122
F0.75
sg63
F0.75
sS'ck0GIf31rJ'
p359
F0.75
sg6
F1.0
sg51
F1.0
sg140
F0.75
sg161
F1.0
sg9
F0.875
sg281
F1.0
sg162
F1.0
sg13
F1.0
sg163
F0.75
sg164
F1.0
sg52
F0.7380952380952381
sg15
F0.75
sg36
F0.72
sg16
F0.85
sg30
F1.0
sg18
F0.6428571428571428
sg165
F0.75
sg79
F0.75
sg167
F0.8888888888888888
sg64
F0.9166666666666666
sg35
F0.8611111111111112
sg86
F0.8333333333333334
sS'9Ydzn1ubPe'
p360
F0.75
sg168
F1.0
sS'KiDu7A3iD8'
p361
F0.75
sg125
F0.75
sg158
F0.75
ssg5
(dp362
g41
F0.8400000000000001
sg1
F1.0
sg4
F0.85
sg42
F0.8333333333333334
sg32
F0.7777777777777777
sg70
F0.8333333333333333
sg7
F0.875
sg71
F1.0
sg140
F0.75
sg39
F0.75
sg48
F0.75
sg17
F0.6666666666666666
sg160
F0.75
sg72
F1.0
sg99
F1.0
sg73
F1.0
sg68
F1.0
sg3
F1.0
sg74
F1.0
sg75
F1.0
sg10
F0.75
sg109
F1.0
sg11
F1.0
sg76
F1.0
sg62
F0.8214285714285714
sg156
F1.0
sg77
F0.7777777777777778
sg12
F1.0
sg13
F1.0
sg163
F0.6666666666666666
sg243
F1.0
sg131
F1.0
sg102
F0.8333333333333333
sg146
F0.6666666666666666
sg78
F1.0
sg14
F0.8333333333333334
sg51
F1.0
sg125
F0.75
sg117
F0.8
sg46
F1.0
sg47
F0.875
sg67
F0.8125
sg16
F1.0
sg66
F0.75
sg227
F1.0
sg153
F1.0
sg18
F0.75
sg147
F0.75
sg19
F1.0
sg43
F0.7777777777777777
sg141
F1.0
sg98
F0.75
sg44
F1.0
sg100
F1.0
sg83
F1.0
sg113
F1.0
sg22
F0.7916666666666667
sg116
F1.0
sg81
F1.0
sg82
F0.75
sg23
F1.0
sg54
F0.75
sg252
F1.0
sg132
F1.0
sg360
F0.75
sg124
F1.0
sg128
F1.0
sg149
F1.0
sg130
F1.0
sg359
F1.0
sg9
F0.8125
sg45
F1.0
sg25
F1.0
sg120
F1.0
sg84
F1.0
sg85
F1.0
sg31
F1.0
sg86
F1.0
sg143
F0.75
sg21
F1.0
ssg42
(dp363
g41
F1.0
sg3
F1.0
sg4
F1.0
sg5
F1.0
sg62
F1.0
sg32
F1.0
sg70
F1.0
sg7
F1.0
sg71
F1.0
sg53
F1.0
sg39
F1.0
sg72
F1.0
sg60
F1.0
sg73
F1.0
sg68
F1.0
sg75
F1.0
sg165
F1.0
sg109
F1.0
sg163
F1.0
sg31
F1.0
sg12
F1.0
sg99
F1.0
sg13
F1.0
sg76
F1.0
sg6
F1.0
sg106
F1.0
sg52
F1.0
sg131
F1.0
sg46
F1.0
sg47
F1.0
sg67
F1.0
sg16
F1.0
sg227
F1.0
sg18
F1.0
sg147
F1.0
sg19
F1.0
sg43
F1.0
sg79
F1.0
sg124
F1.0
sg80
F1.0
sg20
F1.0
sg44
F1.0
sg64
F1.0
sg35
F1.0
sg113
F1.0
sg22
F1.0
sg116
F1.0
sg226
F1.0
sg65
F1.0
sg78
F1.0
sg23
F1.0
sg36
F1.0
sg132
F1.0
sg108
F1.0
sg8
F1.0
sg34
F1.0
sg100
F1.0
sg168
F1.0
sg9
F1.0
sg25
F1.0
sg86
F1.0
sg143
F1.0
sg21
F1.0
ssg70
(dp364
g3
F1.0
sg4
F0.8333333333333333
sg5
F0.7916666666666666
sg42
F1.0
sg32
F1.0
sg7
F1.0
sg71
F1.0
sg140
F1.0
sg141
F0.75
sg17
F1.0
sg72
F0.7777777777777778
sg99
F0.75
sg9
F1.0
sg68
F0.7777777777777778
sg74
F0.75
sg75
F0.75
sg10
F1.0
sg53
F1.0
sg76
F0.75
sg77
F0.6666666666666666
sg130
F1.0
sg163
F0.8333333333333333
sg131
F1.0
sg102
F1.0
sg146
F0.8333333333333333
sg78
F0.75
sg11
F1.0
sg15
F1.0
sg46
F0.8666666666666667
sg47
F0.7333333333333334
sg67
F0.75
sg153
F1.0
sg18
F0.8214285714285714
sg19
F1.0
sg86
F1.0
sg82
F0.75
sg23
F0.75
sg137
F1.0
sg124
F1.0
sg160
F1.0
sg84
F1.0
sg117
F1.0
ssg7
(dp365
g41
F0.7777777777777777
sg1
F0.875
sg4
F0.875
sg5
F0.8333333333333334
sg42
F0.7333333333333333
sg32
F0.6875
sg70
F0.8333333333333333
sg71
F1.0
sg140
F0.75
sg39
F0.75
sg3
F0.8
sg72
F1.0
sg60
F0.6666666666666666
sg73
F1.0
sg68
F1.0
sg159
F1.0
sg75
F0.75
sg10
F0.75
sg109
F0.7777777777777777
sg76
F1.0
sg62
F0.7333333333333334
sg12
F1.0
sg99
F1.0
sg13
F0.7
sg6
F0.6666666666666666
sg106
F0.75
sg78
F0.8888888888888888
sg14
F1.0
sg51
F1.0
sg15
F0.75
sg125
F1.0
sg117
F1.0
sg163
F0.6666666666666666
sg47
F0.75
sg67
F0.8888888888888888
sg16
F0.8333333333333333
sg181
F1.0
sg31
F0.8125
sg18
F0.7777777777777777
sg147
F0.75
sg19
F0.8703703703703703
sg43
F0.6666666666666666
sg50
F1.0
sg53
F0.75
sg98
F0.6666666666666666
sg20
F0.6666666666666666
sg100
F0.8888888888888888
sg35
F0.85
sg113
F1.0
sg22
F0.75
sg116
F0.8888888888888888
sg122
F0.7777777777777777
sg23
F0.75
sg63
F0.8333333333333334
sg132
F0.7777777777777777
sg8
F0.75
sg128
F0.9166666666666666
sg149
F1.0
sg9
F0.8999999999999999
sg45
F0.75
sg25
F1.0
sg66
F1.0
sg86
F0.6666666666666666
sg143
F1.0
sg21
F0.6666666666666666
ssg145
(dp366
g41
F0.75
sg67
F1.0
sg31
F0.75
ssg53
(dp367
g3
F1.0
sg4
F1.0
sg42
F1.0
sg32
F1.0
sg70
F1.0
sg7
F1.0
sg71
F1.0
sg140
F1.0
sg48
F1.0
sg72
F1.0
sg60
F1.0
sg10
F1.0
sg62
F1.0
sg12
F1.0
sg99
F1.0
sg168
F1.0
sg131
F1.0
sg14
F1.0
sg51
F1.0
sg15
F1.0
sg46
F1.0
sg47
F1.0
sg67
F1.0
sg17
F1.0
sg18
F1.0
sg147
F1.0
sg19
F1.0
sg43
F1.0
sg80
F1.0
sg167
F1.0
sg64
F1.0
sg35
F1.0
sg21
F1.0
sg22
F1.0
sg116
F1.0
sg65
F1.0
sg23
F1.0
sg63
F1.0
sg8
F1.0
sg117
F1.0
ssg170
(dp368
g50
F1.0
sg32
F1.0
ssg165
(dp369
g4
F1.0
sg42
F1.0
sg32
F1.0
sg163
F1.0
sg8
F1.0
sg9
F1.0
sg116
F1.0
sg19
F1.0
ssg359
(dp370
g4
F0.6666666666666666
sg5
F1.0
ssg72
(dp371
g41
F1.0
sg3
F1.0
sg4
F1.0
sg5
F1.0
sg42
F1.0
sg70
F1.0
sg7
F1.0
sg71
F1.0
sg53
F1.0
sg141
F1.0
sg99
F1.0
sg73
F1.0
sg68
F1.0
sg74
F1.0
sg75
F1.0
sg109
F1.0
sg76
F1.0
sg62
F1.0
sg77
F1.0
sg12
F1.0
sg243
F1.0
sg131
F1.0
sg15
F1.0
sg46
F1.0
sg47
F1.0
sg67
F1.0
sg16
F1.0
sg18
F1.0
sg19
F1.0
sg43
F1.0
sg142
F1.0
sg100
F1.0
sg83
F1.0
sg113
F1.0
sg22
F1.0
sg81
F1.0
sg78
F1.0
sg23
F1.0
sg252
F1.0
sg132
F1.0
sg124
F1.0
sg9
F1.0
sg45
F1.0
sg84
F1.0
sg86
F1.0
sg25
F1.0
sg21
F1.0
ssg8
(dp372
g1
F1.0
sg4
F1.0
sg62
F1.0
sg32
F1.0
sg6
F1.0
sg7
F1.0
sg51
F1.0
sg140
F1.0
sg60
F1.0
sg9
F1.0
sg10
F1.0
sg76
F1.0
sg42
F1.0
sg12
F1.0
sS'y8BlGe62E7'
p373
F1.0
sg163
F1.0
sg53
F1.0
sg165
F1.0
sg19
F1.0
sg43
F1.0
sg64
F1.0
sg22
F1.0
sg116
F1.0
sg65
F1.0
sg78
F1.0
sg63
F1.0
ssg73
(dp374
g41
F0.7777777777777777
sg3
F0.6666666666666666
sg4
F0.7619047619047619
sg5
F0.75
sg42
F0.75
sg32
F1.0
sg7
F0.75
sg71
F1.0
sg141
F0.75
sg161
F0.6666666666666666
sg72
F0.75
sg68
F0.75
sg109
F0.75
sg13
F1.0
sg101
F1.0
sg15
F1.0
sg16
F1.0
sg153
F1.0
sg19
F0.7777777777777777
sg80
F1.0
sg113
F0.7777777777777777
sS'EWHJMBPf94'
p375
F1.0
sg82
F1.0
sg132
F0.75
sg124
F0.75
sg33
F1.0
sg34
F0.75
sg166
F1.0
sg25
F0.75
ssS'pg8uPBYamG'
p376
(dp377
sS'ey9rvMnU57'
p378
(dp379
sg75
(dp380
g41
F1.0
sg4
F1.0
sg5
F1.0
sg42
F1.0
sg32
F1.0
sg70
F1.0
sg7
F1.0
sg72
F1.0
sg9
F1.0
sg68
F1.0
sg109
F1.0
sg12
F1.0
sg106
F1.0
sg164
F1.0
sg46
F1.0
sg47
F1.0
sg66
F1.0
sg43
F1.0
sg98
F1.0
sg100
F1.0
sg78
F1.0
sg86
F1.0
sg132
F1.0
sg45
F1.0
ssg109
(dp381
g41
F1.0
sg3
F1.0
sg4
F1.0
sg5
F1.0
sg42
F1.0
sg32
F1.0
sg7
F1.0
sg71
F1.0
sg72
F1.0
sg354
F1.0
sg73
F1.0
sg75
F1.0
sg13
F1.0
sg106
F1.0
sg36
F1.0
sg67
F1.0
sg16
F1.0
sg19
F1.0
sg100
F1.0
sg113
F1.0
sg81
F1.0
sg86
F1.0
sg132
F1.0
sg108
F1.0
sg34
F1.0
sg124
F1.0
sg9
F1.0
sg25
F1.0
sg21
F1.0
ssg130
(dp382
g153
F1.0
sg4
F1.0
sg5
F1.0
sg19
F1.0
sg12
F1.0
sg70
F1.0
sg71
F1.0
sg3
F1.0
sg131
F1.0
sg83
F1.0
sg22
F1.0
sg15
F1.0
sg46
F1.0
sg81
F1.0
ssg163
(dp383
g4
F0.7916666666666666
sg5
F1.0
sg42
F0.6666666666666666
sg32
F1.0
sg70
F1.0
sg7
F1.0
sg140
F1.0
sg99
F1.0
sg9
F0.75
sg10
F1.0
sg76
F0.7777777777777777
sg6
F1.0
sg146
F1.0
sg82
F1.0
sg18
F1.0
sg165
F0.75
sg19
F0.8333333333333334
sg98
F1.0
sg116
F0.7777777777777778
sg78
F0.8333333333333334
sg23
F0.8333333333333333
sg8
F0.7777777777777777
sg84
F1.0
ssS'N4Ab8Bvj98'
p384
(dp385
sg131
(dp386
g41
F1.0
sg3
F0.75
sg4
F0.8095238095238096
sg5
F0.75
sg42
F0.75
sg32
F1.0
sg70
F0.8333333333333333
sg71
F0.8333333333333333
sg53
F0.75
sg72
F0.75
sg9
F0.7777777777777778
sg76
F0.75
sg12
F0.6666666666666666
sg130
F0.75
sg46
F0.7999999999999999
sg153
F0.75
sg19
F0.6666666666666666
sg43
F0.8333333333333334
sg167
F0.75
sg21
F0.75
sg22
F0.6666666666666666
sg86
F0.75
ssS'k4gaj1r2bT'
p387
(dp388
sS'12ws2Vy47j'
p389
(dp390
sS'T4367PFG7C'
p391
(dp392
sg78
(dp393
g41
F1.0
sg4
F0.8333333333333334
sg5
F0.8333333333333334
sg42
F0.75
sg32
F0.75
sg70
F0.8333333333333333
sg7
F0.9444444444444445
sg71
F0.8333333333333333
sg140
F0.75
sg72
F0.75
sg8
F0.75
sg9
F0.875
sg68
F0.7777777777777777
sg74
F0.75
sg75
F0.75
sg10
F0.75
sg76
F0.6875
sg77
F1.0
sg162
F1.0
sg13
F0.6666666666666666
sg6
F0.7777777777777777
sg163
F0.7999999999999999
sg52
F0.8
sg15
F0.7777777777777778
sg46
F0.7142857142857143
sg86
F0.75
sg181
F1.0
sg18
F0.7333333333333334
sg19
F0.6666666666666666
sg98
F0.6666666666666666
sg35
F0.7333333333333333
sg22
F0.6666666666666666
sg116
F0.7777777777777777
sg23
F0.8
sg12
F0.6875
sg127
F1.0
sg157
F0.8333333333333333
sg84
F0.6666666666666666
sg117
F0.6666666666666666
ssg160
(dp394
g17
F1.0
sg4
F1.0
sg5
F1.0
sg19
F1.0
sg70
F1.0
sg140
F1.0
sg18
F1.0
sg9
F1.0
sg10
F1.0
sg117
F1.0
ssg65
(dp395
g62
F1.0
sg4
F1.0
sg19
F1.0
sg12
F1.0
sg43
F1.0
sg51
F1.0
sg53
F1.0
sg8
F1.0
sg32
F1.0
sg60
F1.0
sg116
F1.0
sg42
F1.0
ssg234
(dp396
g32
F1.0
ssg235
(dp397
g116
F1.0
sg64
F1.0
sg4
F1.0
sg21
F1.0
sg32
F1.0
ssg146
(dp398
g41
F1.0
sg17
F1.0
sg4
F1.0
sg147
F1.0
sg62
F1.0
sg70
F1.0
sg50
F1.0
sg163
F1.0
sg99
F1.0
sg18
F1.0
sg5
F1.0
sg66
F1.0
sg31
F1.0
sg67
F1.0
sg82
F1.0
sg23
F1.0
ssS'562xzTNuI6'
p399
(dp400
sS'5rwOvj7Gu3'
p401
(dp402
sS'zBpW3sqPf6'
p403
(dp404
sS'dVqVsN8nD8'
p405
(dp406
sg117
(dp407
g41
F1.0
sg3
F1.0
sg4
F1.0
sg5
F0.8
sg62
F1.0
sg32
F1.0
sg70
F1.0
sg7
F1.0
sg140
F1.0
sg9
F1.0
sg10
F1.0
sg53
F1.0
sg31
F1.0
sg114
F1.0
sg120
F1.0
sg14
F1.0
sg15
F1.0
sg47
F1.0
sg67
F1.0
sg17
F1.0
sg18
F1.0
sg19
F1.0
sg43
F1.0
sg21
F1.0
sg22
F1.0
sg116
F1.0
sg78
F1.0
sg23
F1.0
sg128
F1.0
sg160
F1.0
sg125
F1.0
sg143
F0.75
ssg128
(dp408
g3
F1.0
sg4
F1.0
sg5
F1.0
sg32
F0.75
sg6
F0.75
sg7
F1.0
sg10
F1.0
sg76
F1.0
sg31
F1.0
sg12
F1.0
sg14
F1.0
sg36
F0.8333333333333333
sg47
F1.0
sg18
F1.0
sg19
F1.0
sg43
F0.75
sg142
F0.75
sg98
F0.6666666666666666
sg100
F1.0
sg20
F0.7777777777777777
sg21
F0.7777777777777777
sg22
F1.0
sg116
F1.0
sg81
F1.0
sg23
F1.0
sg35
F0.85
sg117
F1.0
ssg66
(dp409
g41
F0.75
sg63
F1.0
sg4
F0.8
sg5
F0.75
sg32
F0.75
sg99
F0.75
sg6
F0.75
sg50
F1.0
sg100
F0.75
sg18
F0.75
sg7
F1.0
sg60
F0.75
sg9
F1.0
sg146
F0.8333333333333333
sg75
F0.75
sg67
F0.75
ssg147
(dp410
g62
F1.0
sg17
F1.0
sg4
F1.0
sg5
F1.0
sg42
F1.0
sg7
F1.0
sg53
F1.0
sg99
F1.0
sg18
F1.0
sg146
F1.0
sg36
F1.0
sg67
F1.0
sg25
F1.0
sg19
F1.0
ssg148
(dp411
g85
F1.0
sg12
F1.0
sg98
F1.0
sg45
F1.0
sg46
F1.0
sg76
F1.0
sg67
F1.0
ssS'dD0vTK3gXD'
p412
(dp413
sg142
(dp414
g43
F1.0
sg47
F1.0
sg128
F1.0
sg18
F1.0
sg72
F1.0
ssS'wkQxI30ZH6'
p415
(dp416
sS'biX0v423q0'
p417
(dp418
sS'52vEY7f17k'
p419
(dp420
sS'tLgc420s9N'
p421
(dp422
sS'9FFmzviIHD'
p423
(dp424
sg22
(dp425
g41
F1.0
sg1
F1.0
sg4
F1.0
sg5
F1.0
sg42
F1.0
sg32
F1.0
sg7
F1.0
sg71
F1.0
sg53
F1.0
sg39
F1.0
sg48
F1.0
sg3
F1.0
sg72
F1.0
sg60
F1.0
sg9
F1.0
sg68
F1.0
sg10
F1.0
sg11
F1.0
sg76
F1.0
sg62
F1.0
sg281
F1.0
sg12
F1.0
sg99
F1.0
sg13
F1.0
sg52
F1.0
sg131
F1.0
sg120
F1.0
sg78
F1.0
sg14
F1.0
sg51
F1.0
sg15
F1.0
sg125
F1.0
sg117
F1.0
sg46
F1.0
sg47
F1.0
sg67
F1.0
sg16
F1.0
sg17
F1.0
sg18
F1.0
sg19
F1.0
sg43
F1.0
sg79
F1.0
sg141
F1.0
sg44
F1.0
sg35
F1.0
sg86
F1.0
sg81
F1.0
sg122
F1.0
sg23
F1.0
sg36
F1.0
sg83
F1.0
sg124
F1.0
sg8
F1.0
sg128
F1.0
sg130
F1.0
sg20
F1.0
sg45
F1.0
sg156
F1.0
sg31
F1.0
sg25
F1.0
ssS'GlZwe88Gzo'
p426
(dp427
sg226
(dp428
g3
F1.0
sg42
F1.0
sg43
F1.0
sg9
F1.0
sg15
F1.0
sg46
F1.0
ssS's3u68VfdSa'
p429
(dp430
sg82
(dp431
g4
F1.0
sg5
F1.0
sg62
F1.0
sg70
F1.0
sg141
F1.0
sg99
F1.0
sg73
F1.0
sg68
F1.0
sg19
F1.0
sg13
F1.0
sg163
F1.0
sg146
F1.0
sg14
F1.0
sg47
F1.0
sg67
F1.0
sg18
F1.0
sS'12M70dm49w'
p432
F1.0
sg31
F1.0
sg80
F1.0
sg35
F1.0
sg23
F1.0
sg33
F1.0
sg85
F1.0
ssg63
(dp433
g4
F0.8333333333333334
sg100
F1.0
sg19
F0.8214285714285714
sg12
F0.75
sg99
F1.0
sg50
F1.0
sg51
F0.75
sg53
F0.7777777777777777
sg60
F0.6666666666666666
sg7
F1.0
sg13
F0.75
sg64
F0.6666666666666666
sg18
F1.0
sg8
F0.75
sg116
F0.75
sg168
F0.75
sg67
F1.0
sg66
F1.0
ssS'448d2Kv3hw'
p434
(dp435
sS'Kt1mv62gCP'
p436
(dp437
sg149
(dp438
g3
F0.6666666666666666
sg18
F0.75
sg132
F1.0
sg19
F0.625
sg13
F0.8333333333333333
sg124
F1.0
sg7
F1.0
sg100
F0.75
sg45
F1.0
sg15
F0.6666666666666666
sg5
F0.6666666666666666
sg67
F1.0
sg16
F1.0
sg62
F0.6666666666666666
ssg185
(dp439
g183
F1.0
sg141
F1.0
ssS'YEEpIp3429'
p440
(dp441
sS'i5dD6Xy8jL'
p442
(dp443
sg158
(dp444
g4
F1.0
sg19
F1.0
ssS'49kt2kaD8d'
p445
(dp446
sS'O4PQ25r2dR'
p447
(dp448
sS'MCA1W52H2T'
p449
(dp450
sg143
(dp451
g18
F0.8333333333333333
sg5
F1.0
sg42
F0.6666666666666666
sg32
F0.75
sg43
F0.6666666666666666
sg7
F1.0
sg140
F0.75
sg6
F0.6666666666666666
sg98
F0.75
sg20
F0.75
sg9
F1.0
sg117
F1.0
sg47
F0.75
sg31
F0.75
ssg6
(dp452
g1
F0.75
sg4
F1.0
sg26
F1.0
sg42
F1.0
sg32
F1.0
sg7
F0.7142857142857143
sg140
F0.7777777777777777
sg8
F0.75
sg9
F1.0
sg10
F0.75
sg163
F0.8333333333333333
sg36
F0.75
sg47
F1.0
sg128
F0.6666666666666666
sg66
F1.0
sg18
F1.0
sg19
F0.75
sg43
F1.0
sg50
F1.0
sg98
F0.8333333333333334
sg20
F1.0
sg21
F1.0
sg116
F0.7777777777777777
sg78
F0.8333333333333334
sg143
F1.0
ssS'7d9J30iOq8'
p453
(dp454
sg51
(dp455
g4
F0.8888888888888888
sg5
F1.0
sg7
F0.75
sg53
F0.75
sg48
F0.75
sg60
F0.75
sg11
F0.75
sg14
F0.75
sg67
F0.75
sg18
F0.6666666666666666
sg19
F0.8125
sg50
F0.75
sg64
F0.8333333333333333
sg21
F1.0
sg22
F0.6666666666666666
sg65
F0.8333333333333333
sg122
F0.75
sg23
F0.75
sg63
F0.75
sg127
F1.0
sg8
F0.75
sg125
F0.75
ssg140
(dp456
g4
F1.0
sg5
F1.0
sg70
F1.0
sg7
F1.0
sg53
F1.0
sg8
F1.0
sg9
F0.7777777777777778
sg10
F1.0
sg76
F1.0
sg12
F1.0
sg6
F1.0
sg163
F1.0
sg46
F0.75
sg47
F0.8333333333333334
sg17
F1.0
sg18
F1.0
sg19
F1.0
sg98
F1.0
sg116
F1.0
sg78
F1.0
sg117
F1.0
sg24
F1.0
sg160
F1.0
sg84
F1.0
sg143
F1.0
ssS'7rezIYMwkp'
p457
(dp458
sg223
(dp459
g25
F1.0
ssg161
(dp460
g30
F1.0
sg4
F1.0
sg19
F1.0
sg124
F1.0
sg141
F1.0
sg34
F1.0
sg243
F1.0
sg164
F1.0
sg73
F1.0
sg113
F1.0
sg86
F1.0
ssS'lKsX609E6x'
p461
(dp462
sS'bcoY3s64sj'
p463
(dp464
sg354
(dp465
g109
F1.0
sg9
F1.0
sg21
F1.0
ssg9
(dp466
g41
F1.0
sg1
F0.7333333333333334
sg4
F1.0
sg5
F0.8333333333333334
sg42
F0.8333333333333333
sg32
F0.8333333333333334
sg70
F0.7999999999999999
sg7
F1.0
sg71
F0.8333333333333333
sg140
F0.7777777777777777
sg39
F1.0
sg48
F0.75
sg3
F0.7777777777777778
sg72
F0.75
sg8
F1.0
sg227
F0.7222222222222223
sg68
F0.75
sg75
F0.75
sg10
F0.75
sg109
F0.75
sg163
F1.0
sg62
F1.0
sg162
F1.0
sg13
F0.6666666666666666
sg76
F0.75
sg6
F0.75
sg106
F0.75
sg131
F0.8333333333333334
sg120
F0.75
sg14
F0.75
sg15
F0.8125
sg125
F1.0
sg117
F0.75
sg46
F0.7916666666666667
sg86
F0.6666666666666666
sg67
F1.0
sg16
F1.0
sg181
F1.0
sg17
F0.8333333333333333
sg18
F0.7333333333333334
sg165
F1.0
sg19
F0.85
sg43
F0.78
sg50
F1.0
sg354
F0.75
sg44
F1.0
sg167
F1.0
sg64
F1.0
sg20
F1.0
sg21
F0.75
sg22
F0.8285714285714285
sg116
F1.0
sg226
F1.0
sg78
F0.875
sg23
F0.75
sg132
F0.75
sg12
F0.7777777777777778
sg124
F1.0
sg127
F1.0
sg34
F1.0
sg100
F1.0
sg160
F0.75
sg157
F0.8333333333333333
sg45
F1.0
sg25
F1.0
sg156
F1.0
sg66
F1.0
sg31
F0.8333333333333334
sg143
F1.0
ssS'38a8p8Zl0z'
p467
(dp468
sS'gv1l9iqcam'
p469
(dp470
sS'c7A4cZK28M'
p471
(dp472
sS'QUcO70Q91P'
p473
(dp474
sS'gPaagaJ8aq'
p475
(dp476
sS'uz40H610bF'
p477
(dp478
sg281
(dp479
g4
F1.0
sg46
F0.75
sg22
F1.0
ssg162
(dp480
g4
F0.7142857142857143
sg19
F0.7999999999999999
sg32
F1.0
sg80
F0.75
sg9
F0.75
sg116
F0.75
sg78
F0.8333333333333333
sg23
F0.75
ssS'YtB3X13RXe'
p481
(dp482
sg13
(dp483
g41
F1.0
sg1
F0.625
sg4
F0.9444444444444445
sg5
F1.0
sg42
F0.7777777777777777
sg28
F0.75
sg7
F0.7857142857142857
sg3
F0.75
sg9
F1.0
sg109
F1.0
sg62
F1.0
sg32
F1.0
sg166
F1.0
sg78
F1.0
sg14
F0.75
sg15
F0.75
sg36
F0.75
sg67
F1.0
sg16
F0.8333333333333334
sg181
F1.0
sg30
F0.6666666666666666
sg18
F1.0
sg19
F0.7857142857142857
sg50
F0.75
sg100
F1.0
sg20
F0.7333333333333334
sg113
F0.75
sg22
F0.6666666666666666
sg82
F0.75
sg63
F1.0
sg132
F1.0
sg124
F0.7777777777777777
sg127
F1.0
sg34
F0.6666666666666666
sg149
F1.0
sg73
F0.7777777777777777
sg33
F0.7000000000000001
sg31
F0.6875
sg21
F1.0
ssS'l8bH01vT7z'
p484
(dp485
sS'O4YDV4XPTd'
p486
(dp487
sg164
(dp488
g4
F0.7
sg19
F1.0
sg12
F0.75
sg124
F0.75
sg34
F0.75
sg243
F0.8333333333333333
sg161
F0.75
sg45
F0.75
sg156
F0.7777777777777778
sg75
F0.75
sg86
F1.0
ssg52
(dp489
g3
F0.8125
sg4
F0.8717948717948718
sg42
F1.0
sg32
F1.0
sg141
F0.75
sg227
F1.0
sg76
F0.7777777777777778
sg12
F0.8125
sg243
F0.6666666666666666
sg122
F1.0
sg15
F1.0
sg46
F0.8666666666666668
sg67
F0.75
sg18
F0.7999999999999999
sg19
F1.0
sg48
F1.0
sg44
F1.0
sg35
F1.0
sg22
F1.0
sg81
F1.0
sg78
F0.8
sg86
F1.0
sg220
F1.0
ssS'PSEDQ6XC7U'
p490
(dp491
sS'cI0EPqbE61'
p492
(dp493
sS'Q0Fp6Da7G1'
p494
(dp495
sg15
(dp496
g41
F0.7777777777777777
sg1
F1.0
sg4
F0.7999999999999999
sg32
F0.75
sg70
F0.6666666666666666
sg7
F0.7777777777777777
sg71
F1.0
sg53
F1.0
sg72
F0.8125
sg9
F0.8125
sg117
F1.0
sg130
F0.75
sg76
F1.0
sg77
F1.0
sg12
F0.75
sg13
F1.0
sg52
F0.75
sg78
F1.0
sg14
F1.0
sg46
F0.7777777777777777
sg86
F1.0
sg67
F1.0
sg16
F1.0
sg18
F1.0
sg19
F1.0
sg11
F1.0
sg100
F1.0
sg35
F0.8125
sg113
F0.75
sg22
F0.7999999999999999
sg226
F0.75
sg81
F0.7777777777777777
sg122
F0.75
sg23
F1.0
sg137
F0.75
sg124
F0.7777777777777777
sg83
F1.0
sg149
F1.0
sg166
F1.0
sg73
F1.0
sg45
F0.75
sg85
F1.0
sg25
F0.75
ssS'Dk2tRopWQ3'
p497
(dp498
sg36
(dp499
g3
F0.8333333333333333
sg4
F0.8285714285714285
sg42
F0.7777777777777778
sg28
F1.0
sg6
F1.0
sg30
F1.0
sg109
F0.7777777777777777
sg76
F0.7777777777777777
sg31
F1.0
sg32
F1.0
sg12
F1.0
sg13
F0.7777777777777777
sg174
F1.0
sg67
F0.75
sg16
F0.6666666666666666
sg17
F1.0
sg18
F0.75
sg147
F0.75
sg19
F0.8666666666666667
sg79
F1.0
sg80
F0.75
sg98
F1.0
sg100
F0.75
sg20
F1.0
sg21
F0.7777777777777777
sg22
F1.0
sg116
F1.0
sg86
F1.0
sg132
F0.75
sg124
F0.7777777777777778
sg34
F1.0
sg128
F1.0
sg25
F0.8
sg113
F0.75
ssg174
(dp500
g12
F0.75
sg98
F1.0
sg141
F0.6666666666666666
sg35
F1.0
sg36
F0.75
sg76
F0.75
ssg16
(dp501
g41
F0.75
sg1
F0.875
sg4
F0.85
sg5
F0.6666666666666666
sg42
F0.7777777777777777
sg32
F0.75
sg7
F0.8125
sg71
F1.0
sg3
F0.6499999999999999
sg72
F0.75
sg99
F1.0
sg9
F0.6666666666666666
sg68
F0.75
sg109
F0.75
sg62
F0.6666666666666666
sg12
F0.6666666666666666
sg13
F0.8333333333333334
sg15
F0.8333333333333334
sg36
F1.0
sg67
F1.0
sg31
F0.75
sg18
F0.75
sg19
F0.8571428571428572
sg79
F0.75
sg20
F1.0
sg35
F0.75
sg113
F0.75
sg22
F0.75
sg81
F0.75
sg122
F0.75
sg23
F0.75
sg132
F0.75
sg124
F0.8125
sg149
F1.0
sg73
F1.0
sg45
F0.75
sg156
F0.75
sg25
F0.8125
sg21
F0.75
ssS'f45jOmRd4S'
p502
(dp503
sg30
(dp504
g4
F0.7857142857142857
sg31
F1.0
sg28
F1.0
sg13
F1.0
sg33
F1.0
sg34
F1.0
sg161
F0.8333333333333333
sg20
F1.0
sg36
F0.8333333333333333
sg86
F0.75
ssg18
(dp505
g41
F1.0
sg1
F1.0
sg4
F1.0
sg5
F1.0
sg42
F1.0
sg32
F1.0
sg70
F1.0
sg7
F1.0
sg71
F1.0
sg140
F1.0
sg48
F1.0
sg3
F1.0
sg72
F1.0
sg99
F1.0
sg9
F1.0
sg68
F1.0
sg74
F1.0
sg10
F1.0
sg53
F1.0
sg11
F1.0
sg76
F1.0
sg62
F1.0
sg77
F1.0
sg12
F1.0
sg13
F1.0
sg6
F1.0
sg163
F1.0
sg52
F1.0
sg114
F1.0
sg146
F1.0
sg82
F1.0
sg14
F1.0
sg51
F1.0
sg15
F1.0
sg125
F1.0
sg117
F1.0
sg46
F1.0
sg47
F1.0
sg67
F1.0
sg16
F1.0
sg66
F1.0
sg17
F1.0
sg147
F1.0
sg19
F1.0
sg43
F1.0
sg142
F1.0
sg98
F1.0
sg100
F1.0
sg35
F1.0
sg21
F1.0
sg22
F1.0
sg116
F1.0
sg122
F1.0
sg23
F1.0
sg63
F1.0
sg252
F1.0
sg124
F1.0
sg128
F1.0
sg149
F1.0
sg160
F1.0
sg20
F1.0
sg45
F1.0
sg25
F1.0
sg120
F1.0
sg78
F1.0
sg84
F1.0
sg85
F1.0
sg31
F1.0
sg36
F1.0
sg143
F1.0
ssg432
(dp506
g82
F1.0
ssS'56dTCKdr74'
p507
(dp508
sg373
(dp509
g8
F1.0
ssg79
(dp510
g3
F1.0
sg4
F1.0
sg42
F1.0
sg12
F1.0
sg124
F1.0
sg34
F1.0
sg68
F1.0
sg22
F1.0
sg36
F1.0
sg16
F1.0
sg19
F1.0
ssg80
(dp511
g3
F1.0
sg42
F1.0
sg53
F1.0
sg141
F1.0
sg73
F1.0
sg68
F1.0
sg162
F1.0
sg168
F1.0
sg101
F1.0
sg152
F1.0
sg36
F1.0
sg47
F1.0
sg67
F1.0
sg100
F1.0
sg20
F1.0
sg113
F1.0
sg116
F1.0
sg82
F1.0
sg46
F1.0
sg124
F1.0
sg25
F1.0
sg21
F1.0
ssS'183ppvOXp8'
p512
(dp513
sg167
(dp514
g4
F1.0
sg19
F0.75
sg12
F0.75
sg43
F0.75
sg53
F0.75
sg176
F0.75
sg131
F0.75
sg9
F1.0
sg21
F0.75
sg46
F0.625
sg76
F0.75
ssg64
(dp515
g62
F1.0
sg63
F1.0
sg4
F0.8333333333333334
sg42
F1.0
sg51
F1.0
sg53
F1.0
sg8
F1.0
sg246
F1.0
sg60
F1.0
sg9
F1.0
sg21
F0.75
sg116
F0.7777777777777778
sg235
F0.7777777777777777
sg19
F1.0
ssg35
(dp516
g4
F0.7777777777777778
sg42
F1.0
sg28
F0.75
sg7
F0.7857142857142857
sg53
F1.0
sg48
F0.75
sg60
F1.0
sg76
F0.72
sg62
F1.0
sg77
F0.6666666666666666
sg32
F1.0
sg12
F0.75
sg166
F1.0
sg106
F1.0
sg52
F1.0
sg78
F0.7333333333333333
sg14
F0.75
sg15
F1.0
sg174
F1.0
sg128
F0.8
sg16
F1.0
sg153
F1.0
sg18
F0.6666666666666667
sg19
F0.7916666666666666
sg43
F1.0
sg22
F1.0
sg81
F1.0
sg82
F0.75
sg86
F1.0
sg124
F1.0
sg127
F1.0
sg168
F1.0
sg45
F0.75
sg31
F0.6666666666666666
ssS'i0FfLG15di'
p517
(dp518
sS'oqL48822V2'
p519
(dp520
sg236
(dp521
g32
F1.0
ssg375
(dp522
g73
F1.0
ssS'0ZroSLGL09'
p523
(dp524
sg86
(dp525
g41
F0.75
sg3
F0.75
sg4
F0.7619047619047619
sg5
F0.75
sg42
F0.75
sg32
F0.75
sg70
F0.6666666666666666
sg7
F0.6
sg71
F1.0
sg30
F1.0
sg161
F0.75
sg72
F0.75
sg9
F0.75
sg68
F0.75
sg75
F0.7777777777777777
sg109
F0.75
sg12
F0.75
sg106
F0.75
sg243
F0.8333333333333333
sg164
F1.0
sg52
F0.75
sg131
F0.8333333333333333
sg15
F1.0
sg46
F0.75
sg17
F0.8333333333333333
sg19
F1.0
sg43
F0.7777777777777777
sg35
F0.5833333333333334
sg22
F0.8333333333333333
sg81
F0.75
sg78
F0.75
sg36
F1.0
sg132
F0.75
sg124
F0.75
sg34
F0.6666666666666666
sg20
F1.0
ssS'1793z4bHHR'
p526
(dp527
sS'233EMC2k7k'
p528
(dp529
sg360
(dp530
g4
F1.0
sg5
F1.0
ssS'OCmTg4ha6w'
p531
(dp532
sS'i1pw14pRDH'
p533
(dp534
sS'kKr8NG7YNL'
p535
(dp536
sS'H5p2L3L4hU'
p537
(dp538
sg168
(dp539
g62
F1.0
sg63
F1.0
sg4
F1.0
sg42
F1.0
sg53
F1.0
sg80
F1.0
sg35
F1.0
sg21
F1.0
sg76
F1.0
sg19
F1.0
ssS'7gJUbn9s1V'
p540
(dp541
sg361
(dp542
g4
F1.0
ssg125
(dp543
g31
F1.0
sg4
F1.0
sg5
F1.0
sg19
F1.0
sg32
F1.0
sg7
F1.0
sg127
F1.0
sg18
F1.0
sg14
F1.0
sg44
F1.0
sg9
F1.0
sg22
F1.0
sg51
F1.0
sg116
F1.0
sg117
F1.0
sg67
F1.0
sg122
F1.0
sg62
F1.0
ssg85
(dp544
g62
F1.0
sg18
F1.0
sg5
F1.0
sg148
F1.0
sg12
F1.0
sg100
F1.0
sg45
F1.0
sg15
F1.0
sg68
F1.0
sg67
F1.0
sg82
F1.0
sg23
F1.0
ss.