(dp0
S'Exz0X2naK1'
p1
(dp2
S'dvG32rxRzQ'
p3
F0.75
sS'XL0eQIoG72'
p4
F0.7777777777777777
sS'C18qWKq212'
p5
F0.75
sS'3hSu07XfGd'
p6
F0.75
sS'pg8uPBYamG'
p7
F0.6666666666666666
sS'c1zVCHxCEz'
p8
F1.0
sS'90o991hXMa'
p9
F0.75
sS'IQ98biy227'
p10
F1.0
sS'0U9x5pNv8t'
p11
F0.6666666666666666
ssS'7H6yD0xNNn'
p12
(dp13
sS'0ZroSLGL09'
p14
(dp15
sS'8a0vIMw4At'
p16
(dp17
sS'pVG9cgOpCR'
p18
(dp19
sg4
(dp20
g1
F0.7777777777777778
sS'b2W4ZO3uLV'
p21
F1.0
sS'02i5jCrfQK'
p22
F0.75
sS'9493h91NUB'
p23
F1.0
sg8
F1.0
sg6
F0.9027777777777778
sS'h0UbH181l8'
p24
F0.7857142857142857
sg7
F1.0
sg9
F0.8125
sS'S7E3jvZbGG'
p25
F0.75
sg10
F1.0
sS'6Ax4SKe470'
p26
F1.0
sS'XNEgfvXx50'
p27
F1.0
sS'y5009rpZ12'
p28
F0.8400000000000001
sS'f1924U65I1'
p29
F0.75
sg5
F0.8333333333333334
sS'LQDsuDw2tX'
p30
F1.0
sS'8r7mHkuKX9'
p31
F1.0
sS'5a5qA8VLfI'
p32
F1.0
sS'6jCygPdswz'
p33
F1.0
sS'1bJbgQ32E3'
p34
F0.9
sS'X5eS5kvC8h'
p35
F0.625
sg3
F0.8148148148148148
sS'l5eh0S53tB'
p36
F0.783882783882784
sS'dD0vTK3gXD'
p37
F1.0
sS'i8f2gg51r5'
p38
F0.825
sg11
F1.0
sS'N18G8VLF9v'
p39
F0.75
sS'EWo6L00OAS'
p40
F0.75
sS'0jSb6S70X1'
p41
F1.0
ssS'H4UD7rojkA'
p42
(dp43
sS'e95f4UtF4I'
p44
(dp45
sS'TQ0ahWNcZ9'
p46
(dp47
sg30
(dp48
g24
F1.0
sg4
F1.0
sg38
F1.0
sg3
F1.0
sg36
F1.0
ssg25
(dp49
S'Ugr5eIIEf0'
p50
F0.8333333333333334
sg4
F0.75
sg36
F0.7777777777777777
sS'Qwq8d0du28'
p51
F0.75
sg3
F0.8333333333333333
sg38
F0.7
sg32
F0.75
sS'HujcxU5LVb'
p52
F1.0
sg11
F0.75
ssS'0YvZonpLW8'
p53
(dp54
g29
F1.0
sg35
F1.0
sg28
F1.0
ssg34
(dp55
g35
F0.75
sg3
F0.875
sg21
F0.7916666666666666
sg38
F0.75
sg28
F1.0
sg22
F0.8333333333333334
sg9
F0.75
sg5
F1.0
sS'C0qLCIhI0O'
p56
F0.75
sg6
F1.0
sg24
F1.0
sg7
F1.0
sg33
F0.8541666666666666
sg41
F1.0
sg8
F1.0
sg4
F1.0
sg11
F1.0
sg10
F1.0
sg26
F1.0
sg36
F0.75
ssS'O4PQ25r2dR'
p57
(dp58
sS'FD5m13We02'
p59
(dp60
sg36
(dp61
g21
F0.7777777777777778
sg22
F0.6785714285714286
sg8
F1.0
sS'Mhc6xUn6X1'
p62
F1.0
sg6
F0.75
sg24
F0.6938775510204083
sg7
F1.0
sg9
F0.8125
sg10
F0.8888888888888888
sg26
F0.82
sg28
F0.9
sg29
F0.75
sg5
F0.9
sg30
F0.75
sg25
F1.0
sg32
F1.0
sg33
F0.8333333333333334
sg34
F1.0
sg35
F0.6249999999999999
sg3
F0.8095238095238094
sg37
F1.0
sg4
F0.8285714285714285
sg38
F0.7307692307692308
sg11
F0.8541666666666666
sg52
F1.0
sg40
F0.75
sS'XrH5AAPdtj'
p63
F0.8888888888888888
sg41
F0.75
ssS'AQfVkV1aEx'
p64
(dp65
g32
F1.0
sg24
F0.75
sS'tyU2s0MBzm'
p66
F1.0
ssS'5ey2xUDZTA'
p67
(dp68
g5
F1.0
sg3
F1.0
sg6
F1.0
ssS'XBhl87k165'
p69
(dp70
sS'5gtqSDwEt1'
p71
(dp72
sS'oSV25Eb2y9'
p73
(dp74
sS'YgQ57c2glM'
p75
(dp76
sS'PpTLi2Qz8E'
p77
(dp78
sg52
(dp79
g9
F0.75
sg25
F0.75
sg36
F0.6666666666666666
sg28
F0.75
ssS'mt4GxUF641'
p80
(dp81
sS'UO70mRwd30'
p82
(dp83
sS'K46aEi2Oi7'
p84
(dp85
sg63
(dp86
g36
F1.0
sg28
F1.0
ssS'gv1l9iqcam'
p87
(dp88
sS'bt0ZuHaCGY'
p89
(dp90
g26
F1.0
ssg51
(dp91
g50
F0.75
sg22
F0.8
sS'Fe9oJAU48c'
p92
F0.75
sg3
F0.8222222222222222
sg25
F1.0
sS'PE6x6PxZ42'
p93
F0.7857142857142857
ssS'42FRuGgL06'
p94
(dp95
sg3
(dp96
g1
F1.0
sg50
F1.0
sg21
F1.0
sg51
F1.0
sg22
F1.0
sg8
F1.0
sg62
F1.0
sS'2oNLCndtam'
p97
F1.0
sg6
F1.0
sg24
F0.8400000000000001
sg7
F1.0
sg9
F1.0
sg4
F0.8968253968253967
sg10
F0.8714285714285713
sg26
F1.0
sg28
F0.8571428571428572
sg5
F0.75
sg30
F1.0
sg25
F1.0
sg32
F1.0
sg93
F0.7333333333333334
sg34
F1.0
sg35
F1.0
sg36
F1.0
sg37
F1.0
sg67
F0.8
sg38
F1.0
sg11
F1.0
sg33
F1.0
sS'879eYkR2Wu'
p98
F1.0
sg40
F1.0
sS'P5w9xdB3VM'
p99
F1.0
ssS'7rezIYMwkp'
p100
(dp101
sg9
(dp102
g35
F1.0
sg3
F1.0
sg4
F0.8125
sg36
F1.0
sg28
F0.7777777777777778
sg22
F1.0
sg5
F0.75
sg62
F1.0
sg1
F1.0
sg52
F1.0
sg6
F1.0
sg40
F1.0
sg24
F0.7777777777777778
sg7
F1.0
sg38
F1.0
sg8
F1.0
sg10
F0.8
sg34
F1.0
sg26
F1.0
sg11
F1.0
ssg26
(dp103
g21
F1.0
sg89
F0.6666666666666666
sg22
F0.8333333333333334
sg8
F0.9444444444444443
sg6
F0.75
sg24
F0.6666666666666666
sg7
F1.0
sg9
F0.6666666666666666
sg10
F0.9333333333333332
sg28
F1.0
sg29
F1.0
sg5
F0.9166666666666666
sg31
F0.75
sg32
F1.0
sg33
F0.8888888888888888
sg34
F1.0
sg35
F0.75
sg3
F0.7333333333333334
sg36
F0.8666666666666666
sg4
F0.7045454545454545
sg38
F0.6444444444444445
sg11
F0.75
ssg28
(dp104
g21
F1.0
sg22
F1.0
sg53
F1.0
sg6
F0.8333333333333334
sg24
F0.8333333333333334
sg9
F1.0
sg10
F0.9047619047619048
sg26
F1.0
sg4
F0.9
sg29
F1.0
sg5
F1.0
sg8
F1.0
sg32
F1.0
sg33
F0.9
sg34
F1.0
sg3
F0.888888888888889
sg36
F1.0
sg38
F0.9444444444444445
sg11
F1.0
sg52
F1.0
sg39
F1.0
sS'KiDu7A3iD8'
p105
F1.0
sg63
F1.0
sg41
F1.0
ssg29
(dp106
g35
F1.0
sg21
F1.0
sg36
F1.0
sg28
F1.0
sg22
F1.0
sg5
F1.0
sg38
F1.0
sg8
F1.0
sg32
F1.0
sg4
F1.0
sg33
F1.0
sg53
F1.0
sg26
F1.0
ssg40
(dp107
g35
F1.0
sg3
F1.0
sg4
F1.0
sg36
F1.0
sg22
F1.0
sg24
F1.0
sg9
F1.0
ssS'U50h3ZFmGt'
p108
(dp109
sS'O46hm6g2nf'
p110
(dp111
sS'8ZPoEJbXB7'
p112
(dp113
g35
F0.75
ssg33
(dp114
g35
F1.0
sg3
F0.875
sg21
F1.0
sg36
F1.0
sg28
F1.0
sg22
F1.0
sg29
F1.0
sg5
F1.0
sg31
F1.0
sg6
F0.8611111111111112
sg24
F0.8400000000000001
sg7
F1.0
sg38
F1.0
sg8
F1.0
sg32
F1.0
sg4
F0.8888888888888888
sg34
F1.0
sg26
F0.8333333333333334
sg10
F0.8333333333333334
sg11
F1.0
ssg35
(dp115
g3
F1.0
sg4
F1.0
sg36
F1.0
sg22
F0.7222222222222222
sg29
F0.6666666666666666
sg8
F1.0
sg62
F1.0
sg40
F1.0
sg24
F1.0
sg7
F0.6666666666666666
sg38
F1.0
sg9
F1.0
sg53
F0.8333333333333333
sg112
F1.0
sg33
F0.75
sg34
F0.6666666666666666
sg26
F1.0
sg11
F1.0
ssS'40ARhM4nkF'
p116
(dp117
sS'E97430334J'
p118
(dp119
sS'yG447121nm'
p120
(dp121
sg11
(dp122
g1
F1.0
sg21
F1.0
sg22
F1.0
sg8
F1.0
sg62
F1.0
sg6
F1.0
sg24
F1.0
sg7
F1.0
sg9
F1.0
sg10
F1.0
sg26
F1.0
sg28
F1.0
sg5
F1.0
sg25
F1.0
sg32
F1.0
sg33
F1.0
sg34
F1.0
sg35
F1.0
sg3
F1.0
sg36
F1.0
sg4
F1.0
sg38
F1.0
sg41
F1.0
ssS'gUgPjz2364'
p123
(dp124
sS'DZXDgO0B3u'
p125
(dp126
sS'wwV3RhdO1l'
p127
(dp128
sg99
(dp129
g3
F1.0
ssS'cbgx682J78'
p130
(dp131
sS'D431zXkvuC'
p132
(dp133
sg50
(dp134
S'QER9PsCgBT'
p135
F0.7777777777777777
sg3
F0.7857142857142857
sg51
F1.0
sg22
F1.0
sg8
F0.75
sg98
F0.75
sg25
F0.7777777777777777
sg32
F0.7777777777777777
sS'6A16l70g5Q'
p136
F1.0
sg93
F1.0
ssg21
(dp137
g3
F1.0
sg4
F1.0
sg36
F0.7222222222222223
sg28
F0.85
sg22
F1.0
sg29
F1.0
sg5
F0.8125
sg6
F1.0
sg24
F1.0
sg38
F0.75
sg8
F1.0
sg32
F1.0
sg10
F1.0
sg33
F1.0
sg34
F1.0
sg26
F1.0
sg11
F0.7777777777777778
ssg66
(dp138
g32
F1.0
sg24
F0.875
sg64
F1.0
ssg22
(dp139
g50
F0.8125
sg21
F0.75
sg51
F1.0
sg8
F1.0
sg6
F0.7777777777777777
sg24
F1.0
sg7
F1.0
sg9
F1.0
sg10
F0.6666666666666666
sg26
F1.0
sg28
F0.75
sg29
F1.0
sg5
F1.0
sg31
F1.0
sg32
F1.0
sg33
F0.8666666666666667
sg34
F0.75
sg35
F1.0
sg3
F0.7999999999999999
sg36
F1.0
sg4
F0.8333333333333333
sg38
F1.0
sg11
F0.6666666666666666
sg40
F1.0
ssg23
(dp140
g4
F0.8333333333333333
sg27
F1.0
ssg8
(dp141
g1
F1.0
sg50
F1.0
sg21
F0.75
sg22
F0.625
sg62
F1.0
sg6
F0.6944444444444445
sg24
F0.6666666666666666
sg7
F0.8333333333333334
sg9
F0.7777777777777777
sg10
F0.8571428571428572
sg26
F0.8333333333333334
sg28
F0.875
sg29
F0.6666666666666666
sg5
F1.0
sg31
F1.0
sg32
F1.0
sg33
F0.875
sg34
F0.75
sg135
F0.72
sg35
F1.0
sg3
F0.7962962962962963
sg36
F1.0
sg37
F1.0
sg4
F0.7818181818181819
sg38
F0.7555555555555555
sg11
F0.8
sg98
F1.0
ssg62
(dp142
g35
F0.625
sg3
F0.75
sg36
F0.75
sg8
F0.75
sg9
F0.75
sg11
F0.6666666666666666
ssg6
(dp143
g1
F1.0
sg21
F1.0
sg22
F1.0
sg8
F1.0
sg97
F1.0
sg24
F1.0
sg7
F1.0
sg9
F1.0
sg10
F1.0
sg26
F1.0
sg28
F1.0
sg5
F1.0
sg31
F1.0
sg32
F1.0
sg33
F1.0
sg34
F1.0
sg3
F1.0
sg36
F1.0
sg37
F1.0
sg67
F1.0
sg4
F1.0
sg38
F1.0
sg11
F1.0
sg39
F1.0
ssS'2x0Z9q6jD0'
p144
(dp145
sS'DkXJps09H6'
p146
(dp147
sg7
(dp148
g35
F1.0
sg3
F0.8666666666666667
sg4
F0.9047619047619048
sg36
F1.0
sg10
F0.8333333333333334
sg22
F1.0
sg5
F1.0
sg1
F1.0
sg6
F0.7777777777777778
sg24
F0.75
sg38
F1.0
sg8
F1.0
sg9
F1.0
sg33
F1.0
sg34
F1.0
sg26
F0.75
sg37
F1.0
sg11
F1.0
ssg10
(dp149
g1
F1.0
sg3
F0.8701298701298701
sg21
F1.0
sg36
F1.0
sg28
F1.0
sg22
F1.0
sg9
F0.8125
sg5
F0.75
sg6
F0.8400000000000001
sg24
F1.0
sg7
F0.75
sg38
F0.7916666666666666
sg8
F0.875
sg32
F1.0
sg4
F0.8484848484848485
sg33
F0.8666666666666667
sg34
F0.75
sg26
F0.8333333333333334
sg37
F1.0
sg11
F0.8285714285714285
ssg27
(dp150
g23
F0.75
sg4
F0.7777777777777777
ssS'XHm4u4Y8OU'
p151
(dp152
sg92
(dp153
g51
F1.0
ssg31
(dp154
g4
F1.0
sg22
F1.0
sg5
F1.0
sg6
F1.0
sg38
F1.0
sg8
F1.0
sg32
F1.0
sg33
F1.0
sg26
F1.0
ssg135
(dp155
g32
F1.0
sg8
F1.0
sg136
F1.0
sg50
F1.0
sg98
F1.0
ssS'ub1y4M34bR'
p156
(dp157
sg37
(dp158
g3
F0.875
sg4
F0.9166666666666667
sg36
F1.0
sg8
F1.0
sg6
F0.75
sg24
F0.75
sg7
F1.0
sg10
F0.8
ssg56
(dp159
g34
F1.0
ssS'wkQxI30ZH6'
p160
(dp161
sS'biX0v423q0'
p162
(dp163
sS'8mKdvKlPOw'
p164
(dp165
sg38
(dp166
g21
F1.0
sg22
F1.0
sg8
F1.0
sg6
F0.7777777777777778
sg24
F0.8400000000000001
sg7
F1.0
sg9
F1.0
sg25
F1.0
sg10
F0.875
sg26
F0.8666666666666666
sg28
F1.0
sg29
F1.0
sg5
F1.0
sg30
F0.75
sg31
F1.0
sg32
F1.0
sg33
F1.0
sg34
F1.0
sg35
F1.0
sg3
F0.8833333333333333
sg36
F1.0
sg4
F0.9
sg11
F1.0
ssS'GlZwe88Gzo'
p167
(dp168
g41
F1.0
ssS'kh6j72S63h'
p169
(dp170
sg98
(dp171
g135
F0.6666666666666666
sg50
F1.0
sg8
F1.0
sg3
F1.0
sg32
F1.0
sg93
F0.75
ssS'YEEpIp3429'
p172
(dp173
sS'49kt2kaD8d'
p174
(dp175
sg97
(dp176
g5
F1.0
sg3
F0.75
sg6
F1.0
ssg24
(dp177
g21
F1.0
sg66
F0.8730158730158729
sg22
F1.0
sg8
F1.0
sg6
F1.0
sg7
F1.0
sg9
F1.0
sg10
F1.0
sg26
F1.0
sg4
F1.0
sg5
F1.0
sg30
F1.0
sg32
F1.0
sg33
F1.0
sg34
F0.7777777777777777
sg35
F1.0
sg3
F1.0
sg36
F1.0
sg64
F0.7777777777777777
sg37
F1.0
sg38
F1.0
sg11
F1.0
sg28
F1.0
sg40
F1.0
sg39
F1.0
ssg5
(dp178
g1
F1.0
sg21
F0.85
sg22
F0.75
sg8
F1.0
sg97
F0.75
sg6
F0.7777777777777778
sg24
F0.7777777777777777
sg7
F0.8888888888888888
sg9
F1.0
sg10
F0.8666666666666667
sg26
F0.8333333333333334
sg28
F1.0
sg29
F0.75
sg31
F1.0
sg32
F1.0
sg33
F0.8800000000000001
sg34
F0.75
sg3
F0.8666666666666667
sg36
F1.0
sg67
F1.0
sg4
F0.9
sg38
F1.0
sg11
F1.0
sg105
F1.0
ssS'O4YDV4XPTd'
p179
(dp180
sS'LQm0n9F5e0'
p181
(dp182
sS'PSEDQ6XC7U'
p183
(dp184
sS'B5VRXIQ2Ji'
p185
(dp186
sg32
(dp187
g50
F1.0
sg21
F0.75
sg66
F0.75
sg22
F0.6666666666666666
sg8
F1.0
sg6
F0.8125
sg24
F0.7777777777777777
sg4
F0.8333333333333333
sg25
F1.0
sg10
F1.0
sg26
F0.7777777777777777
sg28
F0.75
sg29
F0.6666666666666666
sg5
F0.7777777777777778
sg31
F0.75
sg33
F0.7777777777777777
sg135
F0.7777777777777777
sg3
F1.0
sg36
F1.0
sg64
F1.0
sg38
F0.8055555555555556
sg11
F1.0
sg98
F1.0
ssS'Dk2tRopWQ3'
p188
(dp189
sg136
(dp190
g135
F1.0
sg50
F1.0
ssg93
(dp191
g50
F1.0
sg51
F1.0
sg3
F0.7777777777777778
sg98
F0.6666666666666666
ssS'iyLqACAFyl'
p192
(dp193
sS'cI0EPqbE61'
p194
(dp195
sS'E1PaKK3181'
p196
(dp197
sg39
(dp198
g24
F0.6666666666666666
sg4
F0.9166666666666667
sg28
F1.0
sg6
F0.6666666666666666
ssS'e5Ef9RFIF0'
p199
(dp200
sS'y8U9Hdz4E3'
p201
(dp202
sS'kKr8NG7YNL'
p203
(dp204
sg105
(dp205
g5
F0.75
sg28
F0.75
ssg41
(dp206
g4
F0.75
sg36
F0.6666666666666666
sg28
F0.8333333333333333
sg167
F1.0
sg34
F0.75
sg11
F0.8888888888888888
ssS'8rsfNQdio8'
p207
(dp208
sS'162lfGskK2'
p209
(dp210
s.