(dp0
S'XJyS25Yg27'
p1
(dp2
S'QER9PsCgBT'
p3
F1.0
sS'7cEjwssz1R'
p4
F1.0
sS'X5eS5kvC8h'
p5
F1.0
sS'ajPRq0Q08b'
p6
F1.0
sS'XL0eQIoG72'
p7
F1.0
sS'i8f2gg51r5'
p8
F1.0
sS'y5009rpZ12'
p9
F1.0
sS'Gwk4z777oU'
p10
F1.0
sS'dvG32rxRzQ'
p11
F1.0
sS'80nlN05JQ6'
p12
F1.0
sS'h0UbH181l8'
p13
F1.0
sS'Hd9GW3f95j'
p14
F1.0
sS'0jSb6S70X1'
p15
F1.0
sS'5a5qA8VLfI'
p16
F1.0
sS'0U9x5pNv8t'
p17
F1.0
sS'78t79xOebG'
p18
F1.0
sS'l5eh0S53tB'
p19
F1.0
ssS'Ugr5eIIEf0'
p20
(dp21
sS'b2W4ZO3uLV'
p22
(dp23
g10
F0.8
sg6
F1.0
sg7
F1.0
sS'02i5jCrfQK'
p24
F1.0
sS'c1zVCHxCEz'
p25
F1.0
sS'3hSu07XfGd'
p26
F1.0
sg12
F1.0
sg13
F1.0
sS'IQ98biy227'
p27
F1.0
sS'6Ax4SKe470'
p28
F1.0
sg9
F0.85
sS'C18qWKq212'
p29
F0.8125
sg16
F1.0
sS'6jCygPdswz'
p30
F1.0
sS'1bJbgQ32E3'
p31
F1.0
sg14
F0.8333333333333334
sg3
F1.0
sg11
F1.0
sg19
F0.7222222222222223
sS'qL6HDg57R9'
p32
F1.0
sg8
F0.6666666666666666
sS'YNGlv7F45C'
p33
F1.0
sg17
F0.7777777777777778
sS'5SXHhHKGxC'
p34
F1.0
sg18
F0.8125
ssS'tyU2s0MBzm'
p35
(dp36
g25
F1.0
sS'6A16l70g5Q'
p37
F1.0
ssS'Qwq8d0du28'
p38
(dp39
S'iyLqACAFyl'
p40
F0.8400000000000001
sS't4K5z0e2NZ'
p41
F0.6666666666666666
sg9
F0.8333333333333334
ssg24
(dp42
g5
F1.0
sg6
F0.825
sg22
F0.75
sg19
F1.0
sg9
F0.75
sg29
F1.0
sg11
F0.8214285714285714
sg10
F1.0
sg32
F1.0
sg26
F0.7777777777777777
sg13
F1.0
sg8
F1.0
sg25
F1.0
sg16
F1.0
sg7
F0.8333333333333333
sg30
F0.8666666666666667
sg31
F0.75
sg28
F1.0
sg27
F0.6666666666666666
sg17
F0.6666666666666666
ssS'9493h91NUB'
p43
(dp44
S'PpTLi2Qz8E'
p45
F1.0
sS'bt0ZuHaCGY'
p46
F0.8333333333333333
ssg25
(dp47
g10
F0.6499999999999999
sg6
F0.8269230769230769
sg22
F0.75
sg35
F0.9
sg24
F0.625
sg26
F0.6944444444444445
sg13
F0.6666666666666666
sg7
F0.7818181818181819
sg27
F0.8571428571428572
sg28
F0.8333333333333334
sg9
F0.875
sg29
F1.0
sg16
F1.0
sg30
F0.875
sg31
F0.75
sg5
F1.0
sg11
F0.7962962962962963
sg19
F1.0
sg32
F0.75
sg8
F0.7555555555555555
sg33
F0.84375
sg17
F0.8
ssS'2oNLCndtam'
p48
(dp49
g7
F1.0
sg11
F1.0
sS'z9svx3mA4s'
p50
F1.0
sg31
F1.0
ssg10
(dp51
g1
F1.0
sg6
F1.0
sg22
F1.0
sg24
F1.0
sg25
F1.0
sg26
F1.0
sg13
F1.0
sg7
F1.0
sg27
F0.8333333333333334
sg28
F1.0
sS'XNEgfvXx50'
p52
F1.0
sg9
F1.0
sg29
F1.0
sg16
F1.0
sg30
F1.0
sg5
F1.0
sg11
F1.0
sg19
F1.0
sS'5ey2xUDZTA'
p53
F1.0
sg32
F1.0
sg8
F1.0
sg17
F1.0
sS'879eYkR2Wu'
p54
F1.0
sg15
F1.0
sS'8rsfNQdio8'
p55
F1.0
sS'0u17bw7v7w'
p56
F1.0
ssg26
(dp57
S'MrZ99Q697y'
p58
F1.0
sg10
F1.0
sg6
F1.0
sg22
F1.0
sg19
F1.0
sg9
F1.0
sg24
F1.0
sg29
F1.0
sg11
F1.0
sg32
F1.0
sg33
F1.0
sg13
F1.0
sg8
F1.0
sg25
F1.0
sg16
F1.0
sg7
F1.0
sg30
F1.0
sg31
F1.0
sg28
F1.0
sg27
F1.0
sg17
F1.0
ssS'LjgZcY49TV'
p59
(dp60
g6
F1.0
ssg12
(dp61
g3
F0.8400000000000001
sg1
F1.0
sg22
F1.0
sg34
F1.0
sg13
F0.8125
sg14
F1.0
sg8
F0.8888888888888888
sg18
F1.0
ssg13
(dp62
g1
F1.0
sg6
F1.0
sg22
F1.0
sg24
F1.0
sg25
F1.0
sg10
F1.0
sg26
F1.0
sg12
F1.0
sg7
F1.0
sg27
F1.0
sg28
F1.0
sg9
F1.0
sg29
F1.0
sg16
F1.0
sg30
F1.0
sg31
F0.7777777777777777
sg14
F1.0
sg3
F1.0
sg5
F1.0
sg11
F1.0
sg19
F1.0
sg32
F0.85
sg8
F1.0
sg17
F1.0
sg34
F1.0
sg18
F1.0
ssg7
(dp63
g1
F0.5333333333333333
sg6
F0.8888888888888888
sg22
F1.0
sg24
F0.75
sg25
F1.0
sg48
F0.75
sg10
F0.8333333333333333
sg26
F0.9027777777777778
sg13
F0.7857142857142857
sg27
F1.0
sg28
F1.0
sg58
F0.6666666666666666
sS'88Uhb8760x'
p64
F1.0
sg9
F0.8400000000000001
sg29
F0.8333333333333334
sg16
F1.0
sg30
F1.0
sg31
F1.0
sg4
F0.75
sg5
F0.625
sg11
F0.8928571428571428
sg19
F0.783882783882784
sg50
F1.0
sg32
F1.0
sg8
F0.825
sg33
F1.0
sg17
F1.0
sS'XUwJ9E07Zd'
p65
F1.0
ssS'5LMy832c47'
p66
(dp67
S'g209g5Vve6'
p68
F1.0
sg33
F0.9
sS'EaUoBdvBdC'
p69
F1.0
ssg27
(dp70
g10
F1.0
sg6
F0.8828125
sg22
F1.0
sg24
F1.0
sg25
F0.875
sg26
F0.8400000000000001
sg13
F1.0
sg7
F0.8484848484848485
sg28
F0.8333333333333334
sg19
F1.0
sg9
F1.0
sg29
F0.75
sg16
F1.0
sS'PE6x6PxZ42'
p71
F1.0
sg31
F0.75
sg11
F0.8701298701298701
sg41
F0.8
sg32
F1.0
sg8
F0.7916666666666666
sg33
F1.0
sg17
F0.8285714285714285
sg30
F0.8444444444444444
sS'F25axtfCKG'
p72
F1.0
ssg28
(dp73
g10
F0.8
sg6
F0.79004329004329
sg22
F1.0
sg24
F0.8333333333333334
sg25
F0.9444444444444443
sg26
F0.75
sg13
F0.6666666666666666
sg7
F0.7045454545454545
sg27
F0.9333333333333332
sg58
F0.6666666666666666
sg9
F1.0
sg29
F0.9166666666666666
sg16
F1.0
sg30
F0.8888888888888888
sg31
F1.0
sg5
F0.75
sg11
F0.7333333333333334
sg19
F0.8666666666666666
sg32
F1.0
sg8
F0.6444444444444445
sg33
F1.0
sg17
F0.75
ssg52
(dp74
g5
F0.75
sg6
F0.8690476190476191
sg19
F0.7916666666666666
sg53
F1.0
sg10
F0.75
sg54
F0.7777777777777778
sg55
F0.6875
sg56
F1.0
ssg46
(dp75
g43
F1.0
sg45
F1.0
ssg58
(dp76
g5
F1.0
sg6
F1.0
sg7
F1.0
sg19
F1.0
sg29
F1.0
sg26
F0.75
sg11
F1.0
sg8
F1.0
sg31
F1.0
sg28
F1.0
sg17
F1.0
ssg64
(dp77
g7
F0.85
sg32
F0.8125
sg50
F1.0
sg11
F0.875
sg31
F1.0
ssg9
(dp78
g1
F1.0
sg6
F0.9272727272727272
sg22
F1.0
sg38
F0.8285714285714285
sg24
F1.0
sg25
F1.0
sg10
F0.8125
sg26
F0.8333333333333334
sg11
F0.888888888888889
sg7
F0.9
sg27
F0.9047619047619048
sg28
F1.0
sg19
F1.0
sg29
F1.0
sg16
F1.0
sg30
F0.9
sg31
F1.0
sg40
F0.7777777777777777
sg41
F0.85
sg32
F1.0
sg8
F0.9444444444444445
sg33
F1.0
sg17
F1.0
sg13
F0.8333333333333334
sg15
F1.0
ssS'1kKxS8urAH'
p79
(dp80
sg29
(dp81
g58
F1.0
sg10
F0.6875
sg6
F0.888888888888889
sg22
F0.85
sg19
F1.0
sg9
F1.0
sg24
F0.75
sg25
F1.0
sg11
F0.875
sg32
F1.0
sg26
F0.8125
sg33
F1.0
sg13
F0.7777777777777777
sg8
F1.0
sg16
F1.0
sg7
F0.9
sg30
F0.8800000000000001
sg31
F0.75
sg28
F0.8333333333333334
sg27
F0.8666666666666667
sg17
F1.0
ssg69
(dp82
g66
F1.0
ssg16
(dp83
g1
F1.0
sg6
F0.8333333333333334
sg22
F0.75
sg19
F1.0
sg9
F0.75
sg24
F0.6666666666666666
sg29
F0.7777777777777778
sg11
F1.0
sg10
F0.75
sg32
F0.8125
sg26
F0.8125
sg33
F0.7777777777777777
sg13
F0.8125
sg8
F0.8055555555555556
sg25
F1.0
sg7
F0.8333333333333333
sg30
F0.75
sg27
F1.0
sg28
F0.7777777777777777
sg17
F1.0
ssS'8ZPoEJbXB7'
p84
(dp85
sg37
(dp86
g35
F1.0
ssg30
(dp87
g10
F0.8800000000000001
sg6
F0.9047619047619048
sg22
F1.0
sg24
F1.0
sg25
F1.0
sg26
F0.8611111111111112
sg13
F0.8400000000000001
sg7
F0.8888888888888888
sg27
F0.8142857142857143
sg28
F0.8333333333333334
sg19
F1.0
sg9
F1.0
sg29
F1.0
sg16
F1.0
sg71
F0.875
sg31
F1.0
sg5
F1.0
sg11
F0.875
sg41
F0.8809523809523809
sg32
F1.0
sg8
F1.0
sg33
F1.0
sg17
F1.0
ssg31
(dp88
g6
F0.8012820512820512
sg22
F0.7916666666666666
sg24
F0.8333333333333334
sg25
F1.0
sg48
F0.75
sg26
F1.0
sg13
F1.0
sg7
F1.0
sg27
F1.0
sg28
F1.0
sg58
F0.6666666666666666
sg64
F1.0
sg9
F1.0
sg29
F1.0
sg30
F0.8541666666666666
sg5
F0.75
sg11
F0.8571428571428571
sg19
F0.75
sg50
F0.8125
sg32
F0.85
sg8
F0.75
sg33
F1.0
sg17
F1.0
ssg14
(dp89
g3
F0.6666666666666666
sg1
F0.875
sg22
F0.7777777777777778
sg12
F1.0
sg13
F0.6875
sg8
F0.7777777777777778
sg18
F0.8
ssS'0KS4yy9G96'
p90
(dp91
sg3
(dp92
g1
F1.0
sg22
F1.0
sg34
F1.0
sg12
F1.0
sg13
F1.0
sg14
F1.0
sg8
F1.0
sg18
F1.0
ssg4
(dp93
g1
F1.0
sg6
F1.0
sg7
F1.0
sg5
F1.0
ssg5
(dp94
g58
F1.0
sg1
F1.0
sg6
F1.0
sg7
F1.0
sg19
F1.0
sg24
F0.7222222222222222
sg25
F1.0
sg4
F1.0
sg10
F0.75
sg11
F1.0
sg13
F1.0
sg30
F0.7777777777777777
sg8
F1.0
sg55
F1.0
sg17
F1.0
sg31
F0.6666666666666666
sg28
F1.0
sg52
F0.75
ssg40
(dp95
g38
F0.8285714285714286
sg9
F1.0
ssg41
(dp96
g71
F1.0
sg9
F1.0
sg38
F1.0
sg30
F1.0
sg27
F1.0
sg33
F1.0
ssS'AQfVkV1aEx'
p97
(dp98
g55
F1.0
sg6
F0.875
sg19
F1.0
ssS'11fnXrq9Jf'
p99
(dp100
sg53
(dp101
g10
F1.0
sg6
F0.825
sg19
F0.8333333333333334
sg54
F1.0
sg55
F1.0
sg56
F0.7777777777777777
sg52
F0.7777777777777778
ssg50
(dp102
g11
F0.8666666666666668
sg64
F0.7777777777777778
sg48
F1.0
sg32
F1.0
sg7
F0.8125
sg31
F0.8125
ssg11
(dp103
g1
F1.0
sg6
F0.925
sg22
F1.0
sg24
F1.0
sg25
F1.0
sg48
F1.0
sg10
F1.0
sg26
F1.0
sg13
F0.8400000000000001
sg7
F0.8846153846153846
sg27
F0.8714285714285713
sg28
F1.0
sg58
F1.0
sg64
F1.0
sg9
F0.8571428571428572
sg29
F0.8
sg16
F1.0
sg30
F1.0
sg31
F1.0
sg5
F1.0
sg19
F1.0
sg50
F0.8333333333333333
sg32
F1.0
sg8
F1.0
sg33
F1.0
sg17
F1.0
sg65
F0.75
ssg32
(dp104
g10
F1.0
sg6
F0.7983193277310924
sg22
F0.7777777777777777
sg24
F1.0
sg25
F1.0
sg26
F0.7777777777777778
sg13
F1.0
sg7
F0.7333333333333334
sg27
F0.72
sg28
F1.0
sg64
F0.8125
sg9
F0.7678571428571429
sg29
F1.0
sg16
F1.0
sg30
F0.8095238095238094
sg31
F0.6875
sg11
F0.7999999999999999
sg19
F0.8186813186813187
sg50
F0.9166666666666666
sg65
F1.0
sg8
F1.0
sg33
F1.0
sg17
F0.5833333333333334
ssg8
(dp105
g1
F1.0
sg6
F0.9259259259259258
sg22
F1.0
sg24
F1.0
sg25
F1.0
sg10
F0.8125
sg26
F0.7777777777777778
sg12
F1.0
sg13
F0.8125
sg7
F0.9
sg27
F0.875
sg28
F0.8666666666666666
sg58
F1.0
sg9
F1.0
sg29
F1.0
sg16
F1.0
sg30
F1.0
sg31
F1.0
sg14
F0.85
sg3
F0.7777777777777778
sg5
F1.0
sg11
F0.8833333333333333
sg19
F1.0
sg32
F1.0
sg33
F1.0
sg17
F1.0
sg18
F1.0
ssS'MPqJdqnPtc'
p106
(dp107
sg33
(dp108
g68
F1.0
sg6
F0.8484848484848485
sg22
F1.0
sg41
F0.75
sg9
F1.0
sg29
F0.75
sg11
F0.8125
sg26
F0.7777777777777777
sg32
F1.0
sg30
F0.7777777777777778
sg8
F0.78125
sg25
F0.875
sg16
F1.0
sg7
F0.6666666666666666
sg66
F1.0
sg17
F0.7777777777777777
sg31
F0.75
sg28
F1.0
sg27
F1.0
sg19
F1.0
ssg17
(dp109
g10
F1.0
sg6
F1.0
sg22
F1.0
sg24
F1.0
sg25
F1.0
sg1
F1.0
sg26
F1.0
sg13
F1.0
sg7
F1.0
sg27
F1.0
sg28
F1.0
sg58
F1.0
sg9
F1.0
sg29
F1.0
sg16
F1.0
sg30
F1.0
sg31
F1.0
sg5
F1.0
sg11
F1.0
sg19
F1.0
sg32
F1.0
sg8
F1.0
sg33
F1.0
sg15
F1.0
ssg68
(dp110
g66
F0.75
sg33
F1.0
ssg45
(dp111
g43
F1.0
sg46
F1.0
ssg6
(dp112
g10
F0.65
sg22
F1.0
sg24
F0.8214285714285714
sg25
F1.0
sg1
F0.7777777777777778
sg26
F0.890625
sg13
F0.7142857142857143
sg7
F0.7740740740740741
sg27
F0.8409090909090909
sg28
F0.8503401360544218
sg52
F1.0
sg58
F0.5833333333333334
sg9
F0.8111888111888113
sg29
F0.7857142857142856
sg16
F1.0
sg30
F0.9285714285714286
sg31
F0.9166666666666666
sg4
F0.7777777777777777
sg5
F0.7916666666666667
sg11
F0.8283333333333334
sg19
F0.8581349206349206
sg97
F1.0
sg53
F0.6291666666666667
sg32
F1.0
sg8
F0.7645502645502646
sg59
F1.0
sg33
F1.0
sg17
F0.8730158730158729
sg54
F0.888888888888889
sg15
F1.0
sg55
F0.8775510204081632
sg56
F1.0
ssg34
(dp113
g3
F0.75
sg12
F0.75
sg13
F0.7777777777777778
sg22
F1.0
ssg54
(dp114
g10
F0.75
sg6
F0.7777777777777777
sg19
F0.9047619047619049
sg53
F0.6666666666666666
sg55
F0.8125
sg56
F0.75
sg52
F1.0
ssg65
(dp115
g32
F1.0
sg7
F1.0
sg11
F0.8333333333333333
ssg18
(dp116
g3
F0.8400000000000001
sg1
F1.0
sg22
F0.85
sg12
F0.7777777777777778
sg13
F1.0
sg8
F1.0
sg14
F1.0
ssg15
(dp117
g1
F0.75
sg6
F0.875
sg19
F0.6666666666666666
sg9
F0.8333333333333333
sg10
F0.75
sg17
F0.8888888888888888
ssS'pI9Tpj13ty'
p118
(dp119
sg55
(dp120
g5
F1.0
sg6
F0.826530612244898
sg19
F0.9183673469387755
sg97
F1.0
sg53
F1.0
sg10
F0.8333333333333333
sg54
F1.0
sg56
F0.7777777777777777
sg52
F0.8125
ssg72
(dp121
g71
F1.0
sg27
F1.0
ssg71
(dp122
g27
F0.7916666666666666
sg72
F1.0
sg30
F1.0
sg41
F1.0
ssg19
(dp123
g10
F0.7
sg6
F0.7847222222222222
sg22
F0.7777777777777778
sg24
F0.6785714285714286
sg25
F1.0
sg1
F1.0
sg26
F0.75
sg13
F0.6938775510204083
sg7
F0.8285714285714285
sg27
F0.8888888888888888
sg28
F0.82
sg52
F1.0
sg58
F0.75
sg9
F0.9090909090909091
sg29
F0.9
sg16
F1.0
sg30
F0.8333333333333334
sg31
F1.0
sg5
F0.7333333333333334
sg11
F0.8095238095238094
sg97
F1.0
sg53
F0.6499999999999999
sg32
F0.826530612244898
sg8
F0.7307692307692308
sg33
F0.8125
sg17
F0.8541666666666666
sg54
F1.0
sg15
F0.75
sg55
F0.8979591836734694
sg56
F0.7777777777777777
ssg56
(dp124
g10
F1.0
sg6
F1.0
sg19
F1.0
sg53
F0.75
sg54
F0.75
sg55
F1.0
sg52
F1.0
ss.