(dp0
S'm5MmtPWHdr'
p1
(dp2
sS'XJyS25Yg27'
p3
(dp4
S'X5eS5kvC8h'
p5
F1.0
sS'34f4oB5Cod'
p6
F1.0
sS'XL0eQIoG72'
p7
F1.0
sS'i8f2gg51r5'
p8
F1.0
sS'y5009rpZ12'
p9
F1.0
sS'Hd9GW3f95j'
p10
F1.0
sS'1kKxS8urAH'
p11
F1.0
sS's19Mo891H5'
p12
F1.0
sS'8gH5u019ZH'
p13
F1.0
sS'k3jBd30ocz'
p14
F1.0
sS'ajPRq0Q08b'
p15
F1.0
sS'dvG32rxRzQ'
p16
F1.0
sS'saNy7ix5ZY'
p17
F1.0
sS'h0UbH181l8'
p18
F1.0
sS'EfN583275t'
p19
F1.0
sS'Gwk4z777oU'
p20
F1.0
sS'78t79xOebG'
p21
F1.0
ssg12
(dp22
g3
F1.0
sg16
F1.0
sg7
F1.0
sS'l5eh0S53tB'
p23
F1.0
sS'LnVZmUuwc8'
p24
F1.0
sS'02i5jCrfQK'
p25
F1.0
sg18
F0.75
sS'77y7iIIXuv'
p26
F1.0
sS'6jCygPdswz'
p27
F0.75
sS'1bJbgQ32E3'
p28
F1.0
sS'4X3016rdOZ'
p29
F1.0
ssS'M7hLaVJGvX'
p30
(dp31
S'MPqJdqnPtc'
p32
F1.0
sg13
F1.0
ssS'Fx8d98DRud'
p33
(dp34
g15
F1.0
ssS'l8bH01vT7z'
p35
(dp36
sS'9eV0EGVC6j'
p37
(dp38
sS'6bJ4auIa8L'
p39
(dp40
g15
F1.0
sg7
F1.0
sg23
F1.0
sg9
F1.0
sS'yf2V5ll9mN'
p41
F1.0
sg14
F1.0
sS'qL6HDg57R9'
p42
F1.0
sS'OS2vxzjz6W'
p43
F1.0
sg16
F1.0
sg8
F1.0
sS'5a5qA8VLfI'
p44
F1.0
sg18
F1.0
sS'YNGlv7F45C'
p45
F1.0
ssS'8csPxY44OZ'
p46
(dp47
sS'a47O44klh3'
p48
(dp49
sS'0GlR30c2Mt'
p50
(dp51
g15
F1.0
sS'X4ZaxfDz3Q'
p52
F0.75
sg9
F0.8333333333333333
sS'81E41tTtV9'
p53
F0.75
sg23
F0.6666666666666666
sS'tyU2s0MBzm'
p54
F0.6666666666666666
ssg26
(dp55
S'apCLF0uF21'
p56
F1.0
sS'6W08a98ZQV'
p57
F1.0
sg15
F1.0
sg7
F1.0
sg23
F1.0
sg9
F1.0
sg25
F1.0
sS'c1zVCHxCEz'
p58
F1.0
sg12
F1.0
sS'11fnXrq9Jf'
p59
F1.0
sg20
F1.0
sg29
F1.0
sg14
F1.0
sg8
F1.0
sg44
F1.0
sg27
F1.0
sS'EWHJMBPf94'
p60
F1.0
sS'SoEcLAeJi1'
p61
F1.0
sS'242fhbKRf9'
p62
F1.0
sS'0U9x5pNv8t'
p63
F1.0
ssS'1DlUV9t495'
p64
(dp65
sS'88Uhb8760x'
p66
(dp67
S'f45jOmRd4S'
p68
F1.0
sg15
F1.0
sg23
F1.0
sg9
F1.0
sg42
F1.0
sg16
F1.0
sS'4pzSijxuK6'
p69
F1.0
sg44
F1.0
sg62
F1.0
ssS'GD16TzL1x4'
p70
(dp71
sS'PrH19Z5q87'
p72
(dp73
sS'vpuUyzUJ0z'
p74
(dp75
S'IQ98biy227'
p76
F1.0
sS'c3Ee3W8hyq'
p77
F1.0
sg43
F1.0
ssS'2IaH8665Ha'
p78
(dp79
sS'verm1Wp12u'
p80
(dp81
sS'qkmLNnC7YU'
p82
(dp83
sS'XTXYl6nJ7J'
p84
(dp85
sS'OPv5PP9Bi4'
p86
(dp87
sS'm64Rgy40OF'
p88
(dp89
g15
F0.6666666666666666
sg23
F0.75
sg9
F0.75
sg24
F0.75
sg61
F0.75
sg42
F0.75
sS'ZP886G3Z76'
p90
F0.75
ssg28
(dp91
g15
F0.75
sg7
F1.0
sg12
F1.0
sg42
F1.0
sg16
F1.0
sg27
F0.7777777777777778
sg18
F0.75
sg90
F1.0
ssS'E38It7fjg0'
p92
(dp93
S'5LMy832c47'
p94
F0.75
sg27
F0.75
sS'z9svx3mA4s'
p95
F0.75
sg5
F1.0
ssS'XqBaV46VbC'
p96
(dp97
sg57
(dp98
g56
F1.0
sg15
F0.75
sg7
F1.0
sg23
F0.75
sg9
F0.75
sg24
F0.75
sg61
F0.75
sS'hwF4tyWU50'
p99
F0.75
sg42
F0.75
sg26
F1.0
sS'ey9rvMnU57'
p100
F0.75
sg60
F0.75
sg90
F0.75
sS'mNzo8mGzu9'
p101
F0.75
sg19
F1.0
ssS'35F52CG565'
p102
(dp103
sg23
(dp104
g56
F1.0
sg20
F0.7777777777777778
sg15
F0.8484848484848485
sg7
F1.0
sg54
F1.0
sS'Qwq8d0du28'
p105
F1.0
sg25
F1.0
sg53
F1.0
sg12
F1.0
sg39
F1.0
sg5
F0.6666666666666666
sS'3hSu07XfGd'
p106
F1.0
sg50
F1.0
sg18
F1.0
sg26
F1.0
sS'Dmq6441349'
p107
F1.0
sg76
F1.0
sg66
F1.0
sg9
F1.0
sg11
F1.0
sS'EV28POlwE4'
p108
F1.0
sg43
F1.0
sg62
F1.0
sg88
F1.0
sg44
F1.0
sg27
F1.0
sg29
F1.0
sg61
F1.0
sg10
F1.0
sg68
F1.0
sg57
F1.0
sg16
F1.0
sg52
F1.0
sg24
F1.0
sg17
F1.0
sg42
F1.0
sg8
F1.0
sg60
F1.0
sg45
F1.0
sg101
F1.0
sg63
F1.0
sS'USdRVl9AOe'
p109
F1.0
sS'668lBbaKFE'
p110
F1.0
sS'z1iLCTB32T'
p111
F1.0
sg90
F1.0
sg14
F1.0
sg69
F1.0
sS'1CI7f2R98c'
p112
F1.0
sS'9EAa0nJjb1'
p113
F1.0
ssS'zb6H17h1Dc'
p114
(dp115
sS'46z59pQP58'
p116
(dp117
S'66Ak255E3j'
p118
F0.75
sg105
F1.0
sg9
F1.0
ssg95
(dp119
g16
F0.7777777777777778
sg7
F1.0
sg54
F1.0
sS'6O31vedZbI'
p120
F0.75
sS'CZDz8OSRfI'
p121
F1.0
sS'LM96hW22T2'
p122
F1.0
sg69
F1.0
sg27
F1.0
sg76
F1.0
sg92
F0.75
sg77
F1.0
ssS'8d194g9ccT'
p123
(dp124
sS'02ZjVTxC34'
p125
(dp126
sS'7y5NJZ7S6u'
p127
(dp128
g56
F1.0
sg19
F1.0
ssg17
(dp129
g3
F0.75
sg15
F0.8333333333333334
sg23
F0.8333333333333333
sg9
F0.6666666666666666
sg24
F1.0
sg14
F1.0
sg20
F0.75
sg90
F0.75
sg16
F0.75
sg8
F0.75
sg45
F1.0
sg10
F1.0
sg63
F0.75
ssS'562xzTNuI6'
p130
(dp131
sS'075kbY53c1'
p132
(dp133
g11
F1.0
ssS'7RB2G4NbCn'
p134
(dp135
sS'9Bj19ocQBw'
p136
(dp137
sS'276487SwvF'
p138
(dp139
sS'UmsZ3gHcg7'
p140
(dp141
sg110
(dp142
g15
F1.0
sS'LP15lX652E'
p143
F1.0
sg23
F1.0
sg108
F1.0
ssg111
(dp144
g23
F1.0
ssS'7YX78oEdjZ'
p145
(dp146
sS'2J2SH6Fk63'
p147
(dp148
g15
F1.0
sg54
F1.0
sg101
F1.0
ssS'PE6x6PxZ42'
p149
(dp150
g5
F1.0
sg15
F1.0
sg54
F1.0
sg9
F1.0
sg109
F1.0
sg59
F1.0
sg105
F1.0
sg14
F1.0
sg120
F1.0
sg16
F1.0
sg122
F1.0
sg8
F1.0
sg76
F1.0
sS'9QD9297moO'
p151
F1.0
sg21
F1.0
sg52
F1.0
ssg21
(dp152
g3
F1.0
sg15
F1.0
sg11
F1.0
sg14
F1.0
sg8
F1.0
sg149
F1.0
sg10
F1.0
sg63
F1.0
ssS'45oTz6NVkr'
p153
(dp154
sS'nybp7zY98z'
p155
(dp156
sg20
(dp157
g56
F1.0
sg3
F1.0
sS'yuB6nxh3FX'
p158
F0.75
sg7
F1.0
sg54
F1.0
sg53
F1.0
sg58
F1.0
sg106
F1.0
sg15
F1.0
sg26
F1.0
sg94
F0.75
sg76
F1.0
sg9
F1.0
sg11
F1.0
sg43
F1.0
sg27
F1.0
sg5
F1.0
sg23
F1.0
sg24
F1.0
sg17
F1.0
sg19
F1.0
sg8
F1.0
sg63
F1.0
sg14
F1.0
sg18
F1.0
ssg158
(dp159
g20
F1.0
sg15
F0.6666666666666666
sg7
F0.6666666666666666
sg54
F0.75
sg9
F0.75
sg120
F0.75
sg43
F1.0
sg18
F0.75
sg27
F1.0
sg76
F0.7777777777777777
sg63
F1.0
ssS'bt0ZuHaCGY'
p160
(dp161
g54
F1.0
sg9
F1.0
sg99
F1.0
ssg105
(dp162
g15
F1.0
sg7
F1.0
sg9
F1.0
sS'56dTCKdr74'
p163
F1.0
sg25
F1.0
sg116
F1.0
sg13
F1.0
sg14
F1.0
sg16
F1.0
sg43
F1.0
sS'Si4v9635O3'
p164
F1.0
sg19
F1.0
sg8
F1.0
sg149
F1.0
sg29
F1.0
sg23
F1.0
ssS'5VZLSGPT10'
p165
(dp166
sS'2AMmebFl86'
p167
(dp168
sS'FrPh305pw8'
p169
(dp170
sS'QS4cvQ8w0o'
p171
(dp172
sg107
(dp173
g27
F0.75
sg23
F0.6666666666666666
sg45
F0.75
ssS'16zN4n2fFO'
p174
(dp175
sg9
(dp176
g56
F1.0
sg3
F1.0
sg15
F1.0
sg7
F1.0
sg54
F1.0
sg105
F1.0
sg53
F1.0
sg61
F1.0
sg39
F1.0
sg20
F1.0
sg106
F1.0
sg50
F1.0
sg14
F1.0
sg26
F1.0
sg43
F1.0
sg76
F1.0
sg23
F1.0
sg160
F1.0
sg66
F1.0
sS'Wi92e1D7bp'
p177
F1.0
sg11
F1.0
sg108
F1.0
sg99
F1.0
sg88
F1.0
sg44
F1.0
sg149
F1.0
sg151
F1.0
sg90
F1.0
sg10
F1.0
sg68
F1.0
sg57
F1.0
sg16
F1.0
sS't4K5z0e2NZ'
p178
F1.0
sg24
F1.0
sg116
F1.0
sg17
F1.0
sg42
F1.0
sg19
F1.0
sg8
F1.0
sg45
F1.0
sg62
F1.0
sg63
F1.0
sg158
F1.0
sg109
F1.0
sg41
F1.0
sg18
F1.0
sg69
F1.0
sg52
F1.0
sg29
F1.0
ssg41
(dp179
g16
F1.0
sg7
F1.0
sg9
F1.0
sg15
F1.0
sg39
F1.0
sg14
F1.0
sg69
F1.0
sg44
F1.0
sg76
F1.0
ssg76
(dp180
g56
F1.0
sg20
F1.0
sg158
F0.7777777777777777
sg7
F1.0
sg54
F1.0
sS'bcoY3s64sj'
p181
F0.75
sg15
F1.0
sg9
F1.0
sg41
F1.0
sg74
F1.0
sg120
F0.75
sg43
F1.0
sg44
F1.0
sg27
F1.0
sg29
F1.0
sg16
F1.0
sg23
F1.0
sg163
F1.0
sg95
F1.0
sg42
F1.0
sg19
F1.0
sg8
F1.0
sg45
F1.0
sg62
F1.0
sg63
F1.0
sg149
F1.0
sg14
F1.0
sg18
F1.0
sg77
F1.0
ssg120
(dp182
S'45TTYcotWk'
p183
F1.0
sg158
F1.0
sg54
F1.0
sg95
F1.0
sg181
F1.0
sg15
F1.0
sg149
F1.0
sg76
F1.0
ssg183
(dp184
g120
F0.75
ssS'2kb387yOiG'
p185
(dp186
sS'Vu26QoCms4'
p187
(dp188
sS'N6wWxh9CL4'
p189
(dp190
sg27
(dp191
g56
F1.0
sg20
F1.0
sg15
F1.0
sg12
F1.0
sg106
F1.0
sg158
F0.75
sg26
F1.0
sg107
F1.0
sg76
F1.0
sg23
F1.0
sg43
F1.0
sg44
F1.0
sg28
F1.0
sg61
F1.0
sg5
F1.0
sg16
F1.0
sg178
F1.0
sg24
F1.0
sg95
F1.0
sS'm58s5oOZCm'
p192
F1.0
sg45
F1.0
sg62
F1.0
sg113
F1.0
sg92
F0.75
sg121
F1.0
sg18
F1.0
sg69
F1.0
sg112
F1.0
ssS'QQTAp3k3UP'
p193
(dp194
sS'0KS4yy9G96'
p195
(dp196
sg5
(dp197
g3
F1.0
sg15
F1.0
sg23
F1.0
sg149
F1.0
sg24
F1.0
sg20
F1.0
sg43
F1.0
sg29
F1.0
sg27
F1.0
sg92
F1.0
sg63
F1.0
ssg52
(dp198
g15
F1.0
sg54
F1.0
sg9
F1.0
sg53
F1.0
sg50
F1.0
sg149
F0.75
sg23
F1.0
ssg24
(dp199
g57
F1.0
sg15
F1.0
sg23
F1.0
sg9
F1.0
sg12
F0.75
sg88
F1.0
sg5
F0.8333333333333333
sg16
F0.75
sg90
F1.0
sg17
F1.0
sg42
F1.0
sg43
F0.75
sg20
F0.75
sg27
F0.75
sg61
F1.0
ssS'63r5Aj4EeB'
p200
(dp201
sg19
(dp202
g56
F1.0
sg57
F0.75
sg15
F1.0
sg7
F0.8333333333333334
sg105
F1.0
sg9
F0.75
sg13
F1.0
sg76
F0.75
sg14
F1.0
sg3
F0.7777777777777777
sg16
F0.75
sg106
F0.6666666666666666
sg127
F1.0
sg164
F1.0
sg20
F0.75
sg18
F1.0
sg45
F1.0
sg63
F0.75
ssS'HvghFVBS5v'
p203
(dp204
g11
F1.0
sg44
F1.0
sg18
F1.0
sg56
F1.0
sg106
F1.0
ssS'ftgrG3jT2m'
p205
(dp206
sg45
(dp207
g56
F1.0
sg15
F1.0
sg23
F0.8333333333333334
sg9
F0.6666666666666666
sg76
F0.6875
sg39
F0.75
sg42
F0.75
sg43
F0.75
sg17
F1.0
sg16
F0.75
sg19
F1.0
sg8
F0.6666666666666666
sg107
F0.75
sg44
F0.6666666666666666
sg14
F1.0
sg27
F0.75
sg29
F1.0
sg90
F0.75
sg10
F1.0
sg63
F0.75
ssS'3C1dH8H8v3'
p208
(dp209
sg63
(dp210
g56
F1.0
sg5
F1.0
sg15
F1.0
sg158
F1.0
sg23
F1.0
sg9
F1.0
sg58
F1.0
sg20
F1.0
sg17
F1.0
sg14
F1.0
sg26
F1.0
sg19
F1.0
sg8
F1.0
sg76
F1.0
sg45
F1.0
sg21
F1.0
ssg6
(dp211
g3
F1.0
sg15
F1.0
sg7
F1.0
ssS'5x5fHvFFLv'
p212
(dp213
S'oEt3YTvS4G'
p214
F1.0
ssS'RwM69ocq8e'
p215
(dp216
sg109
(dp217
g15
F1.0
sg23
F1.0
sg9
F1.0
sg59
F1.0
sS'52vEY7f17k'
p218
F1.0
sg14
F1.0
sg8
F1.0
sg149
F1.0
sg10
F1.0
sg29
F1.0
ssS'D1VwdFc01t'
p219
(dp220
sg69
(dp221
g15
F1.0
sg66
F1.0
sg178
F0.75
sg9
F1.0
sg163
F1.0
sg177
F1.0
sg41
F1.0
sg95
F0.75
sg108
F1.0
sg121
F1.0
sg53
F1.0
sg18
F1.0
sg7
F1.0
sg27
F0.75
sg151
F1.0
sg23
F1.0
sg54
F1.0
ssS'y4Vg256UzB'
p222
(dp223
sg112
(dp224
g56
F0.75
sg15
F0.8
sg23
F0.6666666666666666
sg106
F0.75
sg18
F0.75
sg27
F0.75
sg62
F0.75
sg113
F0.75
ssS'5yasLi1Avt'
p225
(dp226
sg56
(dp227
g20
F0.75
sg15
F1.0
sg7
F0.8333333333333333
sg106
F0.75
sg14
F1.0
sg26
F0.75
sg76
F0.75
sg9
F0.75
sg11
F1.0
sg44
F0.75
sg27
F0.75
sg57
F0.75
sg23
F0.8333333333333333
sg127
F1.0
sg19
F1.0
sg45
F1.0
sg62
F1.0
sg113
F0.75
sg203
F1.0
sg63
F0.75
sg18
F1.0
sg112
F0.75
ssg15
(dp228
g56
F1.0
sg3
F0.6666666666666666
sg158
F0.75
sg7
F0.8333333333333334
sg54
F0.5833333333333334
sg33
F0.6666666666666666
sg17
F0.8333333333333334
sg53
F0.75
sg58
F0.8333333333333333
sg61
F0.75
sg39
F0.6666666666666666
sg5
F0.8333333333333334
sS'tlJn3I40bf'
p229
F0.7777777777777777
sg106
F0.75
sg50
F1.0
sg18
F0.8888888888888888
sg26
F0.75
sg100
F0.75
sg20
F0.6666666666666666
sg43
F0.7777777777777777
sg76
F0.6666666666666666
sg52
F0.75
sg122
F1.0
sg66
F1.0
sg105
F0.75
sg9
F0.6458333333333334
sg11
F1.0
sg120
F0.75
sg108
F1.0
sg28
F0.8333333333333333
sg99
F0.75
sg164
F0.75
sg88
F0.6666666666666666
sg44
F0.7777777777777778
sg143
F1.0
sg113
F0.75
sg27
F0.75
sg151
F1.0
sg90
F0.7777777777777777
sg10
F0.75
sg68
F1.0
sg57
F0.6666666666666666
sg16
F0.7777777777777778
sg23
F0.75
sg163
F0.75
sg24
F0.75
sg59
F0.6666666666666666
sg192
F1.0
sS'yB480DNZ70'
p230
F0.75
sg42
F0.7777777777777777
sg19
F1.0
sg8
F0.7000000000000001
sg45
F1.0
sg62
F1.0
sg63
F0.75
sg6
F0.75
sg109
F0.7777777777777778
sg110
F1.0
sg29
F1.0
sg41
F0.75
sg14
F0.75
sg69
F0.75
sg147
F0.75
sg112
F0.75
sg149
F0.64
sg21
F0.6666666666666666
ssg7
(dp231
g56
F0.75
sg3
F0.6666666666666666
sg158
F1.0
sg105
F0.75
sg25
F0.6666666666666666
sg12
F0.75
sg39
F1.0
sg20
F0.75
sg106
F0.8333333333333334
sg15
F0.7777777777777778
sg26
F0.75
sg76
F1.0
sg9
F0.7777777777777777
sg41
F0.75
sg44
F1.0
sg113
F1.0
sg28
F0.6666666666666666
sg57
F0.75
sg16
F0.7777777777777778
sg23
F0.6666666666666666
sg163
F0.75
sg95
F1.0
sg42
F1.0
sg19
F0.6666666666666666
sg29
F0.75
sg6
F0.75
sg14
F0.75
sg18
F0.8333333333333334
sg69
F0.75
ssg54
(dp232
g20
F1.0
sg15
F1.0
sg158
F0.75
sg23
F1.0
sg9
F1.0
sg53
F1.0
sg147
F1.0
sg95
F1.0
sg120
F0.75
sg52
F1.0
sg181
F0.75
sg50
F1.0
sg18
F1.0
sg69
F1.0
sg76
F1.0
sg149
F1.0
sg151
F1.0
sg99
F1.0
sg160
F1.0
ssg25
(dp233
g16
F1.0
sg7
F1.0
sg23
F1.0
sg105
F1.0
sg12
F1.0
sg26
F1.0
sg44
F1.0
sg29
F1.0
ssg53
(dp234
g20
F1.0
sg15
F1.0
sg54
F1.0
sg9
F1.0
sg11
F1.0
sg177
F1.0
sg50
F1.0
sg14
F1.0
sg69
F1.0
sg52
F1.0
sg23
F1.0
ssg58
(dp235
g20
F1.0
sg15
F1.0
sg43
F1.0
sg26
F1.0
sg8
F1.0
sg44
F1.0
sg62
F1.0
sg63
F1.0
ssg61
(dp236
g57
F1.0
sg15
F1.0
sg23
F1.0
sg9
F1.0
sg24
F1.0
sS'jR1rpwLHNu'
p237
F1.0
sg192
F1.0
sg42
F1.0
sg26
F1.0
sg88
F1.0
sg27
F1.0
sg90
F1.0
ssg237
(dp238
g61
F1.0
ssS'rPj8YeG1I5'
p239
(dp240
sg106
(dp241
g56
F1.0
sg20
F1.0
sg16
F1.0
sg7
F1.0
sg23
F1.0
sg9
F1.0
sg11
F1.0
sg203
F1.0
sg14
F1.0
sg15
F1.0
sg18
F1.0
sg19
F1.0
sg44
F1.0
sg112
F1.0
sg27
F1.0
sg62
F1.0
sg113
F1.0
ssg32
(dp242
g30
F1.0
ssS'80nlN05JQ6'
p243
(dp244
sS'stK4H8Vit6'
p245
(dp246
sg100
(dp247
g57
F1.0
sg15
F1.0
sg99
F1.0
ssg214
(dp248
g212
F1.0
ssg94
(dp249
g20
F1.0
sg92
F1.0
ssS'dTIQk6Xt3r'
p250
(dp251
sS'BpYaFX7hkQ'
p252
(dp253
sS'Rl6LafSUXj'
p254
(dp255
sS'pgHmAyjLe1'
p256
(dp257
sS'12ss7J5ug6'
p258
(dp259
sg62
(dp260
g56
F1.0
sg15
F1.0
sg66
F1.0
sg23
F0.8333333333333334
sg9
F0.6666666666666666
sg58
F0.8333333333333333
sg16
F0.75
sg14
F1.0
sg42
F0.75
sg106
F0.75
sg18
F1.0
sg26
F0.75
sg43
F0.7777777777777777
sg8
F0.6666666666666666
sg44
F0.8125
sg112
F0.75
sg27
F0.75
sg76
F0.75
sg113
F0.75
sg29
F1.0
ssg99
(dp261
g57
F1.0
sg15
F1.0
sg160
F1.0
sg9
F1.0
sg100
F1.0
sg54
F1.0
ssS'GrT3u8W8Wm'
p262
(dp263
sg164
(dp264
g230
F1.0
sg15
F1.0
sg14
F1.0
sg19
F1.0
sg105
F1.0
ssg118
(dp265
g116
F1.0
ssS'Qb2LYvN3zF'
p266
(dp267
sg113
(dp268
g56
F1.0
sg15
F1.0
sg7
F0.6666666666666666
sg23
F1.0
sg106
F1.0
sg18
F1.0
sg44
F1.0
sg112
F1.0
sg27
F1.0
sg62
F1.0
ssS'f4fNYL73Z2'
p269
(dp270
sS'c6LS9kDJe1'
p271
(dp272
sS'K8b2FfNFdp'
p273
(dp274
sS'tB4vqSxzqo'
p275
(dp276
sg178
(dp277
g27
F1.0
sg69
F1.0
sg9
F1.0
ssS'OW11c44gy1'
p278
(dp279
sS'YH4M65c5kP'
p280
(dp281
sS'w5famqnV15'
p282
(dp283
sg218
(dp284
g109
F1.0
ssS'JrJt3mY6Ls'
p285
(dp286
sg8
(dp287
g3
F1.0
sg15
F1.0
sg105
F1.0
sg58
F1.0
sg39
F1.0
sg20
F1.0
sg18
F1.0
sg26
F1.0
sg76
F1.0
sg9
F1.0
sg43
F1.0
sg44
F1.0
sg149
F1.0
sg10
F1.0
sg16
F1.0
sg23
F1.0
sg42
F1.0
sg45
F1.0
sg62
F1.0
sg29
F1.0
sg109
F1.0
sg14
F1.0
sg63
F1.0
sg17
F1.0
sg21
F1.0
ssS'589M2uPIY4'
p288
(dp289
sg101
(dp290
g11
F1.0
sg147
F1.0
sg57
F1.0
sg60
F1.0
sg23
F1.0
ssS'bw71rBaKg5'
p291
(dp292
sS'W0f661D7Zp'
p293
(dp294
sS'l8kuAhlIWI'
p295
(dp296
sS'zfYl0YECr0'
p297
(dp298
sg90
(dp299
g57
F1.0
sg15
F1.0
sg23
F1.0
sg9
F1.0
sg24
F1.0
sg61
F1.0
sg17
F1.0
sg42
F1.0
sg88
F1.0
sg28
F1.0
sg45
F1.0
ssg121
(dp300
g69
F1.0
sg27
F0.75
sg95
F0.75
ssg14
(dp301
g56
F1.0
sg3
F0.75
sg15
F0.875
sg7
F0.8333333333333333
sg105
F1.0
sg13
F1.0
sg53
F1.0
sg39
F0.75
sg20
F0.7777777777777778
sg106
F0.6666666666666666
sg18
F1.0
sg26
F0.75
sg76
F0.75
sg9
F0.7916666666666666
sg11
F1.0
sg43
F0.75
sg164
F1.0
sg44
F0.75
sg149
F1.0
sg29
F1.0
sg10
F1.0
sg16
F0.75
sg23
F0.8333333333333334
sg42
F0.75
sg19
F1.0
sg8
F0.75
sg45
F1.0
sg62
F1.0
sg63
F0.75
sg109
F1.0
sg41
F1.0
sg17
F1.0
sg21
F1.0
ssS'PUH9Se529L'
p302
(dp303
sg77
(dp304
g74
F1.0
sg16
F1.0
sg95
F1.0
sg76
F1.0
sg43
F1.0
ssS'84qYt0yA5y'
p305
(dp306
sS'Dl62lXJbK1'
p307
(dp308
sS'Uv4cSe2ijd'
p309
(dp310
sg13
(dp311
g3
F1.0
sg14
F1.0
sg30
F1.0
sg19
F1.0
sg105
F1.0
ssS'Ru21xRreim'
p312
(dp313
sS'CaA0123UJL'
p314
(dp315
sS'0w3IAZa8rQ'
p316
(dp317
sg229
(dp318
g15
F1.0
sg108
F1.0
ssg181
(dp319
g76
F1.0
sg120
F1.0
sg54
F1.0
ssg18
(dp320
g56
F1.0
sg3
F0.7777777777777777
sg158
F0.75
sg7
F0.8333333333333334
sg54
F1.0
sg12
F0.75
sg39
F0.75
sg20
F0.75
sg106
F0.75
sg15
F1.0
sg76
F0.75
sg9
F0.7777777777777778
sg11
F1.0
sg44
F0.7777777777777778
sg27
F0.7777777777777777
sg28
F0.8333333333333333
sg16
F0.75
sg23
F0.8333333333333333
sg163
F1.0
sg42
F0.75
sg19
F1.0
sg8
F0.75
sg62
F1.0
sg113
F0.75
sg203
F1.0
sg14
F1.0
sg69
F1.0
sg112
F0.75
ssS'31ApG55XoV'
p321
(dp322
sS'517LN52NOL'
p323
(dp324
sS'gPaagaJ8aq'
p325
(dp326
sg122
(dp327
g15
F1.0
sg95
F0.75
sg149
F0.75
ssS'39Uc7ru04l'
p328
(dp329
sg11
(dp330
g56
F1.0
sg3
F0.75
sg15
F1.0
sg23
F0.7777777777777777
sg9
F0.8333333333333333
sg53
F0.75
sg203
F0.8125
sg14
F0.75
sg20
F0.75
sg106
F1.0
sg18
F1.0
sg101
F1.0
sg44
F0.75
sg21
F0.75
sg132
F1.0
ssS'1hQzlO49di'
p331
(dp332
sS'DS5ecUMGJi'
p333
(dp334
sg108
(dp335
g15
F1.0
sg23
F1.0
sg9
F1.0
sg110
F1.0
sg229
F1.0
sg69
F1.0
ssg43
(dp336
g20
F0.875
sg15
F1.0
sg105
F1.0
sg58
F1.0
sg39
F1.0
sg158
F0.75
sg76
F1.0
sg9
F1.0
sg74
F1.0
sg44
F1.0
sg27
F1.0
sg5
F1.0
sg16
F1.0
sg23
F1.0
sg24
F1.0
sg42
F1.0
sg8
F1.0
sg45
F1.0
sg62
F1.0
sg29
F1.0
sg14
F1.0
sg77
F1.0
ssS'8FcKH1d6A2'
p337
(dp338
sg44
(dp339
g56
F1.0
sg15
F1.0
sg7
F1.0
sg25
F1.0
sg58
F1.0
sg39
F1.0
sg106
F1.0
sg18
F1.0
sg26
F1.0
sg76
F1.0
sg66
F1.0
sg9
F1.0
sg11
F1.0
sg43
F1.0
sg27
F1.0
sg16
F1.0
sg23
F1.0
sg42
F1.0
sg8
F1.0
sg45
F1.0
sg62
F1.0
sg29
F1.0
sg203
F1.0
sg41
F1.0
sg14
F1.0
sg113
F1.0
ssS'nxe3l4KD0z'
p340
(dp341
sg151
(dp342
g15
F1.0
sg69
F0.75
sg54
F0.6666666666666666
sg9
F0.75
sg149
F1.0
ssg10
(dp343
g3
F1.0
sg15
F1.0
sg23
F1.0
sg9
F1.0
sg109
F1.0
sg17
F1.0
sg14
F1.0
sg8
F1.0
sg45
F1.0
sg21
F1.0
ssg68
(dp344
g15
F1.0
sg42
F1.0
sg66
F1.0
sg23
F1.0
sg9
F1.0
ssS'wY56ZI2gyL'
p345
(dp346
sg16
(dp347
g3
F1.0
sg15
F0.7777777777777777
sg7
F0.75
sg105
F1.0
sg25
F1.0
sg12
F1.0
sg39
F0.7777777777777778
sg106
F1.0
sg18
F0.75
sg76
F0.7777777777777777
sg66
F1.0
sg9
F0.75
sg41
F0.75
sg43
F1.0
sg44
F1.0
sg27
F1.0
sg28
F1.0
sg23
F1.0
sg163
F0.75
sg24
F1.0
sg95
F0.7777777777777777
sg17
F1.0
sg42
F1.0
sg19
F1.0
sg8
F1.0
sg45
F1.0
sg62
F1.0
sg29
F1.0
sg149
F0.75
sg14
F1.0
sg77
F1.0
ssS'12M70dm49w'
p348
(dp349
sg163
(dp350
g15
F1.0
sg7
F1.0
sg105
F1.0
sg16
F1.0
sg18
F1.0
sg69
F1.0
sg76
F1.0
ssg59
(dp351
g109
F1.0
sg15
F1.0
sg26
F1.0
sg149
F1.0
ssg192
(dp352
g61
F0.75
sg15
F1.0
sg27
F0.75
ssg230
(dp353
g15
F0.75
sg164
F0.75
ssg42
(dp354
g15
F1.0
sg7
F1.0
sg61
F1.0
sg39
F1.0
sg18
F1.0
sg76
F1.0
sg66
F0.7777777777777778
sg9
F1.0
sg43
F1.0
sg88
F1.0
sg44
F1.0
sg28
F0.75
sg90
F1.0
sg68
F1.0
sg57
F1.0
sg16
F0.7777777777777778
sg23
F1.0
sg24
F1.0
sg8
F1.0
sg45
F1.0
sg62
F1.0
sg29
F1.0
sg14
F1.0
ssg60
(dp355
g57
F1.0
sg26
F1.0
sg23
F1.0
sg101
F1.0
ssg29
(dp356
g5
F0.8333333333333333
sg15
F1.0
sg7
F0.8333333333333333
sg23
F0.8333333333333334
sg9
F0.6666666666666666
sg25
F0.8333333333333333
sg109
F1.0
sg12
F0.75
sg105
F1.0
sg14
F1.0
sg16
F0.75
sg43
F0.75
sg42
F0.75
sg26
F0.75
sg8
F0.6666666666666666
sg44
F0.75
sg76
F0.75
sg45
F1.0
sg62
F1.0
ssS'740FTSQ19O'
p357
(dp358
sS'yA79w15tnU'
p359
(dp360
sS'q1Yar3mIhE'
p361
(dp362
sS'ctVOdq1wnp'
p363
(dp364
sg177
(dp365
g53
F1.0
sg69
F1.0
sg9
F1.0
ssS'vzYx9SZ29x'
p366
(dp367
sg143
(dp368
g110
F1.0
sg15
F1.0
ssS'odPTXtfS78'
p369
(dp370
s.