(dp0
S'jxlpSn00qm'
p1
(dp2
sS'XJyS25Yg27'
p3
(dp4
S'QER9PsCgBT'
p5
F1.0
sS'7cEjwssz1R'
p6
F1.0
sS'Gwk4z777oU'
p7
F1.0
sS'ajPRq0Q08b'
p8
F1.0
sS'XL0eQIoG72'
p9
F1.0
sS'i8f2gg51r5'
p10
F1.0
sS'y5009rpZ12'
p11
F1.0
sS'dvG32rxRzQ'
p12
F1.0
sS'h0UbH181l8'
p13
F1.0
sS'EfN583275t'
p14
F1.0
sS'0jSb6S70X1'
p15
F1.0
sS'Hd9GW3f95j'
p16
F1.0
ssS'Ugr5eIIEf0'
p17
(dp18
g5
F1.0
sS'c1zVCHxCEz'
p19
F1.0
sS'879eYkR2Wu'
p20
F1.0
sS'5a5qA8VLfI'
p21
F1.0
sS'C18qWKq212'
p22
F1.0
sS'8rsfNQdio8'
p23
F1.0
sS'6A16l70g5Q'
p24
F1.0
ssS'b2W4ZO3uLV'
p25
(dp26
g7
F1.0
sg8
F1.0
sg9
F1.0
sS'tyU2s0MBzm'
p27
F1.0
sS'02i5jCrfQK'
p28
F1.0
sg19
F1.0
sS'3hSu07XfGd'
p29
F1.0
sS'80nlN05JQ6'
p30
F1.0
sg13
F1.0
sS'5LMy832c47'
p31
F1.0
sS'IQ98biy227'
p32
F1.0
sg11
F1.0
sg22
F1.0
sS'6jCygPdswz'
p33
F1.0
sg16
F1.0
sg5
F1.0
sg12
F1.0
sS'l5eh0S53tB'
p34
F1.0
sS'11fnXrq9Jf'
p35
F1.0
sS'qL6HDg57R9'
p36
F1.0
sg14
F1.0
sg10
F1.0
sS'YNGlv7F45C'
p37
F1.0
sS'0U9x5pNv8t'
p38
F1.0
sS'78t79xOebG'
p39
F1.0
ssg27
(dp40
g7
F1.0
sg8
F1.0
sg25
F1.0
sS'bt0ZuHaCGY'
p41
F1.0
sg28
F1.0
sg19
F1.0
sS'2oNLCndtam'
p42
F1.0
sg29
F1.0
sg13
F1.0
sg9
F1.0
sg31
F0.7777777777777778
sg32
F1.0
sS'6Ax4SKe470'
p43
F1.0
sg11
F1.0
sg33
F1.0
sS'E38It7fjg0'
p44
F0.75
sg16
F1.0
sg5
F1.0
sg34
F1.0
sg36
F1.0
sS'g209g5Vve6'
p45
F1.0
sg20
F1.0
sg23
F1.0
sg39
F1.0
ssS'Qwq8d0du28'
p46
(dp47
g7
F1.0
sg9
F1.0
sg34
F1.0
sg11
F1.0
sg28
F1.0
sg29
F1.0
sg13
F1.0
sS'4pzSijxuK6'
p48
F1.0
sg31
F1.0
ssg28
(dp49
g7
F1.0
sg8
F1.0
sg25
F1.0
sg27
F1.0
sg11
F1.0
sg22
F1.0
sg12
F1.0
sg46
F1.0
sg36
F1.0
sg29
F1.0
sg13
F1.0
sg10
F1.0
sg19
F1.0
sg23
F1.0
sg9
F1.0
sg33
F1.0
sg43
F1.0
sg34
F1.0
ssS'9493h91NUB'
p50
(dp51
g8
F0.6666666666666666
sg9
F0.8333333333333333
sg41
F0.6666666666666666
sg29
F0.75
ssg19
(dp52
g7
F0.8
sg17
F1.0
sg25
F0.7777777777777778
sg27
F0.7777777777777777
sg28
F0.6666666666666666
sg29
F0.7777777777777777
sg8
F0.7999999999999999
sg9
F0.7777777777777777
sg31
F0.75
sg32
F1.0
sg43
F0.8125
sS'88Uhb8760x'
p53
F1.0
sg11
F0.75
sg22
F0.75
sg21
F1.0
sg33
F0.75
sg16
F1.0
sg5
F0.75
sg12
F1.0
sg34
F1.0
sg14
F1.0
sg10
F0.8333333333333333
sg37
F0.75
sg38
F1.0
sg20
F1.0
sg13
F0.75
sg23
F0.7777777777777777
sg39
F0.75
ssg42
(dp54
g22
F1.0
sg12
F0.75
sg9
F1.0
sg27
F1.0
sg29
F1.0
ssg7
(dp55
g3
F1.0
sg8
F1.0
sg25
F1.0
sg27
F1.0
sg46
F1.0
sg28
F1.0
sg19
F1.0
sg29
F1.0
sg13
F1.0
sg9
F1.0
sg31
F0.8125
sg32
F1.0
sg43
F1.0
sS'XNEgfvXx50'
p56
F1.0
sg11
F1.0
sS'1kKxS8urAH'
p57
F1.0
sg22
F1.0
sg21
F1.0
sg33
F1.0
sg44
F0.75
sg16
F1.0
sS'X5eS5kvC8h'
p58
F1.0
sg12
F1.0
sg34
F1.0
sS'5ey2xUDZTA'
p59
F1.0
sg14
F1.0
sg10
F1.0
sg48
F1.0
sg15
F1.0
sg23
F1.0
sg39
F1.0
sS'0u17bw7v7w'
p60
F1.0
ssS'yDO9pl8GC0'
p61
(dp62
sS'LjgZcY49TV'
p63
(dp64
sg30
(dp65
g25
F1.0
ssg13
(dp66
g3
F0.7777777777777777
sg8
F1.0
sg25
F0.7777777777777777
sg27
F1.0
sg46
F1.0
sg28
F0.8333333333333333
sg19
F0.8333333333333333
sg7
F0.7777777777777778
sg29
F0.8
sg9
F0.7999999999999999
sg31
F1.0
sg43
F0.75
sg11
F0.7777777777777778
sg57
F1.0
sg22
F0.75
sg21
F0.8125
sg33
F0.7777777777777777
sg16
F1.0
sg5
F1.0
sg34
F0.7999999999999999
sS'AQfVkV1aEx'
p67
F1.0
sS'9aw67h1Z47'
p68
F0.75
sg36
F0.7777777777777777
sg14
F1.0
sg10
F0.75
sS'5SXHhHKGxC'
p69
F1.0
sg48
F1.0
sg39
F1.0
ssg9
(dp70
g3
F0.6666666666666666
sg8
F0.8333333333333334
sg25
F1.0
sg27
F1.0
sg46
F0.6666666666666666
sg28
F0.75
sg50
F0.75
sg19
F1.0
sg42
F1.0
sg7
F0.8
sg29
F0.8666666666666666
sg13
F0.8333333333333334
sg31
F0.7777777777777778
sg32
F1.0
sg43
F1.0
sg56
F0.75
sg53
F0.75
sg11
F0.7777777777777777
sg57
F0.75
sg22
F0.7777777777777777
sS'EaUoBdvBdC'
p71
F0.75
sg21
F1.0
sg33
F1.0
sS'1bJbgQ32E3'
p72
F0.6666666666666666
sg16
F0.7777777777777777
sg5
F1.0
sg6
F0.75
sg12
F0.75
sg34
F0.78125
sg68
F1.0
sg36
F1.0
sg14
F0.6875
sg10
F1.0
sg37
F1.0
sg20
F1.0
sg48
F0.75
sg23
F1.0
sg39
F1.0
ssg31
(dp73
g7
F1.0
sg8
F1.0
sg25
F1.0
sg27
F1.0
sg46
F1.0
sg19
F1.0
sg29
F1.0
sg13
F1.0
sg9
F1.0
sg32
F1.0
sg11
F1.0
sg57
F1.0
sg71
F1.0
sg33
F1.0
sg44
F1.0
sg16
F1.0
sg34
F1.0
sg36
F1.0
sg14
F1.0
sg37
F1.0
sg45
F1.0
sg23
F1.0
sg39
F1.0
ssg32
(dp74
g7
F1.0
sg8
F1.0
sg25
F1.0
sg27
F1.0
sg44
F0.75
sg14
F1.0
sg19
F1.0
sg12
F1.0
sg29
F1.0
sg37
F1.0
sg36
F1.0
sS'PE6x6PxZ42'
p75
F1.0
sg33
F1.0
sg21
F1.0
sg9
F1.0
sg31
F0.75
sg38
F1.0
sg43
F1.0
sg34
F1.0
ssg43
(dp76
g7
F1.0
sg8
F1.0
sg9
F1.0
sg41
F1.0
sg28
F1.0
sg19
F1.0
sg29
F1.0
sg13
F1.0
sg32
F1.0
sg27
F1.0
sg11
F1.0
sg22
F1.0
sg21
F1.0
sg33
F1.0
sg16
F1.0
sg12
F1.0
sg34
F1.0
sg14
F1.0
sg10
F1.0
sg37
F1.0
sg20
F1.0
sg23
F1.0
sg39
F1.0
ssg56
(dp77
g7
F1.0
sg9
F0.75
sg59
F1.0
sg20
F1.0
sg23
F0.7777777777777778
sg60
F1.0
ssg41
(dp78
g50
F1.0
sg45
F1.0
sg43
F1.0
sg27
F1.0
ssS'MrZ99Q697y'
p79
(dp80
g29
F0.75
ssg53
(dp81
g12
F0.8333333333333333
sg9
F0.8333333333333333
sg19
F0.75
sg20
F0.75
sg36
F0.75
sg21
F0.8333333333333333
ssg11
(dp82
g3
F1.0
sg8
F1.0
sg25
F1.0
sg27
F1.0
sg46
F1.0
sg28
F1.0
sg19
F1.0
sg7
F1.0
sg29
F1.0
sg13
F1.0
sg9
F1.0
sg31
F1.0
sg43
F1.0
sg22
F1.0
sg21
F1.0
sg33
F1.0
sg34
F1.0
sg68
F1.0
sg36
F1.0
sg14
F1.0
sg10
F1.0
sg37
F1.0
sg48
F1.0
sg15
F1.0
ssg57
(dp83
g45
F1.0
sg7
F1.0
sg8
F1.0
sg9
F1.0
sg34
F1.0
sg29
F1.0
sg13
F1.0
sg14
F1.0
sg21
F0.75
sg31
F1.0
sg20
F1.0
ssg22
(dp84
g7
F1.0
sg17
F1.0
sg25
F1.0
sg34
F1.0
sg11
F1.0
sg28
F1.0
sg8
F1.0
sg19
F1.0
sg12
F1.0
sg42
F1.0
sg36
F1.0
sg29
F1.0
sg21
F1.0
sg37
F1.0
sg13
F1.0
sg10
F1.0
sg23
F1.0
sg9
F1.0
sg33
F1.0
sg43
F1.0
ssg71
(dp85
g68
F1.0
sg31
F1.0
sg9
F1.0
sg29
F1.0
ssg6
(dp86
g3
F1.0
sg8
F1.0
sg9
F1.0
ssS'VHCF3iE0a4'
p87
(dp88
sg21
(dp89
g7
F0.75
sg17
F1.0
sg9
F0.8214285714285714
sg19
F1.0
sg8
F0.8125
sg32
F1.0
sg43
F0.7777777777777777
sg53
F1.0
sg11
F0.75
sg57
F1.0
sg22
F0.7777777777777778
sg16
F1.0
sg5
F0.7777777777777777
sg12
F1.0
sg34
F1.0
sg67
F1.0
sg36
F0.7777777777777777
sg14
F1.0
sg10
F0.8333333333333333
sg37
F0.7777777777777777
sg20
F1.0
sg13
F0.8125
sg23
F0.7777777777777777
sg39
F0.75
ssS'8ZPoEJbXB7'
p90
(dp91
g23
F1.0
sg5
F1.0
ssg24
(dp92
g5
F1.0
sg17
F1.0
ssg33
(dp93
g7
F1.0
sg8
F1.0
sg25
F1.0
sg27
F1.0
sg28
F1.0
sg19
F1.0
sg29
F1.0
sg13
F1.0
sg9
F1.0
sg31
F0.75
sg32
F1.0
sg43
F1.0
sg34
F1.0
sg11
F1.0
sg22
F1.0
sg72
F1.0
sg44
F0.75
sg58
F1.0
sg12
F1.0
sS't4K5z0e2NZ'
p94
F1.0
sS'z9svx3mA4s'
p95
F1.0
sg36
F1.0
sg10
F1.0
sg37
F1.0
sg48
F1.0
sg23
F1.0
sg39
F1.0
ssg72
(dp96
g8
F0.75
sg9
F1.0
sg36
F1.0
sg12
F1.0
sg15
F1.0
sg33
F1.0
ssg44
(dp97
g7
F1.0
sg27
F1.0
sg95
F0.75
sg31
F1.0
sg33
F0.75
sg32
F1.0
ssg16
(dp98
g5
F0.75
sg3
F1.0
sg8
F0.85
sg25
F0.7777777777777778
sg27
F0.75
sg19
F1.0
sg7
F0.6666666666666666
sg36
F0.75
sg29
F0.75
sg21
F1.0
sg37
F0.75
sg13
F0.75
sg14
F1.0
sg10
F0.8333333333333333
sg23
F0.75
sg9
F0.7999999999999999
sg31
F0.75
sg43
F0.75
sg39
F0.7777777777777777
sg34
F1.0
ssS'0KS4yy9G96'
p99
(dp100
sg5
(dp101
g3
F1.0
sg17
F1.0
sg25
F1.0
sg27
F1.0
sg9
F1.0
sg19
F1.0
sg69
F1.0
sg29
F1.0
sg21
F1.0
sg13
F1.0
sg16
F1.0
sg10
F1.0
sg23
F1.0
sg90
F1.0
sg24
F1.0
sg20
F1.0
sg39
F1.0
ssS'o0Q2M0X487'
p102
(dp103
sg58
(dp104
g7
F1.0
sg8
F1.0
sg33
F1.0
sg34
F1.0
sg38
F1.0
ssS'iyLqACAFyl'
p105
(dp106
sg94
(dp107
g33
F1.0
ssg67
(dp108
g8
F1.0
sg21
F1.0
sg13
F1.0
sg34
F1.0
sg29
F0.75
ssg68
(dp109
g13
F0.8333333333333333
sg9
F1.0
sg71
F0.75
sg11
F0.7777777777777777
sg29
F0.8333333333333333
ssg35
(dp110
g23
F1.0
sg25
F1.0
ssS'XUwJ9E07Zd'
p111
(dp112
sg59
(dp113
g23
F1.0
sg7
F1.0
sg56
F1.0
sg8
F1.0
sg20
F1.0
ssg95
(dp114
g12
F0.75
sg33
F1.0
sg44
F0.75
ssg12
(dp115
g3
F1.0
sg8
F1.0
sg25
F1.0
sg28
F1.0
sg19
F1.0
sg42
F1.0
sg7
F1.0
sg29
F1.0
sg9
F1.0
sg32
F1.0
sg43
F1.0
sg53
F1.0
sg22
F1.0
sg21
F1.0
sg75
F1.0
sg72
F1.0
sg34
F1.0
sg95
F1.0
sg36
F1.0
sg14
F1.0
sg33
F1.0
sg20
F1.0
sg39
F1.0
ssS'wRE6vq194f'
p116
(dp117
sS't0fI2c7EMH'
p118
(dp119
sg14
(dp120
g3
F0.7777777777777777
sg8
F1.0
sg25
F0.7777777777777777
sg34
F0.7
sg11
F0.75
sg57
F1.0
sg19
F0.8333333333333333
sg12
F0.6666666666666666
sg7
F0.75
sg36
F0.75
sg29
F0.75
sg37
F1.0
sg13
F1.0
sg21
F0.6666666666666666
sg9
F0.8333333333333334
sg31
F1.0
sg32
F0.7777777777777777
sg43
F0.75
sg16
F1.0
sg38
F0.75
ssg10
(dp121
g5
F1.0
sg3
F1.0
sg8
F1.0
sg25
F1.0
sg34
F1.0
sg11
F1.0
sg28
F1.0
sg22
F1.0
sg7
F1.0
sg36
F1.0
sg29
F1.0
sg37
F1.0
sg13
F1.0
sg16
F1.0
sg19
F1.0
sg21
F1.0
sg9
F1.0
sg33
F1.0
sg43
F1.0
sg39
F1.0
ssS'MPqJdqnPtc'
p122
(dp123
sg29
(dp124
g7
F1.0
sg8
F1.0
sg25
F1.0
sg27
F1.0
sg46
F1.0
sg28
F1.0
sg50
F1.0
sg19
F1.0
sg42
F1.0
sg13
F1.0
sg9
F1.0
sg31
F1.0
sg32
F1.0
sg43
F1.0
sg79
F1.0
sg11
F1.0
sg57
F1.0
sg22
F1.0
sg71
F1.0
sg33
F1.0
sg16
F1.0
sg5
F1.0
sg12
F1.0
sg34
F1.0
sg67
F1.0
sg68
F1.0
sg36
F1.0
sg14
F1.0
sg10
F1.0
sg37
F1.0
sg48
F1.0
sg23
F1.0
sg39
F1.0
ssg37
(dp125
g45
F1.0
sg14
F1.0
sg8
F1.0
sg25
F0.7777777777777777
sg34
F0.7999999999999999
sg11
F0.75
sg22
F0.75
sg20
F1.0
sg36
F0.75
sg33
F0.6666666666666666
sg10
F0.6666666666666666
sg19
F0.8333333333333333
sg21
F0.6666666666666666
sg9
F0.75
sg31
F1.0
sg29
F0.75
sg32
F0.6666666666666666
sg43
F0.75
sg16
F1.0
sg38
F0.75
ssg38
(dp126
g58
F1.0
sg25
F1.0
sg19
F1.0
sg14
F1.0
sg15
F1.0
sg32
F1.0
sg37
F1.0
ssg45
(dp127
g41
F1.0
sg57
F1.0
sg20
F1.0
sg31
F1.0
sg37
F1.0
sg34
F1.0
sg27
F1.0
ssS'PpTLi2Qz8E'
p128
(dp129
sg8
(dp130
g3
F0.75
sg25
F0.7777777777777777
sg27
F1.0
sg28
F0.8333333333333333
sg50
F0.75
sg19
F0.8333333333333334
sg7
F0.8
sg29
F0.8125
sg13
F1.0
sg9
F0.8214285714285714
sg31
F1.0
sg32
F0.75
sg43
F0.7777777777777777
sg11
F0.6666666666666666
sg57
F1.0
sg22
F0.75
sg21
F0.8
sg33
F0.7777777777777777
sg72
F0.8333333333333333
sg16
F0.8125
sg6
F0.75
sg58
F0.8333333333333333
sg12
F0.6666666666666666
sg34
F0.8444444444444444
sg67
F1.0
sg59
F1.0
sg36
F0.7777777777777777
sg14
F0.8888888888888888
sg10
F0.75
sg37
F1.0
sg75
F1.0
sg20
F1.0
sg23
F1.0
sg39
F1.0
sg60
F1.0
ssg69
(dp131
g5
F1.0
sg13
F1.0
ssS'DRKr1AyP0r'
p132
(dp133
sg20
(dp134
g5
F0.75
sg45
F1.0
sg17
F1.0
sg53
F1.0
sg27
F0.75
sg57
F1.0
sg19
F1.0
sg59
F1.0
sg8
F0.8333333333333334
sg12
F1.0
sg37
F0.75
sg21
F1.0
sg36
F0.75
sg60
F0.75
sg39
F0.75
sg23
F0.8125
sg9
F0.75
sg75
F1.0
sg43
F0.7777777777777777
sg34
F0.9
sg56
F1.0
ssS'55jl7IFg3z'
p135
(dp136
sg36
(dp137
g8
F1.0
sg25
F1.0
sg27
F1.0
sg28
F1.0
sg29
F1.0
sg13
F1.0
sg9
F1.0
sg31
F1.0
sg32
F1.0
sg53
F0.75
sg11
F1.0
sg22
F1.0
sg21
F1.0
sg33
F1.0
sg72
F0.6666666666666666
sg16
F1.0
sg12
F0.75
sg34
F1.0
sg14
F1.0
sg10
F1.0
sg37
F1.0
sg20
F1.0
sg15
F1.0
sg23
F1.0
ssg48
(dp138
g7
F1.0
sg9
F1.0
sg34
F1.0
sg11
F1.0
sg46
F1.0
sg29
F1.0
sg13
F1.0
sg33
F0.75
ssg39
(dp139
g5
F1.0
sg7
F1.0
sg8
F1.0
sg25
F1.0
sg27
F1.0
sg75
F1.0
sg19
F1.0
sg12
F1.0
sg20
F1.0
sg21
F1.0
sg13
F1.0
sg33
F1.0
sg10
F1.0
sg23
F1.0
sg9
F1.0
sg31
F1.0
sg29
F1.0
sg43
F1.0
sg16
F1.0
sg34
F1.0
ssg15
(dp140
g3
F0.75
sg11
F0.75
sg7
F0.75
sg36
F1.0
sg72
F0.6666666666666666
sg38
F1.0
ssS'pI9Tpj13ty'
p141
(dp142
sg23
(dp143
g7
F1.0
sg17
F1.0
sg9
F1.0
sg27
F1.0
sg28
F1.0
sg19
F1.0
sg29
F1.0
sg8
F1.0
sg31
F1.0
sg43
F1.0
sg56
F1.0
sg22
F1.0
sg21
F1.0
sg90
F1.0
sg33
F1.0
sg16
F1.0
sg5
F1.0
sg34
F1.0
sg59
F1.0
sg35
F1.0
sg36
F1.0
sg20
F1.0
sg39
F1.0
sg60
F1.0
ssS'F25axtfCKG'
p144
(dp145
sg75
(dp146
g8
F0.75
sg32
F0.75
sg39
F0.75
sg12
F0.75
sg20
F0.75
ssg34
(dp147
g7
F0.65
sg8
F0.6888888888888889
sg25
F0.7777777777777778
sg27
F0.75
sg46
F0.75
sg28
F0.75
sg19
F1.0
sg29
F0.8400000000000001
sg13
F0.7777777777777777
sg9
F0.8214285714285714
sg31
F0.75
sg32
F1.0
sg43
F0.7777777777777777
sg11
F0.7777777777777777
sg57
F1.0
sg22
F0.75
sg21
F1.0
sg33
F0.7777777777777777
sg16
F1.0
sg58
F0.6666666666666666
sg12
F1.0
sg67
F0.75
sg36
F0.7777777777777777
sg14
F1.0
sg10
F0.8333333333333333
sg37
F0.7777777777777778
sg45
F1.0
sg20
F0.8400000000000001
sg48
F0.75
sg23
F0.6666666666666666
sg39
F0.75
sg60
F0.75
ssg60
(dp148
g7
F1.0
sg8
F1.0
sg34
F1.0
sg20
F1.0
sg23
F1.0
sg56
F1.0
ss.