(dp0
S'Ugr5eIIEf0'
p1
(dp2
S'8rsfNQdio8'
p3
F1.0
sS'QER9PsCgBT'
p4
F1.0
sS'5ey2xUDZTA'
p5
F1.0
sS'6Ax4SKe470'
p6
F1.0
sS'879eYkR2Wu'
p7
F1.0
ssS'b2W4ZO3uLV'
p8
(dp9
g4
F1.0
sS'dvG32rxRzQ'
p10
F1.0
sS'XL0eQIoG72'
p11
F1.0
sS'tyU2s0MBzm'
p12
F0.7777777777777777
sS'C18qWKq212'
p13
F0.75
sS'i8f2gg51r5'
p14
F0.7777777777777777
sS'IQ98biy227'
p15
F1.0
sg6
F1.0
sS'l5eh0S53tB'
p16
F0.7222222222222223
ssg12
(dp17
g4
F1.0
sg10
F1.0
sg8
F1.0
sg16
F1.0
sg13
F1.0
sg5
F1.0
sg7
F1.0
sg3
F1.0
sg11
F1.0
sg15
F1.0
ssS'Qwq8d0du28'
p18
(dp19
sS'iyLqACAFyl'
p20
(dp21
g5
F1.0
ssS'pg8uPBYamG'
p22
(dp23
g10
F1.0
sg11
F1.0
sg13
F1.0
sg14
F1.0
sS'90o991hXMa'
p24
F1.0
sg15
F1.0
sg6
F1.0
ssg24
(dp25
g10
F1.0
sg11
F0.75
sg16
F1.0
sg5
F0.75
sg22
F1.0
sg14
F1.0
sg15
F0.8125
sg6
F1.0
ssS'5ddRYL0LBA'
p26
(dp27
sg15
(dp28
g10
F0.8
sg8
F1.0
sg12
F1.0
sg13
F0.7777777777777778
sg5
F0.75
sg22
F0.75
sg14
F0.7777777777777778
sg24
F0.8125
sg11
F0.7916666666666667
sg6
F1.0
sg16
F1.0
sS'XNEgfvXx50'
p29
F0.75
ssg6
(dp30
g1
F1.0
sg8
F1.0
sg16
F1.0
sS'8r7mHkuKX9'
p31
F0.75
sg13
F0.75
sg5
F0.7777777777777777
sg7
F1.0
sg10
F0.8
sg22
F0.75
sg14
F0.75
sg24
F0.75
sg3
F1.0
sg11
F0.7333333333333334
sg15
F1.0
sg29
F0.75
ssg29
(dp32
g11
F0.7777777777777778
sg5
F1.0
sg7
F1.0
sg3
F0.7777777777777778
sg15
F1.0
sg6
F1.0
ssS'A89Fye6g1o'
p33
(dp34
sg11
(dp35
g4
F1.0
sg10
F0.8333333333333333
sg8
F1.0
sg12
F1.0
sg31
F1.0
sS'f1924U65I1'
p36
F0.75
sg13
F0.8125
sg5
F1.0
sg7
F1.0
sg22
F1.0
sg14
F1.0
sg3
F1.0
sg24
F1.0
sg15
F1.0
sg6
F1.0
sg16
F0.7222222222222222
sg29
F0.7777777777777778
ssg36
(dp37
g11
F1.0
sg16
F1.0
ssg13
(dp38
g10
F1.0
sg8
F1.0
sg16
F1.0
sg31
F1.0
sg22
F1.0
sg14
F1.0
sg11
F1.0
sg15
F1.0
sg6
F1.0
sg12
F1.0
ssS'SOs6B7rb1m'
p39
(dp40
sS'5S2tY93Oo1'
p41
(dp42
sg31
(dp43
g13
F1.0
sg11
F1.0
sg6
F1.0
sg14
F1.0
ssg4
(dp44
g1
F1.0
sg8
F1.0
sg12
F1.0
sg5
F1.0
sg7
F1.0
sg10
F1.0
sg3
F1.0
sg11
F1.0
ssg10
(dp45
g4
F0.8333333333333334
sg8
F1.0
sg12
F0.7777777777777777
sg13
F0.8125
sg5
F0.8
sg7
F1.0
sg22
F1.0
sg14
F1.0
sg24
F1.0
sg11
F0.8285714285714285
sg15
F0.8125
sg6
F1.0
sg16
F1.0
ssg16
(dp46
g10
F1.0
sg8
F1.0
sg12
F1.0
sg36
F1.0
sg13
F1.0
sg5
F0.6666666666666666
sg7
F0.8400000000000001
sg14
F1.0
sg24
F1.0
sg3
F0.75
sg11
F1.0
sg15
F1.0
sg6
F1.0
sS'D431zXkvuC'
p47
F1.0
ssS'29U6L12O3k'
p48
(dp49
sg5
(dp50
g4
F1.0
sg20
F1.0
sg11
F1.0
sg12
F1.0
sg10
F1.0
sg1
F0.75
sg14
F1.0
sg3
F1.0
sg24
F1.0
sg15
F1.0
sg6
F0.7777777777777777
sg16
F1.0
sg29
F1.0
ssg14
(dp51
g10
F1.0
sg8
F1.0
sg16
F1.0
sg13
F1.0
sg5
F1.0
sg22
F1.0
sg31
F1.0
sg24
F1.0
sg11
F1.0
sg15
F1.0
sg6
F1.0
ssS'5gtqSDwEt1'
p52
(dp53
sS'ub1y4M34bR'
p54
(dp55
sS'PpTLi2Qz8E'
p56
(dp57
sg7
(dp58
g4
F0.8333333333333333
sg1
F1.0
sg11
F0.6666666666666666
sg12
F0.75
sg10
F1.0
sg3
F1.0
sg6
F1.0
sg16
F0.9333333333333332
sg29
F1.0
ssS'QjpdTxl6ce'
p59
(dp60
sS'XrH5AAPdtj'
p61
(dp62
sg3
(dp63
g4
F1.0
sg1
F1.0
sg11
F1.0
sg12
F1.0
sg5
F1.0
sg7
F1.0
sg6
F1.0
sg16
F1.0
sg29
F1.0
ssg47
(dp64
g16
F1.0
ss.