(dp0
S'Gwk4z777oU'
p1
(dp2
S'Ugr5eIIEf0'
p3
F1.0
sS'b2W4ZO3uLV'
p4
F1.0
sS'bt0ZuHaCGY'
p5
F1.0
sS'Qwq8d0du28'
p6
F1.0
sS'02i5jCrfQK'
p7
F1.0
sS'c1zVCHxCEz'
p8
F1.0
sS'3hSu07XfGd'
p9
F1.0
sS'h0UbH181l8'
p10
F1.0
sS'XL0eQIoG72'
p11
F1.0
sS'IQ98biy227'
p12
F1.0
sS'6Ax4SKe470'
p13
F1.0
sS'tyU2s0MBzm'
p14
F1.0
sS'1kKxS8urAH'
p15
F1.0
sS'C18qWKq212'
p16
F1.0
sS'5a5qA8VLfI'
p17
F1.0
sS'PE6x6PxZ42'
p18
F1.0
sS'dvG32rxRzQ'
p19
F1.0
sS'l5eh0S53tB'
p20
F1.0
sS'i8f2gg51r5'
p21
F1.0
sS'0U9x5pNv8t'
p22
F1.0
sS'6jCygPdswz'
p23
F1.0
sS'879eYkR2Wu'
p24
F1.0
sS'XNEgfvXx50'
p25
F1.0
sS'8rsfNQdio8'
p26
F1.0
sS'0u17bw7v7w'
p27
F1.0
ssg3
(dp28
S'QER9PsCgBT'
p29
F1.0
sS'7cEjwssz1R'
p30
F0.75
sS'X5eS5kvC8h'
p31
F1.0
sg19
F1.0
sg4
F1.0
sg14
F1.0
sg6
F1.0
sg7
F1.0
sg1
F1.0
sg24
F1.0
sg17
F1.0
sg26
F1.0
sg11
F1.0
sS'6A16l70g5Q'
p32
F1.0
sg23
F1.0
sg20
F1.0
ssg4
(dp33
g1
F1.0
sg3
F1.0
sg11
F1.0
sg14
F1.0
sg7
F1.0
sg8
F1.0
sg9
F1.0
sg10
F1.0
sg12
F1.0
sg13
F1.0
sg5
F1.0
sS'y5009rpZ12'
p34
F1.0
sg16
F1.0
sg17
F1.0
sg18
F1.0
sS'1bJbgQ32E3'
p35
F1.0
sg29
F1.0
sg19
F1.0
sg20
F1.0
sg21
F1.0
sg22
F1.0
sg23
F1.0
sg26
F1.0
ssg14
(dp36
g29
F1.0
sS'g209g5Vve6'
p37
F1.0
sg1
F1.0
sg3
F1.0
sg4
F1.0
sg5
F1.0
sg34
F1.0
sg7
F1.0
sS'9493h91NUB'
p38
F1.0
sS'z9svx3mA4s'
p39
F1.0
sS'2oNLCndtam'
p40
F1.0
sg9
F1.0
sg17
F1.0
sg19
F1.0
sg8
F1.0
sg26
F1.0
sg12
F1.0
sg23
F1.0
sg35
F1.0
sg18
F1.0
ssg6
(dp41
g29
F0.75
sg3
F0.75
sg1
F0.75
sg19
F1.0
sg11
F1.0
sg20
F1.0
sg7
F0.7777777777777778
sS'iyLqACAFyl'
p42
F1.0
sg21
F1.0
sg26
F1.0
sg18
F0.7777777777777778
ssg7
(dp43
g31
F1.0
sg3
F1.0
sg4
F1.0
sg14
F1.0
sg6
F1.0
sg16
F1.0
sg1
F1.0
sg19
F1.0
sg11
F1.0
sg23
F1.0
sg35
F1.0
sg13
F1.0
sg20
F1.0
sg25
F0.75
ssg38
(dp44
g5
F0.6666666666666666
sS'PpTLi2Qz8E'
p45
F1.0
sg11
F0.8333333333333333
sg14
F0.75
sS'5ey2xUDZTA'
p46
F1.0
sg9
F0.75
sg25
F1.0
sg18
F1.0
sg20
F0.8
ssg8
(dp47
g29
F1.0
sg1
F1.0
sg19
F1.0
sg4
F1.0
sg14
F1.0
sg34
F1.0
sg5
F1.0
sg22
F1.0
sg9
F1.0
sg12
F1.0
sg23
F1.0
sg21
F1.0
sg17
F1.0
sg11
F1.0
sg24
F1.0
sg35
F1.0
sg13
F1.0
sg20
F1.0
ssg40
(dp48
g16
F1.0
sg19
F0.75
sg39
F1.0
sg14
F1.0
sg35
F0.75
ssg9
(dp49
g5
F1.0
sS'MrZ99Q697y'
p50
F1.0
sg1
F1.0
sg19
F1.0
sg4
F1.0
sg14
F1.0
sg34
F1.0
sg38
F1.0
sg16
F1.0
sg46
F1.0
sg12
F1.0
sg8
F1.0
sg17
F1.0
sg11
F1.0
sg23
F1.0
sg35
F1.0
sg13
F1.0
sg20
F1.0
ssS'80nlN05JQ6'
p51
(dp52
g29
F1.0
sg16
F1.0
ssg10
(dp53
g1
F0.75
sg19
F0.6666666666666666
sg4
F0.75
sg20
F0.8333333333333333
sg21
F0.75
sg17
F0.7777777777777778
sg11
F0.8333333333333333
sg22
F0.75
ssg11
(dp54
g1
F1.0
sg3
F1.0
sg4
F1.0
sg5
F1.0
sg6
F0.75
sg7
F0.6666666666666666
sg38
F0.75
sg8
F1.0
sg9
F1.0
sg10
F1.0
sg12
F1.0
sg13
F1.0
sg15
F1.0
sg16
F0.75
sg17
F1.0
sg35
F0.6666666666666666
sg30
F0.75
sg19
F0.7916666666666667
sg20
F0.7857142857142857
sg21
F1.0
sg22
F1.0
sS'0jSb6S70X1'
p55
F1.0
sg26
F1.0
ssg12
(dp56
g1
F1.0
sg19
F1.0
sg4
F1.0
sg14
F1.0
sg34
F1.0
sg8
F1.0
sg22
F1.0
sg9
F1.0
sg18
F1.0
sg23
F1.0
sg21
F1.0
sg17
F1.0
sg11
F1.0
sg24
F1.0
sg13
F1.0
sg20
F1.0
ssg13
(dp57
g1
F1.0
sg42
F1.0
sg4
F1.0
sg20
F1.0
sg7
F1.0
sg8
F1.0
sg9
F1.0
sg17
F1.0
sg19
F1.0
sg26
F1.0
sg11
F1.0
sg18
F1.0
sg12
F1.0
sg5
F1.0
ssg25
(dp58
g38
F0.75
sg31
F1.0
sg27
F1.0
sg1
F0.75
sg7
F0.75
ssg5
(dp59
g37
F1.0
sg1
F1.0
sg19
F1.0
sg4
F1.0
sg14
F1.0
sg34
F1.0
sg38
F1.0
sg8
F1.0
sg9
F1.0
sg15
F1.0
sg26
F1.0
sg11
F1.0
sg13
F1.0
sg20
F1.0
ssg50
(dp60
g31
F1.0
sg9
F0.75
ssg34
(dp61
g5
F1.0
sg19
F1.0
sg4
F1.0
sg14
F1.0
sg12
F1.0
sg8
F1.0
sg9
F1.0
sg21
F1.0
sg23
F1.0
sg35
F1.0
sg20
F1.0
ssg15
(dp62
g5
F1.0
sg37
F1.0
sg1
F1.0
sg19
F1.0
sg11
F1.0
sg20
F1.0
sg17
F0.75
sg26
F1.0
sg22
F0.75
ssg16
(dp63
g1
F0.75
sg19
F1.0
sg4
F0.8333333333333334
sg7
F0.6666666666666666
sg40
F0.75
sg9
F1.0
sg51
F0.75
sg17
F1.0
sg11
F1.0
sg23
F0.7777777777777777
sg35
F0.6666666666666666
sg18
F0.75
ssg17
(dp64
g1
F1.0
sg3
F1.0
sg4
F1.0
sg14
F1.0
sS'AQfVkV1aEx'
p65
F1.0
sg15
F1.0
sg16
F1.0
sg19
F1.0
sg24
F1.0
sg22
F1.0
sg10
F1.0
sg23
F1.0
sg21
F1.0
sg8
F1.0
sg26
F1.0
sg11
F1.0
sg9
F1.0
sg12
F1.0
sg13
F1.0
sg20
F1.0
ssS'8ZPoEJbXB7'
p66
(dp67
g26
F0.75
sg31
F0.75
ssg32
(dp68
g29
F1.0
sg3
F1.0
sg19
F1.0
ssg23
(dp69
g29
F1.0
sg1
F1.0
sg3
F1.0
sg4
F1.0
sg14
F1.0
sg34
F1.0
sg7
F1.0
sg16
F1.0
sg39
F1.0
sg9
F1.0
sg19
F1.0
sg8
F1.0
sg17
F1.0
sg12
F1.0
sg18
F1.0
sg35
F1.0
ssg35
(dp70
g31
F1.0
sg19
F1.0
sg4
F1.0
sg14
F1.0
sg34
F1.0
sg7
F1.0
sg39
F1.0
sg46
F1.0
sg40
F1.0
sg9
F1.0
sg23
F1.0
sg16
F1.0
sg11
F1.0
sg22
F1.0
sg8
F1.0
sg20
F1.0
ssS'0KS4yy9G96'
p71
(dp72
g26
F1.0
ssg29
(dp73
g3
F1.0
sg4
F1.0
sg14
F1.0
sg6
F1.0
sg8
F1.0
sg39
F1.0
sg19
F1.0
sg51
F1.0
sg42
F1.0
sg26
F1.0
sg32
F1.0
sg23
F1.0
sg18
F1.0
ssg30
(dp74
g31
F1.0
sg3
F1.0
sg11
F1.0
ssg31
(dp75
g50
F1.0
sg3
F0.75
sg20
F1.0
sg7
F0.6666666666666666
sg39
F0.75
sg30
F1.0
sg45
F0.8333333333333333
sg26
F1.0
sg66
F1.0
sg22
F1.0
sg35
F0.6666666666666666
sg25
F1.0
ssg42
(dp76
g29
F1.0
sg19
F0.8333333333333333
sg6
F0.7777777777777778
sg46
F1.0
sg26
F0.75
sg13
F1.0
ssg20
(dp77
g1
F0.8
sg3
F1.0
sg4
F1.0
sg5
F1.0
sg6
F1.0
sg7
F1.0
sg38
F0.75
sg8
F1.0
sg9
F1.0
sg10
F1.0
sg11
F1.0
sg12
F1.0
sg13
F1.0
sg34
F1.0
sg15
F1.0
sg17
F1.0
sg35
F0.6666666666666666
sg31
F0.6666666666666666
sg19
F1.0
sg46
F0.75
sg21
F1.0
sg22
F0.7777777777777777
sg37
F1.0
sg24
F0.8400000000000001
sg55
F1.0
sg26
F0.7777777777777777
sg27
F0.75
ssg65
(dp78
g17
F1.0
ssg46
(dp79
g42
F1.0
sg20
F1.0
sg38
F0.75
sg9
F1.0
sg19
F1.0
sg24
F1.0
sg35
F1.0
ssg39
(dp80
g29
F1.0
sg31
F1.0
sg19
F0.75
sg14
F1.0
sg40
F1.0
sg23
F1.0
sg35
F0.75
ssg19
(dp81
g1
F1.0
sg3
F1.0
sg4
F1.0
sg14
F1.0
sg6
F1.0
sg7
F1.0
sg8
F1.0
sg40
F1.0
sg9
F1.0
sg10
F1.0
sg11
F1.0
sg12
F1.0
sg13
F1.0
sg5
F1.0
sg34
F1.0
sg15
F1.0
sg16
F1.0
sg17
F1.0
sg32
F1.0
sg23
F1.0
sg35
F1.0
sg29
F1.0
sg42
F1.0
sg20
F1.0
sg46
F1.0
sg39
F1.0
sg21
F1.0
sg22
F1.0
sg18
F1.0
sg24
F1.0
sg26
F1.0
ssg21
(dp82
g1
F1.0
sg19
F1.0
sg4
F1.0
sg20
F1.0
sg34
F1.0
sg8
F1.0
sg6
F1.0
sg10
F1.0
sg17
F1.0
sg11
F1.0
sg12
F1.0
sg22
F1.0
ssg22
(dp83
g31
F1.0
sg19
F1.0
sg4
F1.0
sg21
F1.0
sg12
F1.0
sg15
F1.0
sg8
F1.0
sg1
F1.0
sg10
F1.0
sg55
F1.0
sg17
F1.0
sg11
F1.0
sg35
F1.0
sg20
F1.0
ssg37
(dp84
g15
F1.0
sg5
F1.0
sg14
F1.0
sg20
F1.0
sg24
F1.0
ssg45
(dp85
g38
F1.0
sg31
F1.0
ssg24
(dp86
g37
F1.0
sg1
F1.0
sg19
F1.0
sg20
F0.9333333333333332
sg8
F1.0
sg46
F0.75
sg17
F1.0
sg3
F1.0
sg26
F1.0
sg18
F1.0
sg12
F1.0
ssg55
(dp87
g11
F1.0
sg20
F1.0
sg22
F0.8888888888888888
ssg26
(dp88
g29
F1.0
sg27
F1.0
sg31
F1.0
sg3
F1.0
sg4
F1.0
sg14
F1.0
sg11
F1.0
sg15
F1.0
sg5
F1.0
sg6
F1.0
sg1
F1.0
sg19
F1.0
sg24
F1.0
sg42
F1.0
sg18
F1.0
sg17
F1.0
sg66
F1.0
sg71
F1.0
sg13
F1.0
sg20
F1.0
ssS'F25axtfCKG'
p89
(dp90
sg18
(dp91
g29
F1.0
sg1
F0.8333333333333333
sg19
F0.75
sg4
F0.6666666666666666
sg14
F0.75
sg6
F1.0
sg38
F1.0
sg16
F1.0
sg24
F0.75
sg26
F0.7777777777777778
sg23
F1.0
sg12
F0.75
sg13
F0.75
ssg27
(dp92
g26
F1.0
sg1
F1.0
sg20
F1.0
sg25
F1.0
ss.