(dp0
S'46vx97eEK0'
p1
(dp2
sS'XJyS25Yg27'
p3
(dp4
S'QER9PsCgBT'
p5
F1.0
sS'X5eS5kvC8h'
p6
F1.0
sS'Ugr5eIIEf0'
p7
F1.0
sS'XL0eQIoG72'
p8
F1.0
sS'i8f2gg51r5'
p9
F1.0
sS'y5009rpZ12'
p10
F1.0
sS'Hd9GW3f95j'
p11
F1.0
sS'1kKxS8urAH'
p12
F1.0
sS'0YvZonpLW8'
p13
F1.0
sS's19Mo891H5'
p14
F1.0
sS'8gH5u019ZH'
p15
F1.0
sS'k3jBd30ocz'
p16
F1.0
sS'ajPRq0Q08b'
p17
F1.0
sS'dvG32rxRzQ'
p18
F1.0
sS'saNy7ix5ZY'
p19
F1.0
sS'h0UbH181l8'
p20
F1.0
sS'EfN583275t'
p21
F1.0
sS'Gwk4z777oU'
p22
F1.0
sS'34f4oB5Cod'
p23
F1.0
sS'78t79xOebG'
p24
F1.0
ssS'M7hLaVJGvX'
p25
(dp26
g5
F1.0
sS'MPqJdqnPtc'
p27
F1.0
sg15
F1.0
ssS'QQTAp3k3UP'
p28
(dp29
g12
F1.0
sS'yf2V5ll9mN'
p30
F1.0
sS'Si4v9635O3'
p31
F1.0
sg16
F1.0
sS'HvghFVBS5v'
p32
F1.0
ssS'Fx8d98DRud'
p33
(dp34
g17
F1.0
sS'l5eh0S53tB'
p35
F1.0
sS'668lBbaKFE'
p36
F1.0
sg16
F1.0
sS'qL6HDg57R9'
p37
F1.0
sS'm64Rgy40OF'
p38
F1.0
sS'X4ZaxfDz3Q'
p39
F1.0
ssS'l8bH01vT7z'
p40
(dp41
sS'9eV0EGVC6j'
p42
(dp43
sS'6bJ4auIa8L'
p44
(dp45
g17
F1.0
sg8
F1.0
sg35
F1.0
sg10
F1.0
sg30
F1.0
sS'1bJbgQ32E3'
p46
F1.0
sS'5ey2xUDZTA'
p47
F1.0
sg16
F1.0
sS'8csPxY44OZ'
p48
F1.0
sg38
F1.0
sS'02ZjVTxC34'
p49
F1.0
sg19
F1.0
sg18
F1.0
sg9
F1.0
sS'5a5qA8VLfI'
p50
F1.0
sS'90o991hXMa'
p51
F1.0
sS'OS2vxzjz6W'
p52
F1.0
sg20
F1.0
sS'YNGlv7F45C'
p53
F1.0
sS'0U9x5pNv8t'
p54
F1.0
ssg48
(dp55
g17
F1.0
sg30
F1.0
sg47
F1.0
sg44
F1.0
ssS'0GlR30c2Mt'
p56
(dp57
S'bt0ZuHaCGY'
p58
F1.0
sg39
F0.75
sg17
F1.0
sS'tyU2s0MBzm'
p59
F0.75
sg10
F0.8333333333333334
sS'LnVZmUuwc8'
p60
F1.0
sS'81E41tTtV9'
p61
F0.75
sg36
F1.0
sS'SoEcLAeJi1'
p62
F1.0
sg47
F0.6666666666666666
sS'Wi92e1D7bp'
p63
F1.0
sg37
F1.0
sg54
F0.6666666666666666
sS'hwF4tyWU50'
p64
F1.0
sg35
F0.7333333333333334
ssg17
(dp65
g3
F0.6666666666666666
sg33
F0.75
sg44
F0.6875
sg48
F0.75
sg56
F1.0
sS'77y7iIIXuv'
p66
F0.75
sg8
F0.75
sS'88Uhb8760x'
p67
F1.0
sS'2IaH8665Ha'
p68
F1.0
sg38
F0.75
sS'2J2SH6Fk63'
p69
F0.75
sg46
F0.8333333333333334
sg35
F0.8074074074074074
sg47
F0.6507936507936508
sS'11fnXrq9Jf'
p70
F0.8333333333333333
sg49
F1.0
sg19
F0.8333333333333333
sS'242fhbKRf9'
p71
F1.0
sg32
F1.0
sg36
F1.0
sg24
F0.6666666666666666
sg22
F0.65
sS'yuB6nxh3FX'
p72
F0.7777777777777777
sg58
F1.0
sS'Qwq8d0du28'
p73
F0.7916666666666666
sS'QS4cvQ8w0o'
p74
F1.0
sg18
F0.8
sg51
F0.75
sg10
F0.6666666666666667
sg30
F0.8125
sS'6O31vedZbI'
p75
F0.75
sS'45TTYcotWk'
p76
F1.0
sS'6jCygPdswz'
p77
F0.7333333333333334
sg6
F0.8333333333333334
sg39
F0.7777777777777777
sg60
F0.7777777777777777
sg21
F0.74
sg27
F0.75
sg64
F0.7777777777777778
sS'9EAa0nJjb1'
p78
F0.75
sg23
F0.75
sS'USdRVl9AOe'
p79
F0.8125
sS'4pzSijxuK6'
p80
F0.75
sS'5yasLi1Avt'
p81
F1.0
sS'apCLF0uF21'
p82
F1.0
sg7
F1.0
sS'b2W4ZO3uLV'
p83
F0.8888888888888888
sg59
F0.7
sg61
F0.7777777777777777
sS'c1zVCHxCEz'
p84
F0.8333333333333334
sg62
F0.8125
sS'3hSu07XfGd'
p85
F0.7777777777777778
sS'stK4H8Vit6'
p86
F1.0
sS'ey9rvMnU57'
p87
F0.75
sS'IQ98biy227'
p88
F0.72
sg53
F1.0
sg31
F0.8125
sg54
F0.65
sS'ZP886G3Z76'
p89
F0.7777777777777777
sg5
F0.6666666666666666
sg9
F0.7000000000000001
sS'mNzo8mGzu9'
p90
F1.0
sS'RajLsf9Q1z'
p91
F0.75
sS'CZDz8OSRfI'
p92
F0.75
sg16
F0.7619047619047619
sS'Ru21xRreim'
p93
F1.0
sS'tlJn3I40bf'
p94
F0.8
sS'bcoY3s64sj'
p95
F0.75
sg20
F0.875
sS'gPaagaJ8aq'
p96
F1.0
sS'LM96hW22T2'
p97
F1.0
sS'39Uc7ru04l'
p98
F1.0
sg12
F1.0
sS'C18qWKq212'
p99
F0.625
sS'EV28POlwE4'
p100
F1.0
sg52
F0.8125
sg50
F0.8
sS'PE6x6PxZ42'
p101
F0.6666666666666666
sS'9QD9297moO'
p102
F1.0
sg11
F0.7666666666666666
sS'f45jOmRd4S'
p103
F1.0
sS'wY56ZI2gyL'
p104
F1.0
sS'iyLqACAFyl'
p105
F0.6875
sS'56dTCKdr74'
p106
F0.75
sS'm58s5oOZCm'
p107
F0.8888888888888888
sS'yB480DNZ70'
p108
F0.8333333333333334
sg37
F0.8611111111111112
sS'EWHJMBPf94'
p109
F1.0
sS'4X3016rdOZ'
p110
F1.0
sg63
F1.0
sS'LP15lX652E'
p111
F1.0
sS'8rsfNQdio8'
p112
F0.8125
ssg66
(dp113
g82
F1.0
sg22
F1.0
sg7
F1.0
sg83
F1.0
sS'02i5jCrfQK'
p114
F1.0
sg84
F1.0
sg14
F1.0
sg16
F1.0
sg8
F1.0
sg10
F1.0
sg99
F1.0
sg50
F1.0
sg77
F1.0
sg62
F1.0
sg35
F1.0
sg70
F1.0
sg9
F1.0
sg109
F1.0
sg71
F1.0
sg110
F1.0
sg17
F1.0
sg54
F1.0
ssS'R398qG76GC'
p115
(dp116
sg8
(dp117
g82
F0.7777777777777777
sg3
F0.6666666666666666
sg17
F0.8333333333333334
sg83
F1.0
sg59
F1.0
sg73
F0.75
sg114
F0.6666666666666666
sg61
F0.75
sg84
F1.0
sg14
F0.75
sg44
F1.0
sg22
F0.75
sg85
F0.85
sg95
F1.0
sg20
F0.8333333333333334
sg66
F0.75
sg51
F1.0
sS'5LMy832c47'
p118
F0.75
sg88
F1.0
sg67
F0.75
sg10
F0.7777777777777777
sg12
F0.75
sg99
F0.7777777777777778
sS'S7E3jvZbGG'
p119
F0.75
sg50
F1.0
sg101
F1.0
sg46
F0.6666666666666666
sg62
F1.0
sg11
F0.75
sg5
F1.0
sg18
F0.8
sg35
F0.7222222222222222
sg106
F0.75
sS'z9svx3mA4s'
p120
F1.0
sS'7y5NJZ7S6u'
p121
F0.75
sg37
F1.0
sg21
F0.6875
sg109
F0.75
sg110
F0.75
sg23
F0.75
sS'5x5fHvFFLv'
p122
F0.75
sg92
F1.0
sg63
F0.75
sg16
F0.7777777777777777
sg80
F0.75
sg72
F1.0
sg112
F1.0
sg78
F1.0
ssg67
(dp123
g7
F0.75
sg8
F0.8333333333333333
sg58
F0.8333333333333333
sg61
F0.75
sg84
F0.75
sg62
F0.75
sg16
F0.75
sg88
F0.75
sg59
F0.6666666666666666
sg10
F1.0
sg30
F0.75
sg68
F0.75
sg50
F0.8333333333333334
sg11
F0.75
sg103
F1.0
sg18
F0.8333333333333334
sg35
F0.8333333333333334
sg37
F0.8125
sg109
F0.75
sg71
F1.0
sg17
F0.7333333333333334
sg63
F0.75
sg80
F1.0
ssg114
(dp124
g7
F1.0
sg8
F1.0
sg35
F1.0
sg73
F1.0
sg14
F1.0
sg18
F1.0
sg66
F1.0
sg50
F1.0
sg110
F1.0
ssS'vpuUyzUJ0z'
p125
(dp126
g88
F1.0
sS'c3Ee3W8hyq'
p127
F1.0
sg52
F1.0
ssS'olyVui8lHe'
p128
(dp129
sg68
(dp130
g17
F1.0
sg83
F1.0
sg35
F1.0
sg84
F1.0
sg70
F1.0
sg16
F1.0
sg81
F1.0
sg86
F1.0
sg67
F1.0
sg46
F1.0
ssS'4k3099QrCN'
p131
(dp132
sS'XTXYl6nJ7J'
p133
(dp134
sS'OPv5PP9Bi4'
p135
(dp136
sg38
(dp137
g39
F0.75
sg17
F0.7142857142857143
sg10
F0.75
sg33
F0.8333333333333333
sg60
F0.75
sg36
F0.75
sg62
F0.75
sg44
F1.0
sg19
F1.0
sg16
F1.0
sg99
F0.75
sg54
F1.0
sg46
F1.0
sg89
F0.75
sg90
F0.75
sg35
F0.7777777777777778
ssg13
(dp138
g3
F0.75
sg16
F1.0
sg22
F0.75
sg10
F0.75
sg21
F1.0
ssS'Dp4If8jfOp'
p139
(dp140
sg46
(dp141
g17
F0.75
sg83
F0.75
sg35
F1.0
sg14
F1.0
sg44
F1.0
sg37
F1.0
sg19
F1.0
sg18
F1.0
sg68
F0.6666666666666666
sg38
F1.0
sg8
F1.0
sg16
F1.0
sg77
F0.7777777777777778
sg20
F0.75
sg89
F1.0
sg54
F1.0
ssS'E38It7fjg0'
p142
(dp143
g92
F1.0
sg6
F1.0
sg101
F0.75
sg59
F1.0
sg120
F0.75
sg22
F1.0
sg95
F1.0
sg112
F0.75
sg118
F0.7777777777777778
sg77
F0.75
sg88
F1.0
ssS'f9PBq9q8jq'
p144
(dp145
sS'VgP99sQ5jS'
p146
(dp147
sS'qN6WN7C097'
p148
(dp149
sS'46z59pQP58'
p150
(dp151
g73
F1.0
sg10
F1.0
sg12
F1.0
sg32
F1.0
sS'z1iLCTB32T'
p152
F0.75
sg30
F1.0
sg16
F1.0
sS'66Ak255E3j'
p153
F0.75
sg54
F0.75
ssg47
(dp154
g7
F0.75
sg59
F0.7777777777777777
sg93
F0.625
sg44
F1.0
sg48
F1.0
sg56
F0.75
sg17
F0.7916666666666666
sg88
F0.75
sg35
F0.8333333333333334
sg10
F0.75
sg30
F1.0
sg99
F1.0
sg31
F0.75
sg5
F0.6666666666666666
sg18
F1.0
sg39
F1.0
sg108
F0.6666666666666666
sg9
F1.0
sg54
F0.8333333333333334
sg91
F1.0
sg36
F0.75
sg16
F1.0
sg20
F0.75
ssg120
(dp155
g5
F1.0
sg97
F1.0
sg8
F1.0
sg59
F1.0
sg75
F0.75
sg92
F1.0
sg18
F0.7777777777777778
sg80
F1.0
sg77
F1.0
sg88
F1.0
sg142
F0.75
sg127
F1.0
ssS'8eqtD31y66'
p156
(dp157
sS'8d194g9ccT'
p158
(dp159
sS'eqyJr5jsoU'
p160
(dp161
sg49
(dp162
g17
F1.0
sg35
F1.0
sg30
F1.0
sg44
F1.0
sg37
F1.0
sg16
F1.0
ssg121
(dp163
g82
F1.0
sg22
F1.0
sg122
F1.0
sg8
F1.0
sg12
F1.0
sg88
F1.0
sg30
F1.0
sg85
F1.0
sg61
F1.0
sg16
F1.0
sg21
F1.0
sg83
F1.0
sg118
F1.0
sg63
F1.0
ssg19
(dp164
g3
F0.75
sg17
F0.875
sg83
F0.75
sg44
F0.75
sg22
F0.75
sg16
F1.0
sg39
F1.0
sg10
F0.6666666666666666
sg12
F1.0
sg99
F0.75
sg38
F0.75
sg46
F0.8333333333333333
sg89
F0.75
sg11
F1.0
sg18
F0.75
sg35
F0.7999999999999999
sg60
F1.0
sg70
F1.0
sg37
F0.75
sg9
F0.75
sg53
F1.0
sg54
F0.7777777777777778
ssS'IIP2AV0W1Y'
p165
(dp166
sS'rnOGP59582'
p167
(dp168
sS'uYf5028a75'
p169
(dp170
sS'075kbY53c1'
p171
(dp172
g12
F1.0
ssS'7RB2G4NbCn'
p173
(dp174
sS'276487SwvF'
p175
(dp176
sS'UmsZ3gHcg7'
p177
(dp178
S'5VZLSGPT10'
p179
F0.75
ssg36
(dp180
g17
F0.8615384615384615
sg58
F1.0
sg33
F0.6666666666666666
sg93
F1.0
sg62
F1.0
sg94
F0.8333333333333333
sg56
F1.0
sg20
F1.0
sg35
F0.9166666666666666
sg98
F0.75
sg12
F1.0
sg100
F1.0
sg38
F0.6666666666666666
sg77
F1.0
sg59
F1.0
sg39
F0.75
sg60
F1.0
sg47
F0.6666666666666666
sg71
F1.0
sg54
F0.6666666666666666
sg10
F1.0
sg32
F0.8333333333333333
sg63
F1.0
sg111
F1.0
ssg152
(dp181
g150
F1.0
sg12
F1.0
sg35
F1.0
sg90
F1.0
ssS'7YX78oEdjZ'
p182
(dp183
sS'z2zuhnARi6'
p184
(dp185
sS'938jD6Z338'
p186
(dp187
sg69
(dp188
g99
F1.0
sg17
F1.0
sg59
F1.0
sg90
F1.0
ssS'0KS4yy9G96'
p189
(dp190
sS'CsX7j87xZ7'
p191
(dp192
sg24
(dp193
g5
F1.0
sg3
F1.0
sg17
F1.0
sS'tB4vqSxzqo'
p194
F1.0
sg59
F1.0
sg61
F1.0
sg70
F1.0
sg16
F1.0
sg22
F1.0
sg79
F1.0
sg18
F1.0
sg21
F1.0
sg9
F1.0
sg112
F1.0
sg83
F1.0
sg54
F1.0
sg101
F1.0
sg11
F1.0
sg35
F1.0
ssS'45oTz6NVkr'
p195
(dp196
sg22
(dp197
g82
F1.0
sg3
F1.0
sg17
F1.0
sg83
F1.0
sg59
F1.0
sg19
F1.0
sg61
F1.0
sg84
F1.0
sg62
F1.0
sg85
F1.0
sg95
F0.75
sg20
F1.0
sg66
F1.0
sg8
F1.0
sg118
F0.7777777777777778
sg88
F1.0
sg10
F1.0
sg12
F1.0
sg99
F1.0
sg52
F1.0
sg13
F1.0
sg50
F1.0
sg77
F1.0
sg142
F0.75
sg11
F1.0
sg6
F1.0
sg18
F1.0
sg35
F1.0
sg60
F1.0
sg70
F1.0
sg121
F1.0
sg37
F1.0
sg21
F1.0
sg9
F1.0
sg54
F1.0
sg101
F1.0
sg122
F1.0
sg79
F1.0
sg63
F1.0
sg16
F1.0
sg72
F0.75
sg112
F1.0
sg24
F1.0
ssS'5cuKF3lL4D'
p198
(dp199
sg58
(dp200
g21
F1.0
sg17
F1.0
sg67
F1.0
sg59
F1.0
sg10
F1.0
sg60
F1.0
sg61
F1.0
sg36
F1.0
sg62
F1.0
sg70
F1.0
sg73
F1.0
sg76
F1.0
sg56
F1.0
sg37
F1.0
sg81
F1.0
sg112
F1.0
sg88
F1.0
sg109
F1.0
sg64
F1.0
sg35
F1.0
ssg73
(dp201
g17
F0.84375
sg8
F1.0
sg58
F0.75
sg114
F1.0
sg93
F0.75
sg18
F1.0
sg88
F0.75
sg10
F0.8
sg63
F0.75
sg15
F1.0
sg52
F0.7777777777777777
sg119
F1.0
sg101
F1.0
sg5
F0.75
sg105
F0.8125
sg35
F0.8333333333333334
sg106
F1.0
sg150
F1.0
sg108
F0.75
sg37
F0.75
sg21
F1.0
sg9
F1.0
sg27
F0.75
sg71
F0.8333333333333333
sg110
F1.0
sg16
F1.0
sg112
F1.0
sg20
F0.6666666666666666
ssg179
(dp202
g177
F0.75
ssS'dD5k5322J5'
p203
(dp204
sS'2AMmebFl86'
p205
(dp206
sS'FrPh305pw8'
p207
(dp208
sg74
(dp209
g50
F1.0
sg84
F1.0
sg17
F1.0
sg11
F1.0
ssg105
(dp210
g5
F1.0
sg17
F1.0
sg35
F1.0
sg10
F1.0
sg60
F1.0
sg73
F1.0
sg16
F1.0
sg18
F1.0
sg27
F1.0
sg20
F1.0
sg80
F1.0
sg21
F1.0
sg71
F1.0
sg112
F1.0
sg77
F1.0
sg88
F1.0
sg127
F1.0
ssS'Dmq6441349'
p211
(dp212
g77
F0.75
sg35
F0.6666666666666666
sg53
F0.75
ssg51
(dp213
g17
F0.6666666666666666
sg8
F0.6666666666666666
sg10
F0.75
sg99
F0.75
sg44
F0.75
sg18
F1.0
sg88
F0.75
sg20
F0.75
ssg119
(dp214
g7
F1.0
sg8
F1.0
sg35
F1.0
sg73
F1.0
sg62
F1.0
sg18
F1.0
ssS'EpDb06UO89'
p215
(dp216
sg92
(dp217
g17
F1.0
sg122
F1.0
sg59
F1.0
sg101
F1.0
sg30
F1.0
sg99
F1.0
sg62
F1.0
sg120
F0.75
sg95
F1.0
sg18
F1.0
sg80
F1.0
sg112
F1.0
sg8
F1.0
sg77
F0.75
sg88
F1.0
sg142
F1.0
ssg10
(dp218
g82
F1.0
sg103
F1.0
sg3
F1.0
sg17
F1.0
sg83
F1.0
sg59
F1.0
sg73
F1.0
sg19
F1.0
sg61
F1.0
sg13
F1.0
sg62
F1.0
sg44
F1.0
sg22
F1.0
sg85
F1.0
sg56
F1.0
sg20
F1.0
sg66
F1.0
sg51
F1.0
sg8
F1.0
sg88
F1.0
sg35
F1.0
sg58
F1.0
sg67
F1.0
sg63
F1.0
sg12
F1.0
sg99
F1.0
sg100
F1.0
sg52
F1.0
sg31
F1.0
sg38
F1.0
sg50
F1.0
sg77
F1.0
sg102
F1.0
sg89
F1.0
sg11
F1.0
sg5
F1.0
sg39
F1.0
sg105
F1.0
sS't4K5z0e2NZ'
p219
F1.0
sg60
F1.0
sg150
F1.0
sg47
F1.0
sg70
F1.0
sg18
F1.0
sg107
F1.0
sg108
F1.0
sg37
F1.0
sg21
F1.0
sg9
F1.0
sg53
F1.0
sg71
F1.0
sg54
F1.0
sg101
F1.0
sg72
F1.0
sg79
F1.0
sg36
F1.0
sg30
F1.0
sg16
F1.0
sg80
F1.0
sg110
F1.0
ssg30
(dp220
g17
F0.8611111111111112
sg59
F1.0
sg61
F1.0
sg44
F0.7777777777777777
sg48
F0.75
sg85
F1.0
sg95
F1.0
sg16
F0.85
sg118
F1.0
sg96
F0.75
sg67
F1.0
sg10
F1.0
sg63
F1.0
sg31
F0.75
sg50
F1.0
sg18
F1.0
sg35
F1.0
sg150
F0.75
sg47
F0.75
sg49
F0.75
sg121
F1.0
sg81
F0.75
sg28
F0.75
sg122
F1.0
sg32
F0.8333333333333333
sg92
F1.0
sg86
F0.75
sg80
F1.0
sg21
F1.0
ssS'50r4Tfl105'
p221
(dp222
sg75
(dp223
g76
F1.0
sg72
F1.0
sg59
F1.0
sg120
F1.0
sg95
F1.0
sg17
F1.0
sg101
F1.0
sg88
F1.0
ssg76
(dp224
g17
F1.0
sg58
F1.0
sg70
F1.0
sg75
F0.75
sg77
F1.0
sg88
F1.0
sg59
F1.0
ssS'8fyjxTqDpQ'
p225
(dp226
sg77
(dp227
g82
F1.0
sg22
F1.0
sg17
F1.0
sg83
F1.0
sg59
F1.0
sg14
F1.0
sg85
F1.0
sg18
F1.0
sg66
F1.0
sg211
F1.0
sg62
F1.0
sg88
F1.0
sg35
F1.0
sg10
F1.0
sg99
F1.0
sg52
F1.0
sg76
F1.0
sg50
F1.0
sg78
F1.0
sg46
F1.0
sg142
F0.75
sg6
F1.0
sg105
F1.0
sg219
F1.0
sg60
F1.0
sg70
F1.0
sg120
F1.0
sg107
F1.0
sg37
F1.0
sg21
F1.0
sg27
F1.0
sg53
F1.0
sg71
F1.0
sg54
F1.0
sg72
F0.7777777777777777
sg36
F1.0
sg92
F1.0
sg20
F1.0
sg80
F1.0
sg112
F1.0
ssS'dq0JPbG008'
p228
(dp229
sS'v52MhQAVT9'
p230
(dp231
sg6
(dp232
g3
F1.0
sg17
F1.0
sg35
F1.0
sg101
F1.0
sg60
F1.0
sg22
F1.0
sg52
F1.0
sg110
F1.0
sg112
F1.0
sg77
F1.0
sg142
F1.0
sg54
F1.0
ssg39
(dp233
g70
F1.0
sg17
F1.0
sg59
F1.0
sg33
F1.0
sg12
F1.0
sg36
F1.0
sg47
F1.0
sg16
F1.0
sg35
F1.0
sg19
F1.0
sg61
F1.0
sg56
F1.0
sg37
F1.0
sg38
F1.0
sg99
F1.0
sg54
F1.0
sg101
F0.75
sg90
F1.0
sg10
F1.0
ssS'X223hIsDU4'
p234
(dp235
sg60
(dp236
g22
F0.75
sg72
F1.0
sg59
F1.0
sg14
F0.75
sg56
F1.0
sg17
F1.0
sg88
F1.0
sg58
F1.0
sg10
F1.0
sg63
F1.0
sg99
F1.0
sg52
F0.7777777777777777
sg38
F1.0
sg77
F0.8666666666666667
sg62
F1.0
sg5
F0.75
sg6
F0.8333333333333333
sg105
F0.75
sg35
F1.0
sg18
F0.75
sg107
F1.0
sg19
F1.0
sg21
F1.0
sg27
F0.75
sg64
F1.0
sg71
F1.0
sg54
F1.0
sg36
F1.0
sg89
F1.0
sg37
F1.0
sg20
F1.0
ssS'4NQzySrw2C'
p237
(dp238
sS'63r5Aj4EeB'
p239
(dp240
sS'B7l5Zfxxu6'
p241
(dp242
sS'mI0bEZaepz'
p243
(dp244
sS'c8Gl35DPn4'
p245
(dp246
sg81
(dp247
g17
F1.0
sg35
F1.0
sg12
F1.0
sg70
F1.0
sg16
F1.0
sg37
F1.0
sg30
F1.0
sg86
F1.0
sg68
F1.0
sg58
F1.0
ssS'yG447121nm'
p248
(dp249
sg32
(dp250
g82
F1.0
sg17
F1.0
sg35
F1.0
sg50
F1.0
sg150
F1.0
sg36
F1.0
sg30
F1.0
sg16
F1.0
sg94
F1.0
sg85
F1.0
sg12
F1.0
sg20
F1.0
sg28
F1.0
sg86
F1.0
sg90
F1.0
ssS'ftgrG3jT2m'
p251
(dp252
sg53
(dp253
g82
F1.0
sg17
F1.0
sg83
F0.75
sg35
F0.8333333333333334
sg10
F0.6666666666666666
sg88
F0.6875
sg44
F0.75
sg37
F0.75
sg52
F0.75
sg19
F1.0
sg18
F0.75
sg21
F1.0
sg9
F0.6666666666666666
sg211
F0.75
sg50
F0.6666666666666666
sg16
F1.0
sg77
F0.75
sg110
F1.0
sg89
F0.75
sg11
F1.0
sg54
F0.75
ssS'3C1dH8H8v3'
p254
(dp255
sg54
(dp256
g82
F1.0
sg22
F1.0
sg17
F1.0
sg83
F1.0
sg59
F1.0
sg84
F1.0
sg62
F1.0
sg44
F1.0
sg56
F1.0
sg20
F1.0
sg66
F1.0
sg88
F1.0
sg39
F1.0
sg98
F1.0
sg12
F1.0
sg99
F1.0
sg52
F1.0
sg38
F1.0
sg93
F1.0
sg77
F1.0
sg46
F1.0
sg6
F1.0
sg35
F1.0
sg60
F1.0
sg150
F1.0
sg47
F1.0
sg70
F1.0
sg19
F1.0
sg37
F1.0
sg21
F1.0
sg9
F1.0
sg53
F1.0
sg71
F1.0
sg10
F1.0
sg36
F1.0
sg16
F1.0
sg24
F1.0
ssg23
(dp257
g3
F1.0
sg17
F1.0
sg8
F1.0
ssg122
(dp258
g82
F1.0
sg22
F1.0
sg8
F1.0
sg12
F1.0
sg30
F1.0
sg85
F1.0
sg92
F1.0
sg61
F1.0
sg121
F1.0
sg16
F1.0
sg21
F1.0
sS'oEt3YTvS4G'
p259
F1.0
sg118
F1.0
ssg79
(dp260
g22
F1.0
sg17
F1.0
sg83
F1.0
sg59
F1.0
sg10
F1.0
sg50
F1.0
sg12
F1.0
sg70
F1.0
sg16
F1.0
sg18
F1.0
sg61
F1.0
sg37
F1.0
sg11
F1.0
sg9
F1.0
sg112
F1.0
sg88
F1.0
sg101
F1.0
sg110
F1.0
sg24
F1.0
sg35
F1.0
ssS's9O034dIc4'
p261
(dp262
sS'D1VwdFc01t'
p263
(dp264
sS'SKThcG9N8q'
p265
(dp266
sg80
(dp267
g105
F0.75
sg67
F1.0
sg219
F0.75
sg10
F1.0
sg106
F1.0
sg99
F1.0
sg30
F1.0
sg120
F0.75
sg17
F1.0
sg100
F1.0
sg92
F1.0
sg61
F1.0
sg20
F1.0
sg63
F1.0
sg8
F1.0
sg77
F0.75
sg102
F1.0
sg35
F1.0
sg59
F1.0
ssS'y4Vg256UzB'
p268
(dp269
sS'P5w9xdB3VM'
p270
(dp271
sS'Rz2qkM4015'
p272
(dp273
sg21
(dp274
g3
F0.7777777777777777
sg17
F0.925
sg83
F0.7777777777777777
sg59
F0.75
sg73
F1.0
sg15
F1.0
sg61
F1.0
sg84
F0.8333333333333333
sg62
F0.7777777777777777
sg22
F0.75
sg85
F0.75
sg16
F1.0
sg8
F0.8333333333333334
sg118
F1.0
sg58
F0.6666666666666666
sg10
F0.7777777777777777
sg12
F1.0
sg64
F0.75
sg31
F0.7777777777777777
sg93
F0.75
sg50
F0.6666666666666666
sg77
F1.0
sg63
F0.7777777777777777
sg11
F1.0
sg5
F0.75
sg105
F0.75
sg35
F0.7142857142857143
sg60
F1.0
sg70
F0.75
sg18
F0.75
sg107
F1.0
sg108
F0.75
sg37
F0.7777777777777777
sg27
F0.75
sg53
F1.0
sg71
F1.0
sg54
F0.8333333333333334
sg101
F1.0
sg122
F1.0
sg121
F1.0
sg30
F1.0
sg20
F0.8333333333333334
sg112
F1.0
sg13
F1.0
sg24
F1.0
ssg82
(dp275
g22
F0.75
sg17
F1.0
sg83
F0.7777777777777777
sg61
F1.0
sg84
F0.8333333333333333
sg62
F0.75
sg85
F0.8
sg16
F1.0
sg66
F0.75
sg8
F0.7999999999999999
sg118
F1.0
sg88
F0.7777777777777777
sg10
F0.75
sg12
F1.0
sg50
F0.75
sg77
F0.75
sg18
F0.6666666666666666
sg35
F0.7777777777777777
sg86
F1.0
sg121
F1.0
sg37
F0.75
sg53
F1.0
sg71
F1.0
sg54
F0.75
sg122
F1.0
sg32
F1.0
sg20
F1.0
sg78
F0.75
ssg7
(dp276
g5
F1.0
sg3
F0.75
sg17
F1.0
sg67
F1.0
sg114
F1.0
sg84
F1.0
sg47
F1.0
sg70
F1.0
sg50
F1.0
sg93
F1.0
sg66
F1.0
sg119
F1.0
sg99
F1.0
sg112
F1.0
sg101
F1.0
ssg83
(dp277
g82
F1.0
sg22
F0.75
sg17
F1.0
sg8
F1.0
sg59
F0.75
sg19
F0.8333333333333333
sg61
F0.75
sg84
F1.0
sg14
F1.0
sg85
F1.0
sS'80nlN05JQ6'
p278
F1.0
sg16
F0.7777777777777777
sg66
F0.7777777777777778
sg88
F1.0
sg10
F0.8333333333333333
sg99
F0.7777777777777777
sg68
F1.0
sg50
F1.0
sg77
F1.0
sg46
F1.0
sg62
F1.0
sg11
F0.8333333333333334
sg18
F1.0
sg35
F0.7222222222222223
sg70
F0.7777777777777778
sg107
F1.0
sg121
F1.0
sg37
F1.0
sg21
F1.0
sg9
F0.7777777777777777
sg53
F1.0
sg54
F0.7777777777777777
sg101
F0.75
sg79
F0.75
sg20
F1.0
sg112
F1.0
sg24
F0.7777777777777777
ssg59
(dp279
g22
F1.0
sg17
F1.0
sg83
F1.0
sg58
F1.0
sg61
F1.0
sg84
F1.0
sg62
F1.0
sg95
F0.7777777777777778
sg56
F1.0
sg20
F1.0
sg8
F1.0
sg118
F0.75
sg88
F1.0
sg39
F1.0
sg67
F1.0
sg63
F1.0
sg10
F1.0
sg12
F1.0
sg99
F1.0
sg75
F0.75
sg52
F1.0
sg76
F1.0
sg50
F1.0
sg77
F1.0
sg102
F1.0
sg142
F0.75
sg11
F1.0
sg5
F1.0
sg91
F1.0
sg18
F1.0
sg35
F1.0
sg60
F1.0
sg70
F1.0
sg47
F1.0
sg120
F1.0
sg108
F1.0
sg37
F1.0
sg21
F1.0
sg109
F1.0
sg64
F1.0
sg54
F1.0
sg101
F1.0
sg72
F0.7777777777777777
sg79
F1.0
sg36
F1.0
sg92
F1.0
sg30
F1.0
sg16
F1.0
sg80
F1.0
sg69
F1.0
sg112
F1.0
sg24
F1.0
ssS'NZJd9Aq3De'
p280
(dp281
sg61
(dp282
g82
F1.0
sg22
F1.0
sg17
F1.0
sg83
F1.0
sg59
F1.0
sg62
F1.0
sg85
F1.0
sg56
F1.0
sg16
F1.0
sg8
F1.0
sg118
F1.0
sg58
F1.0
sg67
F1.0
sg10
F1.0
sg12
F1.0
sg99
F1.0
sg101
F1.0
sg63
F1.0
sg11
F1.0
sg39
F1.0
sg35
F1.0
sg121
F1.0
sg37
F1.0
sg21
F1.0
sg109
F1.0
sg122
F1.0
sg79
F1.0
sg30
F1.0
sg80
F1.0
sg24
F1.0
ssg84
(dp283
g82
F1.0
sg22
F1.0
sg7
F1.0
sg83
F1.0
sg59
F1.0
sg62
F1.0
sg85
F1.0
sg74
F1.0
sg17
F1.0
sg66
F1.0
sg8
F1.0
sg88
F1.0
sg67
F1.0
sg68
F1.0
sg52
F1.0
sg50
F1.0
sg18
F1.0
sg35
F1.0
sg37
F1.0
sg21
F1.0
sg9
F1.0
sg71
F1.0
sg54
F1.0
sg16
F1.0
sg112
F1.0
sS'F25axtfCKG'
p284
F1.0
ssg62
(dp285
g82
F1.0
sg22
F1.0
sg17
F1.0
sg83
F1.0
sg59
F1.0
sg61
F1.0
sg84
F1.0
sS'jR1rpwLHNu'
p286
F1.0
sg85
F1.0
sg56
F1.0
sg20
F1.0
sg66
F1.0
sg8
F1.0
sg119
F1.0
sg58
F1.0
sg67
F1.0
sg10
F1.0
sg63
F1.0
sg99
F1.0
sg52
F1.0
sg38
F1.0
sg50
F1.0
sg77
F1.0
sg89
F1.0
sg18
F1.0
sg35
F1.0
sg60
F1.0
sg70
F1.0
sg107
F1.0
sg21
F1.0
sg109
F1.0
sg64
F1.0
sg54
F1.0
sg36
F1.0
sg92
F1.0
sg16
F1.0
sg112
F1.0
ssg286
(dp287
g99
F1.0
sg62
F1.0
ssS'K4IIshw37g'
p288
(dp289
sS'rPj8YeG1I5'
p290
(dp291
sg85
(dp292
g82
F1.0
sg22
F1.0
sg17
F1.0
sg83
F1.0
sg61
F1.0
sg84
F1.0
sg62
F1.0
sg16
F1.0
sg8
F1.0
sg118
F1.0
sg88
F1.0
sg10
F1.0
sg12
F1.0
sg99
F1.0
sg50
F1.0
sg77
F1.0
sg63
F1.0
sg18
F1.0
sg35
F1.0
sg121
F1.0
sg37
F1.0
sg21
F1.0
sg71
F1.0
sg78
F1.0
sg122
F1.0
sg32
F1.0
sg30
F1.0
sg20
F1.0
sg112
F1.0
ssg27
(dp293
g5
F1.0
sg105
F1.0
sg25
F1.0
sg35
F0.6666666666666666
sg73
F1.0
sg60
F1.0
sg17
F1.0
sg70
F1.0
sg52
F1.0
sg108
F1.0
sg31
F1.0
sg21
F1.0
sg112
F1.0
sg77
F1.0
ssg278
(dp294
g5
F1.0
sg20
F1.0
sg83
F1.0
sg35
F1.0
sg64
F1.0
ssg86
(dp295
g82
F1.0
sg17
F1.0
sg35
F1.0
sg12
F1.0
sg32
F1.0
sg70
F1.0
sg37
F1.0
sg30
F1.0
sg16
F1.0
sg81
F1.0
sg68
F1.0
sg109
F1.0
sg90
F1.0
ssg87
(dp296
g17
F1.0
sg64
F1.0
ssg259
(dp297
g122
F1.0
ssg118
(dp298
g82
F1.0
sg22
F1.0
sg122
F1.0
sg59
F1.0
sg12
F1.0
sg88
F1.0
sg30
F1.0
sg85
F1.0
sg61
F1.0
sg121
F1.0
sg16
F1.0
sg21
F1.0
sg112
F1.0
sg8
F1.0
sg101
F1.0
sg63
F1.0
sg142
F1.0
ssS'eZRzEYP9oJ'
p299
(dp300
sS'dTIQk6Xt3r'
p301
(dp302
sg70
(dp303
g22
F1.0
sg7
F1.0
sg83
F1.0
sg58
F1.0
sg62
F1.0
sg17
F1.0
sg66
F1.0
sg88
F1.0
sg59
F1.0
sg10
F1.0
sg63
F1.0
sg99
F1.0
sg68
F1.0
sg76
F1.0
sg86
F1.0
sg77
F1.0
sg39
F1.0
sg37
F1.0
sg107
F1.0
sg19
F1.0
sg21
F1.0
sg27
F1.0
sg54
F1.0
sg101
F1.0
sg79
F1.0
sg16
F1.0
sg24
F1.0
sg81
F1.0
ssS'On0ILT6rt5'
p304
(dp305
sS'654Dd1132b'
p306
(dp307
sg71
(dp308
g82
F1.0
sg17
F1.0
sg73
F1.0
sg84
F0.8333333333333333
sg85
F0.75
sg18
F0.75
sg66
F0.75
sg88
F0.7777777777777777
sg67
F1.0
sg10
F0.75
sg52
F0.8125
sg50
F0.8125
sg77
F0.7333333333333334
sg5
F1.0
sg105
F1.0
sg35
F0.8333333333333333
sg60
F0.75
sg37
F0.7777777777777777
sg21
F0.75
sg9
F0.6666666666666666
sg110
F1.0
sg36
F1.0
sg54
F0.6666666666666666
sg16
F1.0
sg20
F1.0
sg78
F0.75
ssS'Fe9oJAU48c'
p309
(dp310
sg64
(dp311
g58
F1.0
sg21
F1.0
sg17
F1.0
sg59
F1.0
sg60
F1.0
sg63
F1.0
sg99
F1.0
sg62
F1.0
sg278
F1.0
sg56
F1.0
sg87
F1.0
sg93
F1.0
sg35
F1.0
ssS'dc35t0IQHq'
p312
(dp313
sg31
(dp314
g5
F1.0
sg17
F1.0
sg10
F1.0
sg30
F1.0
sg47
F1.0
sg108
F1.0
sg21
F1.0
sg28
F1.0
sg27
F1.0
ssg153
(dp315
g150
F1.0
ssg78
(dp316
g82
F1.0
sg17
F1.0
sg8
F0.6666666666666666
sg35
F1.0
sg85
F1.0
sg20
F1.0
sg50
F1.0
sg77
F1.0
sg71
F1.0
ssS'f4fNYL73Z2'
p317
(dp318
sS'c6LS9kDJe1'
p319
(dp320
sg5
(dp321
g3
F1.0
sg72
F1.0
sg25
F1.0
sg59
F1.0
sg73
F1.0
sg15
F1.0
sg105
F1.0
sg278
F1.0
sg7
F1.0
sg8
F1.0
sg88
F1.0
sg10
F1.0
sg31
F1.0
sg50
F1.0
sg101
F1.0
sg18
F1.0
sg60
F1.0
sg47
F1.0
sg120
F1.0
sg108
F1.0
sg21
F1.0
sg27
F1.0
sg71
F1.0
sg17
F1.0
sg20
F1.0
sg112
F1.0
sg24
F1.0
ssg194
(dp322
g101
F1.0
sg24
F1.0
ssg219
(dp323
g77
F1.0
sg80
F1.0
sg10
F1.0
ssS'txnqGG764s'
p324
(dp325
sS'jbw83hRJZQ'
p326
(dp327
sS'wu58ARZBA2'
p328
(dp329
sS's39qS245G2'
p330
(dp331
sg9
(dp332
g3
F1.0
sg17
F1.0
sg83
F1.0
sg73
F1.0
sg84
F1.0
sg44
F1.0
sg22
F1.0
sg20
F1.0
sg66
F1.0
sg88
F1.0
sg10
F1.0
sg99
F1.0
sg52
F1.0
sg50
F1.0
sg101
F1.0
sg11
F1.0
sg18
F1.0
sg35
F1.0
sg47
F1.0
sg37
F1.0
sg110
F1.0
sg53
F1.0
sg71
F1.0
sg54
F1.0
sg79
F1.0
sg16
F1.0
sg19
F1.0
sg24
F1.0
ssS'yA79w15tnU'
p333
(dp334
sS'589M2uPIY4'
p335
(dp336
sS'V2p98HHF6o'
p337
(dp338
sg90
(dp339
g17
F1.0
sg35
F1.0
sg69
F1.0
sg152
F1.0
sg37
F1.0
sg86
F1.0
sg38
F1.0
sg32
F1.0
sg109
F1.0
sg39
F1.0
ssg91
(dp340
g17
F0.875
sg108
F0.6666666666666666
sg47
F1.0
sg20
F0.75
sg59
F0.75
ssg72
(dp341
g5
F0.8333333333333333
sg22
F1.0
sg17
F0.7777777777777777
sg8
F0.6666666666666666
sg59
F0.7777777777777778
sg10
F0.7777777777777777
sg60
F1.0
sg99
F0.75
sg75
F0.75
sg37
F1.0
sg52
F1.0
sg20
F0.7777777777777777
sg77
F1.0
sg35
F1.0
ssS'Ij894m7u4j'
p342
(dp343
sg14
(dp344
g3
F1.0
sg18
F1.0
sg83
F0.75
sg35
F1.0
sg60
F1.0
sg114
F1.0
sg20
F0.75
sg66
F1.0
sg8
F1.0
sg77
F0.75
sg46
F1.0
sg110
F1.0
ssg89
(dp345
g17
F1.0
sg35
F1.0
sg10
F1.0
sg60
F1.0
sg99
F1.0
sg62
F1.0
sg19
F1.0
sg37
F1.0
sg38
F1.0
sg46
F1.0
sg53
F1.0
ssS'15V4J8fDs3'
p346
(dp347
g93
F0.75
ssS'1z5YH40155'
p348
(dp349
sg16
(dp350
g82
F1.0
sg3
F0.75
sg17
F0.9166666666666666
sg83
F0.7777777777777778
sg59
F1.0
sg33
F1.0
sg19
F1.0
sg61
F1.0
sg84
F0.8333333333333333
sg62
F0.75
sg44
F0.7777777777777777
sg22
F0.8
sg85
F0.75
sg86
F1.0
sg66
F0.75
sg8
F0.7999999999999999
sg118
F1.0
sg88
F0.7777777777777777
sg39
F1.0
sg67
F1.0
sg73
F1.0
sg10
F0.7916666666666666
sg12
F1.0
sg99
F0.75
sg15
F1.0
sg68
F1.0
sg52
F0.75
sg38
F0.75
sg13
F1.0
sg50
F0.75
sg101
F1.0
sg63
F1.0
sg11
F1.0
sg105
F1.0
sg35
F0.8444444444444444
sg150
F1.0
sg47
F1.0
sg70
F1.0
sg18
F0.75
sg49
F1.0
sg121
F1.0
sg37
F0.8125
sg81
F1.0
sg9
F0.75
sg28
F1.0
sg53
F1.0
sg71
F1.0
sg54
F0.7777777777777778
sg122
F1.0
sg79
F1.0
sg46
F0.8333333333333333
sg30
F1.0
sg20
F1.0
sg32
F1.0
sg112
F1.0
sg110
F1.0
sg24
F1.0
sg21
F1.0
ssS'68xd8R3v7U'
p351
(dp352
sg127
(dp353
g105
F1.0
sg120
F1.0
sg125
F1.0
sg52
F1.0
sg18
F1.0
sg88
F1.0
ssS'84qYt0yA5y'
p354
(dp355
sS'Dl62lXJbK1'
p356
(dp357
sS'xa6ovLs5IM'
p358
(dp359
sg15
(dp360
g5
F1.0
sg3
F1.0
sg25
F1.0
sg73
F1.0
sg16
F1.0
sg21
F1.0
ssS'7d9J30iOq8'
p361
(dp362
sg93
(dp363
g7
F1.0
sg35
F0.8333333333333333
sg98
F0.75
sg36
F1.0
sg47
F0.6666666666666666
sg73
F0.6666666666666666
sg346
F1.0
sg17
F0.875
sg21
F0.75
sg64
F0.75
sg54
F0.6666666666666666
ssS'CaA0123UJL'
p364
(dp365
sS'0w3IAZa8rQ'
p366
(dp367
sg94
(dp368
g104
F1.0
sg17
F1.0
sg35
F1.0
sg12
F1.0
sg36
F1.0
sg100
F1.0
sg32
F1.0
ssg95
(dp369
g22
F1.0
sg17
F1.0
sg8
F1.0
sg59
F1.0
sg30
F1.0
sg75
F1.0
sg92
F1.0
sg18
F1.0
sg101
F1.0
sg88
F1.0
sg142
F1.0
ssg20
(dp370
g82
F1.0
sg3
F0.7777777777777777
sg17
F1.0
sg83
F0.7777777777777778
sg59
F1.0
sg73
F1.0
sg14
F0.75
sg44
F0.75
sg22
F0.75
sg85
F0.75
sg278
F1.0
sg18
F0.75
sg51
F0.75
sg8
F0.8333333333333334
sg88
F0.7777777777777777
sg10
F0.8125
sg12
F1.0
sg99
F0.75
sg52
F0.75
sg50
F0.7777777777777778
sg77
F0.7916666666666667
sg46
F0.8333333333333333
sg62
F0.75
sg5
F1.0
sg105
F1.0
sg35
F0.7999999999999999
sg106
F1.0
sg60
F0.75
sg47
F1.0
sg107
F1.0
sg108
F1.0
sg37
F0.7777777777777777
sg21
F0.8333333333333334
sg9
F0.75
sg71
F1.0
sg54
F0.6666666666666666
sg91
F1.0
sg72
F0.7777777777777777
sg36
F1.0
sg16
F1.0
sg80
F1.0
sg32
F1.0
sg78
F0.75
ssS'31ApG55XoV'
p371
(dp372
sS'517LN52NOL'
p373
(dp374
sS'UJCeB1hbie'
p375
(dp376
sg96
(dp377
g30
F1.0
sg17
F1.0
ssS'6dGeA2ZpO4'
p378
(dp379
sg35
(dp380
g82
F1.0
sg22
F0.8
sg17
F0.8128654970760234
sg83
F1.0
sg59
F1.0
sg33
F0.6666666666666666
sg114
F1.0
sg61
F1.0
sg84
F1.0
sg14
F1.0
sg44
F0.7777777777777777
sg94
F0.8333333333333333
sg85
F1.0
sg56
F1.0
sg20
F1.0
sg66
F1.0
sg68
F0.8333333333333333
sg211
F1.0
sg8
F1.0
sg16
F0.8666666666666666
sg52
F1.0
sg88
F1.0
sg58
F1.0
sg67
F1.0
sg73
F1.0
sg10
F1.0
sg12
F0.9
sg99
F1.0
sg100
F1.0
sg46
F0.6666666666666666
sg64
F1.0
sg71
F1.0
sg38
F0.75
sg93
F1.0
sg50
F1.0
sg78
F1.0
sg77
F1.0
sg63
F1.0
sg62
F1.0
sg11
F1.0
sg103
F1.0
sg6
F0.6666666666666666
sg105
F1.0
sg39
F0.7777777777777777
sg60
F1.0
sg47
F0.6499999999999999
sg18
F1.0
sg119
F1.0
sg107
F1.0
sg49
F0.75
sg19
F0.7999999999999999
sg37
F1.0
sg81
F0.75
sg9
F1.0
sg27
F1.0
sg53
F1.0
sg90
F0.7777777777777777
sg54
F0.8
sg101
F1.0
sg72
F1.0
sg98
F0.75
sg79
F1.0
sg36
F1.0
sg152
F0.7777777777777777
sg278
F1.0
sg89
F1.0
sg30
F1.0
sg86
F0.75
sg80
F1.0
sg32
F0.8333333333333333
sg112
F0.7777777777777777
sg110
F1.0
sg24
F1.0
sg21
F1.0
ssS'hqew2E2l61'
p381
(dp382
sg97
(dp383
g17
F1.0
sg120
F0.75
sg101
F0.75
ssg98
(dp384
g17
F0.7142857142857143
sg35
F0.75
sg36
F0.75
sg93
F0.625
sg112
F1.0
sg54
F0.8333333333333333
ssg12
(dp385
g82
F1.0
sg3
F0.75
sg17
F0.8888888888888888
sg8
F1.0
sg59
F0.75
sg19
F0.75
sg61
F0.7777777777777777
sg22
F0.75
sg94
F0.8333333333333333
sg85
F1.0
sg16
F0.7
sg118
F1.0
sg39
F0.75
sg10
F0.8333333333333333
sg99
F1.0
sg50
F0.75
sg101
F0.75
sg11
F0.8333333333333333
sg35
F0.825
sg150
F0.75
sg86
F0.7777777777777777
sg121
F1.0
sg37
F1.0
sg81
F0.75
sg28
F0.75
sg171
F1.0
sg54
F0.75
sg122
F1.0
sg79
F0.75
sg36
F1.0
sg152
F0.75
sg20
F1.0
sg32
F0.7333333333333333
sg21
F1.0
ssg99
(dp386
g22
F1.0
sg7
F1.0
sg83
F1.0
sg59
F1.0
sg61
F1.0
sg62
F1.0
sg286
F1.0
sg85
F1.0
sg16
F1.0
sg66
F1.0
sg51
F1.0
sg8
F1.0
sg88
F1.0
sg39
F1.0
sg10
F1.0
sg12
F1.0
sg38
F1.0
sg50
F1.0
sg77
F1.0
sg102
F1.0
sg89
F1.0
sg18
F1.0
sg35
F1.0
sg60
F1.0
sg47
F1.0
sg70
F1.0
sg107
F1.0
sg19
F1.0
sg37
F1.0
sg9
F1.0
sg64
F1.0
sg54
F1.0
sg101
F1.0
sg72
F1.0
sg17
F1.0
sg69
F1.0
sg92
F1.0
sg20
F1.0
sg80
F1.0
ssS'DS5ecUMGJi'
p387
(dp388
sS'eD0u9WOep7'
p389
(dp390
sg100
(dp391
g17
F1.0
sg35
F1.0
sg10
F1.0
sg36
F1.0
sg94
F1.0
sg80
F1.0
ssg52
(dp392
g22
F0.875
sg17
F1.0
sg59
F1.0
sg73
F1.0
sg84
F1.0
sg62
F1.0
sg44
F1.0
sg72
F0.7777777777777777
sg88
F1.0
sg10
F1.0
sg125
F1.0
sg50
F1.0
sg77
F1.0
sg110
F1.0
sg6
F1.0
sg18
F1.0
sg35
F1.0
sg60
F1.0
sg37
F1.0
sg9
F1.0
sg27
F1.0
sg53
F1.0
sg71
F1.0
sg54
F1.0
sg16
F1.0
sg20
F1.0
sg127
F1.0
ssS'PSEDQ6XC7U'
p393
(dp394
sg50
(dp395
g82
F1.0
sg22
F1.0
sg7
F1.0
sg83
F1.0
sg59
F1.0
sg114
F1.0
sg84
F1.0
sg62
F1.0
sg44
F1.0
sg85
F1.0
sg74
F1.0
sg17
F1.0
sg66
F1.0
sg8
F1.0
sg67
F1.0
sg10
F1.0
sg12
F1.0
sg99
F1.0
sg52
F1.0
sg77
F1.0
sg11
F1.0
sg5
F1.0
sg18
F1.0
sg35
F1.0
sg37
F1.0
sg21
F1.0
sg9
F1.0
sg53
F1.0
sg71
F1.0
sg110
F1.0
sg79
F1.0
sg32
F1.0
sg16
F1.0
sg30
F1.0
sg20
F1.0
sg112
F1.0
sg78
F1.0
ssg101
(dp396
g22
F0.8333333333333333
sg7
F1.0
sg83
F0.75
sg59
F0.7777777777777778
sg73
F1.0
sg61
F0.75
sg95
F0.75
sg16
F0.7777777777777778
sg8
F0.8333333333333333
sg118
F0.75
sg88
F0.7777777777777777
sg39
F1.0
sg97
F1.0
sg10
F1.0
sg12
F0.75
sg99
F1.0
sg75
F1.0
sg102
F1.0
sg142
F0.75
sg11
F0.6666666666666666
sg5
F1.0
sg6
F1.0
sg18
F0.7999999999999999
sg194
F0.75
sg35
F0.875
sg70
F0.75
sg21
F0.75
sg9
F1.0
sg17
F0.8541666666666666
sg92
F0.75
sg79
F0.7777777777777778
sg112
F0.7777777777777778
sg24
F0.8
ssg102
(dp397
g17
F1.0
sg59
F0.6666666666666666
sg10
F0.75
sg99
F0.7777777777777777
sg80
F0.75
sg101
F1.0
ssg11
(dp398
g3
F1.0
sg17
F1.0
sg83
F1.0
sg59
F1.0
sg61
F1.0
sg22
F1.0
sg74
F1.0
sg16
F1.0
sg8
F1.0
sg88
F1.0
sg67
F1.0
sg10
F1.0
sg12
F1.0
sg50
F1.0
sg101
F1.0
sg18
F1.0
sg35
F1.0
sg19
F1.0
sg21
F1.0
sg9
F1.0
sg53
F1.0
sg79
F1.0
sg37
F1.0
sg24
F1.0
ssg103
(dp399
g17
F1.0
sg37
F1.0
sg67
F1.0
sg35
F1.0
sg10
F1.0
ssg104
(dp400
g17
F0.7857142857142857
sg94
F0.8333333333333333
ssg18
(dp401
g82
F1.0
sg3
F1.0
sg17
F0.8333333333333334
sg83
F1.0
sg59
F0.75
sg73
F1.0
sg114
F1.0
sg84
F1.0
sg14
F1.0
sg44
F0.7777777777777778
sg22
F1.0
sg85
F1.0
sg95
F0.75
sg20
F0.75
sg51
F1.0
sg8
F0.7916666666666667
sg88
F0.8125
sg67
F1.0
sg10
F0.75
sg30
F0.7777777777777777
sg99
F0.7777777777777777
sg52
F1.0
sg119
F1.0
sg50
F1.0
sg77
F1.0
sg46
F1.0
sg62
F1.0
sg11
F1.0
sg5
F0.8333333333333333
sg105
F1.0
sg35
F1.0
sg106
F0.75
sg60
F1.0
sg47
F0.75
sg120
F0.7777777777777777
sg19
F1.0
sg37
F1.0
sg21
F1.0
sg9
F1.0
sg53
F1.0
sg71
F1.0
sg110
F1.0
sg101
F0.7777777777777777
sg79
F1.0
sg92
F0.75
sg16
F1.0
sg24
F1.0
sg127
F1.0
ssS'12M70dm49w'
p402
(dp403
sg106
(dp404
g17
F1.0
sg8
F1.0
sg73
F1.0
sg18
F1.0
sg20
F1.0
sg80
F1.0
sg88
F1.0
ssS'e7uv9PqtYY'
p405
(dp406
sS'LIXD5c0lE5'
p407
(dp408
sS'2rSW5fZ50h'
p409
(dp410
sS'7rP4RofmNF'
p411
(dp412
sg107
(dp413
g17
F1.0
sg83
F0.75
sg35
F0.75
sg10
F0.75
sg60
F0.75
sg99
F0.75
sg62
F0.7777777777777778
sg70
F1.0
sg20
F1.0
sg21
F0.75
sg112
F1.0
sg77
F0.7333333333333334
sg88
F0.75
ssg108
(dp414
g5
F0.75
sg17
F0.8333333333333334
sg59
F0.75
sg10
F0.75
sg47
F0.6666666666666666
sg73
F0.6666666666666666
sg27
F0.75
sg31
F0.7777777777777777
sg21
F0.75
sg112
F0.75
sg91
F0.75
sg20
F0.75
ssg37
(dp415
g82
F1.0
sg22
F1.0
sg17
F0.8809523809523809
sg83
F1.0
sg59
F1.0
sg33
F0.6666666666666666
sg61
F1.0
sg84
F1.0
sg85
F1.0
sg56
F1.0
sg86
F0.75
sg8
F1.0
sg88
F1.0
sg58
F1.0
sg67
F0.8125
sg73
F1.0
sg10
F1.0
sg12
F1.0
sg99
F1.0
sg52
F1.0
sg71
F1.0
sg50
F1.0
sg77
F1.0
sg46
F0.65
sg89
F1.0
sg11
F1.0
sg103
F1.0
sg39
F0.75
sg18
F0.8
sg35
F0.9444444444444443
sg60
F1.0
sg70
F0.7777777777777778
sg49
F0.75
sg19
F0.8333333333333333
sg81
F0.75
sg9
F1.0
sg53
F1.0
sg90
F0.75
sg54
F0.75
sg72
F1.0
sg79
F1.0
sg16
F0.85
sg20
F1.0
sg112
F1.0
sg110
F1.0
sg21
F1.0
ssS'13yR9KFHCI'
p416
(dp417
sS'23T7Up1oQ6'
p418
(dp419
sg109
(dp420
g17
F1.0
sg67
F1.0
sg59
F1.0
sg61
F1.0
sg62
F1.0
sg63
F1.0
sg86
F1.0
sg66
F1.0
sg8
F1.0
sg90
F1.0
sg58
F1.0
ssg110
(dp421
g6
F0.8333333333333333
sg17
F1.0
sg8
F0.8333333333333333
sg35
F0.8333333333333334
sg10
F0.6666666666666666
sg114
F0.8333333333333333
sg79
F1.0
sg14
F0.75
sg73
F1.0
sg16
F1.0
sg18
F0.75
sg52
F0.75
sg37
F0.75
sg66
F0.75
sg9
F0.6666666666666666
sg50
F0.75
sg88
F0.75
sg53
F1.0
sg71
F1.0
ssS'740FTSQ19O'
p422
(dp423
sS'cx5L3UEvoR'
p424
(dp425
sg284
(dp426
g84
F0.75
ssS'19UbXBlPPK'
p427
(dp428
sS'Ud9p3KH6Bv'
p429
(dp430
sg88
(dp431
g82
F1.0
sg22
F1.0
sg17
F1.0
sg83
F1.0
sg59
F1.0
sg73
F1.0
sg84
F1.0
sg85
F1.0
sg95
F0.7777777777777778
sg18
F1.0
sg51
F1.0
sg8
F1.0
sg118
F0.75
sg58
F1.0
sg67
F1.0
sg10
F1.0
sg63
F1.0
sg99
F1.0
sg125
F1.0
sg75
F0.75
sg52
F1.0
sg76
F1.0
sg77
F1.0
sg110
F1.0
sg142
F0.75
sg11
F1.0
sg5
F1.0
sg105
F1.0
sg35
F1.0
sg106
F1.0
sg60
F1.0
sg70
F1.0
sg47
F1.0
sg120
F1.0
sg107
F1.0
sg121
F1.0
sg37
F1.0
sg9
F1.0
sg53
F1.0
sg71
F1.0
sg54
F1.0
sg101
F1.0
sg79
F1.0
sg16
F1.0
sg92
F1.0
sg20
F1.0
sg112
F1.0
sg127
F1.0
ssS'GBp6LkJ9VA'
p432
(dp433
sS'h9Tx9ulI5Q'
p434
(dp435
sS'nA15DeLBE1'
p436
(dp437
sg63
(dp438
g22
F1.0
sg17
F1.0
sg8
F1.0
sg59
F1.0
sg73
F1.0
sg61
F1.0
sg62
F1.0
sg85
F1.0
sg56
F1.0
sg16
F1.0
sg118
F1.0
sg88
F1.0
sg67
F1.0
sg10
F1.0
sg30
F1.0
sg35
F1.0
sg60
F1.0
sg70
F1.0
sg121
F1.0
sg21
F1.0
sg109
F1.0
sg64
F1.0
sg36
F1.0
sg80
F1.0
sg112
F1.0
ssS'4ajdr1a4Kc'
p439
(dp440
sg111
(dp441
g36
F1.0
sg17
F1.0
ssS'7esK30uHH1'
p442
(dp443
sg112
(dp444
g22
F1.0
sg7
F1.0
sg83
F1.0
sg59
F0.7777777777777777
sg73
F1.0
sg84
F1.0
sg62
F0.7777777777777777
sg85
F1.0
sg17
F0.875
sg8
F1.0
sg118
F1.0
sg88
F0.75
sg58
F0.6666666666666666
sg98
F1.0
sg63
F0.75
sg50
F1.0
sg77
F0.875
sg142
F1.0
sg5
F0.8125
sg6
F1.0
sg105
F0.75
sg35
F0.7777777777777777
sg107
F0.75
sg108
F0.75
sg37
F0.75
sg21
F1.0
sg27
F0.75
sg101
F1.0
sg79
F1.0
sg92
F1.0
sg16
F1.0
sg24
F1.0
ssS'odPTXtfS78'
p445
(dp446
s.