(dp0
S'Exz0X2naK1'
p1
(dp2
S'dvG32rxRzQ'
p3
F0.75
sS'XL0eQIoG72'
p4
F0.75
sS'c1zVCHxCEz'
p5
F1.0
sS'pg8uPBYamG'
p6
F0.6666666666666666
sS'90o991hXMa'
p7
F0.75
sS'IQ98biy227'
p8
F1.0
sS'0U9x5pNv8t'
p9
F0.6666666666666666
ssS'7H6yD0xNNn'
p10
(dp11
sS'0ZroSLGL09'
p12
(dp13
sS'8a0vIMw4At'
p14
(dp15
sS'pVG9cgOpCR'
p16
(dp17
sg4
(dp18
g1
F1.0
sS'b2W4ZO3uLV'
p19
F1.0
sS'02i5jCrfQK'
p20
F0.75
sg5
F1.0
sS'h0UbH181l8'
p21
F0.7857142857142857
sg6
F1.0
sg7
F0.8125
sS'S7E3jvZbGG'
p22
F0.75
sg8
F1.0
sS'6Ax4SKe470'
p23
F1.0
sS'y5009rpZ12'
p24
F0.8400000000000001
sS'f1924U65I1'
p25
F0.75
sS'C18qWKq212'
p26
F1.0
sS'LQDsuDw2tX'
p27
F1.0
sS'8r7mHkuKX9'
p28
F1.0
sS'5a5qA8VLfI'
p29
F1.0
sS'6jCygPdswz'
p30
F1.0
sS'1bJbgQ32E3'
p31
F0.9
sS'X5eS5kvC8h'
p32
F0.625
sg3
F0.8148148148148148
sS'l5eh0S53tB'
p33
F0.783882783882784
sS'dD0vTK3gXD'
p34
F1.0
sS'i8f2gg51r5'
p35
F0.825
sg9
F1.0
sS'N18G8VLF9v'
p36
F0.75
sS'EWo6L00OAS'
p37
F0.75
sS'0jSb6S70X1'
p38
F1.0
ssS'H4UD7rojkA'
p39
(dp40
sS'e95f4UtF4I'
p41
(dp42
sS'TQ0ahWNcZ9'
p43
(dp44
sg27
(dp45
g21
F1.0
sg4
F1.0
sg35
F1.0
sg3
F1.0
sg33
F1.0
ssg22
(dp46
g3
F0.7999999999999999
sg4
F0.75
sg33
F0.7777777777777777
sg20
F1.0
sg35
F0.7
sg29
F0.75
sS'HujcxU5LVb'
p47
F1.0
sg9
F0.75
ssS'0YvZonpLW8'
p48
(dp49
g25
F1.0
sg32
F1.0
sg24
F1.0
ssS'3Whv9UbPsR'
p50
(dp51
sg31
(dp52
g32
F0.75
sg3
F0.875
sg19
F0.7916666666666666
sg35
F0.75
sg24
F1.0
sg20
F0.8333333333333334
sg7
F0.75
sg26
F1.0
sS'C0qLCIhI0O'
p53
F0.75
sg21
F1.0
sg6
F1.0
sg30
F0.8541666666666666
sg38
F1.0
sg5
F1.0
sg4
F1.0
sg9
F1.0
sg8
F1.0
sg23
F1.0
sg33
F0.75
ssS'FD5m13We02'
p54
(dp55
sg33
(dp56
S'Ugr5eIIEf0'
p57
F0.75
sg19
F0.7777777777777778
sg20
F0.6785714285714286
sg5
F1.0
sS'Mhc6xUn6X1'
p58
F1.0
sg21
F0.6938775510204083
sg6
F1.0
sg7
F0.8125
sg8
F0.8888888888888888
sg23
F0.82
sg24
F0.9090909090909091
sg25
F0.75
sg26
F0.9
sg27
F0.75
sg22
F1.0
sg29
F1.0
sg30
F0.8333333333333334
sg31
F1.0
sg32
F0.6249999999999999
sg3
F0.8095238095238094
sg34
F1.0
sg4
F0.8285714285714285
sg35
F0.7307692307692308
sg9
F0.8541666666666666
sg47
F1.0
sg37
F0.75
sg38
F0.75
ssS'AQfVkV1aEx'
p59
(dp60
sS'5ey2xUDZTA'
p61
(dp62
S'9493h91NUB'
p63
F0.75
sS'iyLqACAFyl'
p64
F0.75
ssS'XBhl87k165'
p65
(dp66
sS'5gtqSDwEt1'
p67
(dp68
sS'oSV25Eb2y9'
p69
(dp70
sS'YgQ57c2glM'
p71
(dp72
sS'PpTLi2Qz8E'
p73
(dp74
sg47
(dp75
g7
F0.75
sg22
F0.75
sg33
F0.6666666666666666
sg24
F0.75
ssS'mt4GxUF641'
p76
(dp77
g23
F1.0
ssS'UO70mRwd30'
p78
(dp79
sS'K46aEi2Oi7'
p80
(dp81
sS'XrH5AAPdtj'
p82
(dp83
S'8rsfNQdio8'
p84
F1.0
ssS'gv1l9iqcam'
p85
(dp86
sS'bt0ZuHaCGY'
p87
(dp88
sS'Qwq8d0du28'
p89
(dp90
sS'42FRuGgL06'
p91
(dp92
sg64
(dp93
g61
F1.0
ssS'7rezIYMwkp'
p94
(dp95
sg7
(dp96
g32
F1.0
sg3
F1.0
sg4
F0.8125
sg33
F1.0
sg24
F0.7777777777777778
sg20
F1.0
sg26
F0.75
sg58
F1.0
sg1
F1.0
sg47
F1.0
sg37
F1.0
sg21
F0.7777777777777778
sg6
F1.0
sg35
F1.0
sg5
F1.0
sg8
F0.8
sg31
F1.0
sg23
F1.0
sg9
F1.0
ssg23
(dp97
g32
F0.75
sg3
F0.7333333333333334
sg19
F1.0
sg33
F0.8666666666666666
sg24
F1.0
sg20
F0.8333333333333334
sg7
F0.6666666666666666
sg26
F0.9166666666666666
sg76
F0.75
sg28
F0.75
sg25
F1.0
sg21
F0.6666666666666666
sg6
F1.0
sg35
F0.6444444444444445
sg5
F0.9444444444444443
sg29
F1.0
sg4
F0.7045454545454545
sg30
F0.8888888888888888
sg31
F1.0
sg8
F0.9333333333333332
sg9
F0.75
ssg24
(dp98
g19
F1.0
sg20
F1.0
sg5
F1.0
sg21
F0.8333333333333334
sg7
F1.0
sg4
F0.9
sg8
F0.9047619047619048
sg23
F1.0
sg25
F1.0
sg26
F1.0
sg48
F1.0
sg29
F1.0
sS'8ZPoEJbXB7'
p99
F1.0
sg30
F0.9
sg31
F1.0
sg3
F0.888888888888889
sg33
F1.0
sg35
F0.9444444444444445
sg9
F1.0
sg47
F1.0
sg36
F1.0
sS'KiDu7A3iD8'
p100
F1.0
sg38
F1.0
ssg25
(dp101
g32
F1.0
sg19
F1.0
sg33
F1.0
sg24
F1.0
sg20
F1.0
sg26
F1.0
sg35
F1.0
sg5
F1.0
sg29
F1.0
sg4
F1.0
sg30
F1.0
sg48
F1.0
sg23
F1.0
ssS'U50h3ZFmGt'
p102
(dp103
sS'O46hm6g2nf'
p104
(dp105
sg99
(dp106
g24
F0.75
ssg30
(dp107
g32
F1.0
sg3
F0.875
sg19
F1.0
sg33
F1.0
sg24
F1.0
sg20
F1.0
sg25
F1.0
sg26
F1.0
sg28
F1.0
sg21
F0.8400000000000001
sg6
F1.0
sg35
F1.0
sg5
F1.0
sg29
F1.0
sg4
F0.8888888888888888
sg31
F1.0
sg23
F0.8333333333333334
sg8
F0.8333333333333334
sg9
F1.0
ssg32
(dp108
g3
F1.0
sg4
F1.0
sg33
F1.0
sg20
F0.7222222222222222
sg25
F0.6666666666666666
sg5
F1.0
sg58
F1.0
sg37
F1.0
sg21
F1.0
sg6
F0.6666666666666666
sg35
F1.0
sg48
F0.8333333333333333
sg7
F1.0
sg30
F0.7777777777777777
sg31
F0.6666666666666666
sg23
F1.0
sg9
F1.0
ssS'40ARhM4nkF'
p109
(dp110
sS'E97430334J'
p111
(dp112
sS'XT7r2I6hmm'
p113
(dp114
sg9
(dp115
g1
F1.0
sg19
F1.0
sg20
F1.0
sg5
F1.0
sg58
F1.0
sg21
F1.0
sg6
F1.0
sg7
F1.0
sg8
F1.0
sg23
F1.0
sg24
F1.0
sg26
F1.0
sg22
F1.0
sg29
F1.0
sg30
F1.0
sg31
F1.0
sg32
F1.0
sg3
F1.0
sg33
F1.0
sg4
F1.0
sg35
F1.0
sg38
F1.0
ssS'gUgPjz2364'
p116
(dp117
sS'DZXDgO0B3u'
p118
(dp119
sS'wwV3RhdO1l'
p120
(dp121
sS'P5w9xdB3VM'
p122
(dp123
sS'cbgx682J78'
p124
(dp125
sS'D431zXkvuC'
p126
(dp127
sg57
(dp128
S'QER9PsCgBT'
p129
F0.7777777777777777
sg33
F0.7777777777777778
sg5
F0.75
sS'879eYkR2Wu'
p130
F0.7777777777777778
sg29
F0.7777777777777777
sS'6A16l70g5Q'
p131
F1.0
ssg19
(dp132
g3
F1.0
sg4
F1.0
sg33
F0.7222222222222223
sg24
F0.85
sg20
F1.0
sg25
F1.0
sg26
F0.8125
sg21
F1.0
sg35
F0.75
sg5
F1.0
sg29
F1.0
sg8
F1.0
sg30
F1.0
sg31
F1.0
sg23
F1.0
sg9
F0.7777777777777778
ssS'tyU2s0MBzm'
p133
(dp134
g20
F1.0
ssg20
(dp135
g19
F0.75
sg133
F1.0
sg5
F1.0
sg21
F1.0
sg6
F1.0
sg7
F1.0
sg22
F1.0
sg8
F0.6666666666666666
sg23
F1.0
sS'XNEgfvXx50'
p136
F0.8333333333333333
sg24
F0.75
sg25
F1.0
sg26
F1.0
sg28
F1.0
sg29
F1.0
sg30
F0.8666666666666667
sg31
F0.75
sg32
F1.0
sg3
F0.8214285714285714
sg33
F1.0
sg4
F0.8333333333333333
sg35
F1.0
sg9
F0.6666666666666666
sg37
F1.0
ssg63
(dp137
g61
F1.0
ssg5
(dp138
g1
F1.0
sg57
F1.0
sg19
F0.75
sg20
F0.625
sg58
F1.0
sg21
F0.6666666666666666
sg6
F0.8333333333333334
sg7
F0.7777777777777777
sg8
F0.8571428571428572
sg23
F0.8333333333333334
sg24
F0.875
sg25
F0.6666666666666666
sg26
F1.0
sg28
F1.0
sg29
F1.0
sg30
F0.875
sg31
F0.75
sg129
F0.72
sg32
F1.0
sg3
F0.7962962962962963
sg33
F1.0
sg34
F1.0
sg4
F0.7818181818181819
sg35
F0.7555555555555555
sg9
F0.8
sg130
F1.0
ssg58
(dp139
g32
F0.625
sg3
F0.75
sg33
F0.75
sg5
F0.75
sg7
F0.75
sg9
F0.6666666666666666
ssS'2x0Z9q6jD0'
p140
(dp141
sS'DkXJps09H6'
p142
(dp143
sg6
(dp144
g32
F1.0
sg3
F0.8666666666666667
sg4
F0.9047619047619048
sg33
F1.0
sg8
F0.8333333333333334
sg20
F1.0
sg26
F1.0
sS'2oNLCndtam'
p145
F1.0
sg1
F1.0
sg21
F0.75
sg35
F1.0
sg5
F1.0
sg7
F1.0
sg30
F1.0
sg31
F1.0
sg23
F0.75
sg34
F1.0
sg9
F1.0
ssg8
(dp146
g1
F1.0
sg3
F0.8701298701298701
sg19
F1.0
sg33
F1.0
sg24
F1.0
sg20
F1.0
sg7
F0.8125
sg26
F0.75
sg21
F1.0
sg6
F0.75
sg35
F0.7916666666666666
sg5
F0.875
sg29
F1.0
sg4
F0.8484848484848485
sg30
F0.8666666666666667
sg31
F0.75
sg23
F0.8333333333333334
sg34
F1.0
sg9
F0.8285714285714285
ssg136
(dp147
g20
F0.75
ssS'XHm4u4Y8OU'
p148
(dp149
sS'Fe9oJAU48c'
p150
(dp151
sg28
(dp152
g4
F1.0
sg20
F1.0
sg26
F1.0
sg35
F1.0
sg5
F1.0
sg29
F1.0
sg30
F1.0
sg23
F1.0
ssg129
(dp153
g29
F1.0
sg5
F1.0
sg131
F1.0
sg57
F1.0
sg130
F1.0
ssS'ub1y4M34bR'
p154
(dp155
sg34
(dp156
g3
F0.875
sg4
F0.9166666666666667
sg33
F1.0
sg5
F1.0
sg21
F0.75
sg6
F1.0
sg8
F0.8
ssg53
(dp157
g26
F1.0
sg3
F1.0
sg31
F1.0
ssS'wkQxI30ZH6'
p158
(dp159
sS'biX0v423q0'
p160
(dp161
sS'8mKdvKlPOw'
p162
(dp163
sg35
(dp164
g19
F1.0
sg20
F1.0
sg5
F1.0
sg21
F0.8400000000000001
sg6
F1.0
sg7
F1.0
sg22
F1.0
sg8
F0.875
sg23
F0.8666666666666666
sg24
F1.0
sg25
F1.0
sg26
F1.0
sg27
F0.75
sg28
F1.0
sg29
F1.0
sS'PE6x6PxZ42'
p165
F0.875
sg31
F1.0
sg32
F1.0
sg3
F0.8833333333333333
sg33
F1.0
sg4
F0.9
sg9
F1.0
sg30
F1.0
ssS'GlZwe88Gzo'
p166
(dp167
g38
F1.0
ssS'kh6j72S63h'
p168
(dp169
sg130
(dp170
g129
F0.6666666666666666
sg5
F1.0
sg57
F1.0
sg29
F1.0
ssg37
(dp171
g32
F1.0
sg3
F1.0
sg4
F1.0
sg33
F1.0
sg20
F1.0
sg21
F1.0
sg7
F1.0
ssS'49kt2kaD8d'
p172
(dp173
sg145
(dp174
g6
F1.0
ssg21
(dp175
g19
F1.0
sg20
F1.0
sg5
F1.0
sg6
F1.0
sg7
F1.0
sg8
F1.0
sg23
F1.0
sg24
F1.0
sg26
F1.0
sg27
F1.0
sg29
F1.0
sg30
F1.0
sg31
F0.7777777777777777
sg32
F1.0
sg3
F1.0
sg33
F1.0
sg34
F1.0
sg4
F1.0
sg35
F1.0
sg36
F1.0
sg9
F1.0
sg37
F1.0
ssg26
(dp176
g3
F0.875
sg19
F0.85
sg33
F1.0
sg24
F1.0
sg20
F0.75
sg25
F0.75
sg5
F1.0
sg53
F1.0
sg28
F1.0
sg21
F0.7777777777777777
sg6
F0.8888888888888888
sg35
F1.0
sg7
F1.0
sg29
F1.0
sg4
F0.8888888888888888
sg100
F1.0
sg30
F0.8800000000000001
sg31
F0.75
sg23
F0.8333333333333334
sg8
F0.8666666666666667
sg9
F1.0
ssS'O4YDV4XPTd'
p177
(dp178
sS'LQm0n9F5e0'
p179
(dp180
sS'PSEDQ6XC7U'
p181
(dp182
sS'B5VRXIQ2Ji'
p183
(dp184
sg29
(dp185
g129
F0.7777777777777777
sg57
F1.0
sg19
F0.75
sg33
F1.0
sg24
F0.75
sg20
F0.6666666666666666
sg25
F0.6666666666666666
sg26
F0.7777777777777778
sg22
F1.0
sg28
F0.75
sg3
F1.0
sg130
F1.0
sg21
F0.8125
sg35
F0.8055555555555556
sg5
F1.0
sg4
F0.8333333333333333
sg30
F0.7777777777777777
sg8
F1.0
sg23
F0.7777777777777777
sg9
F1.0
ssS'Dk2tRopWQ3'
p186
(dp187
sg131
(dp188
g129
F1.0
sg57
F1.0
ssg165
(dp189
g35
F1.0
ssg3
(dp190
g1
F1.0
sg19
F1.0
sg20
F1.0
sg5
F1.0
sg58
F1.0
sg21
F0.8400000000000001
sg6
F1.0
sg7
F1.0
sg8
F0.8714285714285713
sg23
F1.0
sg24
F0.8571428571428572
sg26
F0.8
sg27
F1.0
sg22
F1.0
sg29
F1.0
sg30
F1.0
sg31
F1.0
sg32
F1.0
sg33
F1.0
sg34
F1.0
sg53
F1.0
sg4
F0.8968253968253967
sg35
F1.0
sg9
F1.0
sg37
F1.0
ssS'cI0EPqbE61'
p191
(dp192
sg36
(dp193
g21
F0.6666666666666666
sg4
F0.9166666666666667
sg24
F1.0
ssS'e5Ef9RFIF0'
p194
(dp195
sS'y8U9Hdz4E3'
p196
(dp197
sS'kKr8NG7YNL'
p198
(dp199
sg100
(dp200
g26
F0.75
sg24
F0.75
ssg38
(dp201
g4
F0.75
sg33
F0.6666666666666666
sg24
F0.8333333333333333
sg166
F1.0
sg31
F0.75
sg9
F0.8888888888888888
ssg84
(dp202
g82
F1.0
ssS'162lfGskK2'
p203
(dp204
s.