(dp0
S'XJyS25Yg27'
p1
(dp2
S'X5eS5kvC8h'
p3
F1.0
sS'ajPRq0Q08b'
p4
F1.0
sS'XL0eQIoG72'
p5
F1.0
sS'l5eh0S53tB'
p6
F1.0
sS'y5009rpZ12'
p7
F1.0
sS's19Mo891H5'
p8
F1.0
sS'm64Rgy40OF'
p9
F1.0
sS'Gwk4z777oU'
p10
F1.0
sS'dvG32rxRzQ'
p11
F1.0
sS'saNy7ix5ZY'
p12
F1.0
sS'34f4oB5Cod'
p13
F1.0
sS'EfN583275t'
p14
F1.0
sS'i8f2gg51r5'
p15
F1.0
sS'5a5qA8VLfI'
p16
F1.0
sS'h0UbH181l8'
p17
F1.0
sS'ZP886G3Z76'
p18
F1.0
sS'242fhbKRf9'
p19
F1.0
sS'0U9x5pNv8t'
p20
F1.0
ssS'M7hLaVJGvX'
p21
(dp22
S'8gH5u019ZH'
p23
F1.0
sS'c1zVCHxCEz'
p24
F0.8
sS'LM96hW22T2'
p25
F0.7777777777777777
sS'77y7iIIXuv'
p26
F1.0
sS'88Uhb8760x'
p27
F0.75
ssS'Fx8d98DRud'
p28
(dp29
sS'DS5ecUMGJi'
p30
(dp31
sS'9eV0EGVC6j'
p32
(dp33
sS'6bJ4auIa8L'
p34
(dp35
g3
F1.0
sg4
F1.0
sg5
F1.0
sg6
F1.0
sg7
F1.0
sS'IQ98biy227'
p36
F1.0
sg11
F1.0
sg9
F1.0
sS'qL6HDg57R9'
p37
F1.0
sS'YNGlv7F45C'
p38
F1.0
sg12
F1.0
sg17
F1.0
sg15
F1.0
sg16
F1.0
sS'OS2vxzjz6W'
p39
F1.0
sS'1bJbgQ32E3'
p40
F1.0
sS'SoEcLAeJi1'
p41
F1.0
sg20
F1.0
ssS'OCmTg4ha6w'
p42
(dp43
sS'8csPxY44OZ'
p44
(dp45
sS'Zl09dc50NB'
p46
(dp47
sS'0GlR30c2Mt'
p48
(dp49
sg26
(dp50
S'apCLF0uF21'
p51
F1.0
sg10
F1.0
sg4
F1.0
sg21
F1.0
sS'02i5jCrfQK'
p52
F1.0
sg24
F1.0
sg8
F1.0
sS'3hSu07XfGd'
p53
F1.0
sg17
F1.0
sS'Dmq6441349'
p54
F1.0
sg5
F1.0
sg36
F1.0
sg27
F1.0
sg7
F1.0
sg23
F1.0
sS'2IaH8665Ha'
p55
F1.0
sg39
F1.0
sg19
F1.0
sS'6jCygPdswz'
p56
F1.0
sg40
F1.0
sg41
F1.0
sg11
F1.0
sg6
F1.0
sS'LnVZmUuwc8'
p57
F1.0
sS'U9iFacSl34'
p58
F1.0
sg37
F1.0
sg15
F1.0
sS'EWHJMBPf94'
p59
F1.0
sg38
F1.0
sS'mNzo8mGzu9'
p60
F1.0
sg20
F1.0
sS'5ZR29q8c56'
p61
F1.0
sS'HvghFVBS5v'
p62
F1.0
sS'stK4H8Vit6'
p63
F1.0
sS'1CI7f2R98c'
p64
F1.0
sS'odPTXtfS78'
p65
F1.0
sS'4X3016rdOZ'
p66
F1.0
sS'9EAa0nJjb1'
p67
F1.0
ssS'i5Y9A05Ph8'
p68
(dp69
sS'oXgtQylYoP'
p70
(dp71
sS'D4md1bS6DC'
p72
(dp73
sS'a43DzeQWut'
p74
(dp75
sg27
(dp76
g21
F1.0
sg23
F1.0
sg24
F0.7916666666666666
sg55
F0.7777777777777777
sg26
F1.0
sg16
F0.8333333333333334
sg19
F1.0
ssS'2kb387yOiG'
p77
(dp78
sS'y2Z0J1858D'
p79
(dp80
sS'vpuUyzUJ0z'
p81
(dp82
sg55
(dp83
g24
F1.0
sg23
F1.0
sg26
F1.0
sg27
F1.0
ssS'verm1Wp12u'
p84
(dp85
g51
F1.0
sg10
F0.7777777777777778
sS'yuB6nxh3FX'
p86
F0.6
sg5
F0.8571428571428572
sg52
F1.0
sg24
F1.0
sg41
F0.75
sg53
F0.75
sg4
F0.8333333333333334
sg36
F0.625
sg7
F0.7777777777777777
sg39
F0.75
sg56
F0.875
sS'6W08a98ZQV'
p87
F1.0
sg6
F0.75
sg57
F0.8333333333333334
sS'm58s5oOZCm'
p88
F0.7333333333333334
sg12
F1.0
sg14
F0.75
sg15
F1.0
sg66
F0.75
sg37
F0.75
sg17
F0.6666666666666666
ssS'9TvPity5px'
p89
(dp90
sS'zBpW3sqPf6'
p91
(dp92
sS'OPv5PP9Bi4'
p93
(dp94
sg9
(dp95
g51
F1.0
sg1
F0.875
sg4
F0.7363636363636363
sg5
F0.6666666666666666
sg24
F1.0
sg41
F0.7777777777777777
sg34
F1.0
sg10
F0.75
sg17
F0.6666666666666666
sg7
F0.8888888888888888
sg16
F0.75
sg67
F0.8333333333333334
sg40
F1.0
sg18
F0.75
sg3
F1.0
sg11
F0.71875
sg6
F0.7878787878787877
sg57
F1.0
sg37
F0.75
sg15
F0.75
sg20
F0.7777777777777778
sg13
F0.6666666666666666
sg12
F1.0
ssg24
(dp96
g51
F0.8888888888888888
sg10
F0.6499999999999999
sg4
F0.8269230769230769
sg21
F0.8125
sg52
F0.625
sg8
F1.0
sg53
F0.6944444444444445
sg17
F0.6666666666666666
sg26
F0.8
sg54
F0.75
sg5
F0.7818181818181819
sg36
F0.8571428571428572
sg27
F0.8125
sg7
F0.875
sg23
F0.75
sg55
F0.7777777777777777
sg39
F0.75
sg84
F1.0
sg9
F1.0
sg16
F1.0
sg56
F0.875
sg40
F0.75
sg41
F1.0
sg3
F1.0
sg11
F0.7962962962962963
sg6
F1.0
sg57
F1.0
sg37
F0.75
sg14
F1.0
sg15
F0.7555555555555555
sg38
F0.84375
sg20
F0.8
sg13
F0.6666666666666666
sg61
F0.8888888888888888
sg12
F1.0
sg66
F0.8333333333333334
sg67
F0.875
ssS'wwSQeRjs22'
p97
(dp98
g4
F0.875
sg56
F0.75
sg67
F0.75
sg53
F0.75
ssS'auW9kr3fh6'
p99
(dp100
sS'7N07jFgyQJ'
p101
(dp102
g16
F1.0
sg52
F1.0
ssg40
(dp103
g51
F0.75
sg4
F0.8012820512820512
sg5
F1.0
sg52
F0.8333333333333334
sg24
F1.0
sg8
F0.8333333333333334
sg34
F0.75
sg53
F1.0
sg17
F1.0
sg26
F1.0
sg54
F1.0
sg36
F1.0
sg7
F1.0
sg39
F0.6666666666666666
sg9
F0.8333333333333333
sg56
F0.8541666666666666
sg41
F0.7777777777777777
sg3
F0.75
sg11
F0.875
sg6
F0.75
sg57
F0.7777777777777777
sg37
F0.8666666666666666
sg14
F0.7777777777777777
sg15
F0.75
sg38
F1.0
sg19
F1.0
sg20
F1.0
sg18
F1.0
sg12
F0.75
sg67
F0.7777777777777777
ssS'E38It7fjg0'
p104
(dp105
sS'XqBaV46VbC'
p106
(dp107
sg87
(dp108
g10
F0.75
sg4
F0.6666666666666666
sg5
F0.8333333333333333
sg6
F0.75
sg7
F0.75
sg57
F1.0
sg41
F0.75
sg52
F0.75
sg37
F0.75
sg84
F0.8333333333333333
sg63
F1.0
sg14
F1.0
sg56
F0.75
sg59
F0.75
sg18
F0.75
sg60
F0.75
ssS'JL3J46dUrn'
p109
(dp110
sg6
(dp111
g51
F0.8
sg1
F1.0
sg86
F0.9
sg5
F0.8285714285714285
sg52
F0.6785714285714286
sg24
F1.0
sg8
F0.8125
sg34
F0.65
sg3
F0.6249999999999999
sg53
F0.75
sg4
F0.730769230769231
sg26
F0.8125
sg10
F0.6428571428571428
sg54
F1.0
sg36
F0.8888888888888888
sg7
F0.9090909090909091
sg39
F0.6875
sg84
F0.75
sS'5AhC6ORULJ'
p112
F1.0
sg9
F0.6629629629629631
sg16
F1.0
sg56
F0.8333333333333334
sg40
F1.0
sg41
F0.8400000000000001
sg87
F0.75
sg11
F0.8095238095238094
sg57
F0.8
sg88
F1.0
sg12
F0.875
sg37
F0.826530612244898
sg14
F1.0
sg15
F0.7307692307692308
sg38
F0.8125
sg19
F1.0
sg20
F0.8541666666666666
sg13
F0.6666666666666666
sg61
F1.0
sg18
F1.0
sg17
F0.6938775510204083
sS'0w8srd7i18'
p113
F1.0
sg64
F1.0
sg66
F0.9
sg67
F0.8666666666666666
ssS'46z59pQP58'
p114
(dp115
S'66Ak255E3j'
p116
F1.0
sg3
F1.0
sS'z1iLCTB32T'
p117
F1.0
sg20
F1.0
ssS'EE579r50K3'
p118
(dp119
sS'z9svx3mA4s'
p120
(dp121
sS'8d194g9ccT'
p122
(dp123
g4
F1.0
sS'LP15lX652E'
p124
F0.6666666666666666
ssS'1793z4bHHR'
p125
(dp126
sS'7y5NJZ7S6u'
p127
(dp128
sg12
(dp129
g1
F1.0
sg4
F0.9
sg24
F1.0
sg41
F1.0
sg34
F1.0
sg10
F0.7777777777777777
sg17
F0.6666666666666666
sg7
F1.0
sg84
F1.0
sg9
F1.0
sg56
F1.0
sg40
F1.0
sg18
F1.0
sg3
F1.0
sg11
F0.8666666666666667
sg6
F1.0
sg57
F1.0
sg88
F1.0
sg37
F1.0
sg14
F1.0
sg15
F0.8888888888888888
sg38
F1.0
sg20
F1.0
sg13
F0.6666666666666666
sg66
F1.0
ssS'562xzTNuI6'
p130
(dp131
sS'6d2wZ1x370'
p132
(dp133
sS'075kbY53c1'
p134
(dp135
sg61
(dp136
g4
F0.7777777777777777
sg5
F0.8333333333333333
sg6
F1.0
sg7
F0.75
sg57
F0.75
sg24
F0.8333333333333334
sg53
F0.75
sg11
F1.0
sg26
F0.6666666666666666
sg15
F0.7777777777777777
sg54
F1.0
sg16
F1.0
sg56
F0.75
sg38
F0.75
sg20
F1.0
ssS'UmsZ3gHcg7'
p137
(dp138
sS'668lBbaKFE'
p139
(dp140
g4
F0.8928571428571429
sg124
F1.0
ssS'6EjPt2xgrB'
p141
(dp142
sg117
(dp143
g114
F1.0
sS'rE6U5574qn'
p144
F0.75
sS'PE6x6PxZ42'
p145
F0.7
ssS'081u59Iq1D'
p146
(dp147
sg112
(dp148
g4
F1.0
sg6
F1.0
sg7
F1.0
sg57
F1.0
sg37
F1.0
sg18
F1.0
sg11
F1.0
sg15
F1.0
sg36
F1.0
sg38
F1.0
ssS'a0Q6RZpO47'
p149
(dp150
sS'TAw598sUia'
p151
(dp152
sS'2J2SH6Fk63'
p153
(dp154
sS'78t79xOebG'
p155
(dp156
g3
F1.0
sS'tB4vqSxzqo'
p157
F0.8
sg144
F1.0
sS'0w3IAZa8rQ'
p158
F1.0
sg145
F0.8125
sg20
F1.0
ssS'Uv4cSe2ijd'
p159
(dp160
sg10
(dp161
g51
F1.0
sg1
F1.0
sg86
F0.6
sg5
F1.0
sg52
F1.0
sg24
F1.0
sg41
F1.0
sg3
F1.0
sg53
F1.0
sg4
F1.0
sg26
F1.0
sg36
F0.8333333333333334
sg7
F1.0
sg39
F1.0
sg84
F1.0
sg9
F1.0
sg16
F1.0
sg56
F1.0
sg66
F1.0
sg18
F1.0
sg87
F1.0
sg11
F1.0
sg6
F1.0
sg57
F1.0
sg88
F1.0
sg12
F1.0
sg37
F1.0
sg14
F1.0
sg15
F1.0
sS'MPqJdqnPtc'
p162
F1.0
sS'589M2uPIY4'
p163
F1.0
sg20
F1.0
sg17
F1.0
sg67
F1.0
ssg86
(dp164
g10
F1.0
sg4
F1.0
sg5
F0.6666666666666666
sg6
F1.0
sg7
F0.7777777777777778
sg57
F1.0
sg37
F1.0
sg39
F1.0
sg84
F1.0
sg17
F0.7777777777777777
sg56
F1.0
sg36
F0.7777777777777777
ssS'6e1627evYc'
p165
(dp166
sS'bt0ZuHaCGY'
p167
(dp168
sS'Qwq8d0du28'
p169
(dp170
S'Ru21xRreim'
p171
F0.7777777777777778
sg63
F0.8
sg145
F0.7857142857142857
sg11
F0.8222222222222222
sg52
F0.8
ssS'zUlk9c7UEv'
p172
(dp173
sS'5VZLSGPT10'
p174
(dp175
sS'2AMmebFl86'
p176
(dp177
S'12M70dm49w'
p178
F1.0
ssS'yDO9pl8GC0'
p179
(dp180
sS'WD2Q7495E0'
p181
(dp182
S'yB480DNZ70'
p183
F1.0
ssS'QS4cvQ8w0o'
p184
(dp185
sS'R62GeR4qce'
p186
(dp187
sS'GVw1FC32GS'
p188
(dp189
sg54
(dp190
g3
F1.0
sg13
F1.0
sg5
F1.0
sg6
F0.7777777777777778
sg7
F1.0
sg52
F1.0
sg67
F1.0
sg24
F1.0
sg61
F1.0
sg11
F1.0
sg53
F1.0
sg4
F1.0
sg26
F1.0
sg15
F1.0
sg36
F1.0
sg64
F1.0
sg56
F1.0
sg40
F1.0
sg38
F0.75
sg19
F1.0
sg20
F1.0
ssS'16zN4n2fFO'
p191
(dp192
sS'NX8N2fJ630'
p193
(dp194
sS'4u483r4C0S'
p195
(dp196
sS'JU5Ms0pxvu'
p197
(dp198
sS'9hs21hUG5O'
p199
(dp200
sg7
(dp201
g51
F1.0
sg1
F1.0
sg86
F1.0
sg5
F0.9
sg52
F1.0
sg24
F1.0
sg8
F1.0
sg34
F1.0
sg10
F0.8125
sg53
F0.8333333333333334
sg4
F0.925
sg26
F1.0
sg54
F1.0
sg36
F0.9047619047619048
sg39
F1.0
sg84
F0.8333333333333334
sg112
F1.0
sg9
F0.7777777777777778
sg16
F1.0
sg56
F0.9
sg40
F1.0
sg41
F1.0
sg87
F1.0
sg11
F0.888888888888889
sg6
F1.0
sg57
F1.0
sg88
F1.0
sg12
F1.0
sg37
F1.0
sg14
F1.0
sg15
F0.9444444444444445
sg38
F1.0
sg19
F1.0
sg20
F1.0
sg13
F0.7222222222222222
sg61
F1.0
sg18
F1.0
sg17
F0.8333333333333334
sg64
F1.0
sg66
F0.8333333333333334
sg67
F1.0
ssS'yf2V5ll9mN'
p202
(dp203
sg36
(dp204
g51
F1.0
sg10
F1.0
sg86
F0.7777777777777777
sg5
F0.8484848484848485
sg52
F1.0
sg24
F0.875
sg8
F1.0
sg34
F1.0
sg53
F0.8400000000000001
sg4
F0.8828125
sg26
F0.8333333333333334
sg54
F0.75
sg7
F1.0
sg39
F1.0
sg84
F1.0
sg112
F0.75
sg16
F1.0
sg56
F0.8666666666666667
sg40
F0.75
sg41
F1.0
sg11
F0.8701298701298701
sg6
F1.0
sg57
F0.7777777777777777
sg88
F1.0
sg37
F1.0
sg14
F1.0
sg15
F0.7916666666666666
sg38
F0.875
sg19
F1.0
sg20
F0.8285714285714285
sg13
F1.0
sg18
F0.75
sg17
F1.0
sg113
F1.0
sg64
F1.0
sg66
F1.0
sg67
F0.7777777777777777
ssS'68gXsA3M68'
p205
(dp206
g145
F1.0
ssS'6O31vedZbI'
p207
(dp208
sS'45TTYcotWk'
p209
(dp210
sS'j0D7C5VG29'
p211
(dp212
sS'3v8ytbUoc6'
p213
(dp214
sS'Gg6mCdOk6I'
p215
(dp216
sS'N6wWxh9CL4'
p217
(dp218
sg56
(dp219
g51
F1.0
sg10
F0.875
sg86
F0.7222222222222223
sg5
F0.8888888888888888
sg52
F1.0
sg24
F1.0
sg8
F1.0
sg3
F1.0
sg53
F0.8611111111111112
sg4
F0.9047619047619048
sg26
F1.0
sg54
F1.0
sg36
F0.8333333333333334
sg25
F0.7777777777777777
sg7
F1.0
sg39
F1.0
sg84
F0.875
sg16
F1.0
sg66
F0.75
sg40
F1.0
sg41
F1.0
sg87
F1.0
sg11
F0.875
sg6
F1.0
sg57
F1.0
sg88
F1.0
sg97
F1.0
sg12
F1.0
sg37
F1.0
sg14
F1.0
sg15
F1.0
sg162
F1.0
sg163
F0.8125
sg38
F1.0
sg19
F1.0
sg20
F1.0
sg13
F0.625
sg61
F1.0
sg18
F1.0
sg17
F0.8400000000000001
sg64
F1.0
sg67
F1.0
ssS'8cSO1GK90W'
p220
(dp221
sS'971l4W5kQs'
p222
(dp223
sS'0KS4yy9G96'
p224
(dp225
sg3
(dp226
g1
F1.0
sg4
F1.0
sg5
F1.0
sg52
F0.7222222222222222
sg24
F1.0
sg8
F1.0
sg34
F1.0
sg10
F0.75
sg17
F1.0
sg67
F1.0
sg54
F1.0
sg116
F1.0
sg9
F1.0
sg56
F0.75
sg40
F0.6666666666666666
sg41
F1.0
sg11
F1.0
sg157
F0.75
sg6
F1.0
sg114
F1.0
sg12
F0.75
sg15
F1.0
sg162
F0.8666666666666667
sg163
F0.6666666666666666
sg20
F1.0
sg145
F0.7777777777777778
sg66
F1.0
sg155
F1.0
ssS'X4ZaxfDz3Q'
p227
(dp228
sS'o2mSq0vQ50'
p229
(dp230
sg57
(dp231
g51
F1.0
sg10
F0.75
sg86
F0.6
sg5
F0.8888888888888888
sg52
F1.0
sg24
F1.0
sg8
F1.0
sg53
F0.7777777777777778
sg4
F0.75
sg26
F1.0
sg36
F0.8000000000000002
sg7
F0.875
sg39
F0.7777777777777778
sg84
F0.8333333333333334
sg112
F0.75
sg9
F0.6666666666666666
sg56
F0.9166666666666666
sg40
F1.0
sg41
F0.7777777777777777
sg87
F1.0
sg11
F0.8571428571428571
sg6
F0.890909090909091
sg88
F1.0
sg37
F0.7
sg14
F1.0
sg15
F1.0
sg162
F0.75
sg163
F0.7777777777777777
sg38
F1.0
sg19
F0.8333333333333333
sg20
F0.8333333333333333
sg61
F1.0
sg18
F0.75
sg12
F1.0
sg17
F0.7000000000000001
sg66
F0.8333333333333334
sg67
F1.0
ssS'9iQ6dU8Ooj'
p232
(dp233
sS'UEArk7W20r'
p234
(dp235
sg113
(dp236
g4
F1.0
sg6
F1.0
sg17
F1.0
sg36
F1.0
sg19
F1.0
sg20
F1.0
ssg14
(dp237
g51
F1.0
sg1
F1.0
sg4
F0.8857142857142858
sg5
F1.0
sg24
F1.0
sg41
F0.875
sg10
F0.8
sg53
F1.0
sS'ljX78ko847'
p238
F1.0
sg17
F0.7916666666666666
sg36
F0.7777777777777778
sg7
F0.7777777777777777
sg84
F0.75
sg16
F1.0
sg56
F0.6666666666666666
sg40
F0.7777777777777777
sg18
F0.75
sg87
F0.75
sg11
F1.0
sg6
F0.7777777777777777
sg57
F1.0
sg88
F0.8333333333333333
sg37
F0.75
sg38
F1.0
sg19
F0.8333333333333334
sg20
F0.8333333333333334
sg12
F0.75
sg67
F1.0
ssg62
(dp239
g51
F1.0
sS'1kKxS8urAH'
p240
F0.8571428571428571
sS'8o0mJnIpFH'
p241
F1.0
sg63
F0.85
sg26
F0.6666666666666666
sg65
F1.0
sg60
F1.0
ssg162
(dp242
g3
F0.7333333333333334
sg57
F0.75
sg10
F1.0
sg39
F0.75
sg56
F1.0
sg67
F0.8
ssS'LmiEiGqx5x'
p243
(dp244
sS'dN4g3pRdSO'
p245
(dp246
sg38
(dp247
g51
F1.0
sg4
F0.8484848484848485
sg5
F0.6666666666666666
sg24
F0.875
sg41
F1.0
sg34
F1.0
sg53
F0.7777777777777777
sg26
F0.8333333333333334
sg54
F0.7777777777777778
sg36
F0.8125
sg7
F1.0
sg39
F1.0
sg112
F0.75
sg16
F0.8125
sg56
F0.6875
sg40
F0.75
sg18
F0.75
sg11
F0.8125
sg6
F1.0
sg57
F0.75
sg12
F1.0
sg14
F1.0
sg15
F0.78125
sg66
F1.0
sg61
F0.7777777777777778
sg20
F0.7777777777777777
sg37
F1.0
sg67
F0.75
ssS'3C1dH8H8v3'
p248
(dp249
sg20
(dp250
g51
F1.0
sg1
F1.0
sg4
F1.0
sg5
F1.0
sg52
F1.0
sg24
F1.0
sg41
F1.0
sg34
F1.0
sg10
F1.0
sg53
F1.0
sg17
F1.0
sg26
F1.0
sg54
F1.0
sg36
F1.0
sg7
F1.0
sg39
F1.0
sg116
F1.0
sg9
F1.0
sg16
F1.0
sg56
F1.0
sg40
F1.0
sg18
F1.0
sg3
F1.0
sg11
F1.0
sg157
F1.0
sg6
F1.0
sg57
F1.0
sg114
F1.0
sg37
F1.0
sg14
F1.0
sg15
F1.0
sg38
F1.0
sg19
F1.0
sg67
F1.0
sg13
F1.0
sg61
F1.0
sg12
F1.0
sg113
F1.0
sg64
F1.0
sg155
F1.0
ssg13
(dp251
g51
F1.0
sg1
F1.0
sg4
F1.0
sg5
F1.0
sg6
F1.0
sg7
F1.0
sg24
F1.0
sg9
F1.0
sg53
F1.0
sg12
F1.0
sg11
F1.0
sg15
F1.0
sg54
F1.0
sg56
F1.0
sg36
F1.0
sg20
F1.0
ssS'5x5fHvFFLv'
p252
(dp253
S'oEt3YTvS4G'
p254
F1.0
sS'CZDz8OSRfI'
p255
F1.0
ssS'PRr0oy2KyT'
p256
(dp257
sS'RwM69ocq8e'
p258
(dp259
sS'USdRVl9AOe'
p260
(dp261
sS'5yM8I4Uut9'
p262
(dp263
sS'Ds3B2dRQo8'
p264
(dp265
sS'4pzSijxuK6'
p266
(dp267
sg64
(dp268
g51
F0.75
sg4
F0.6666666666666666
sg5
F0.75
sg6
F0.7777777777777778
sg7
F0.75
sg52
F1.0
sg11
F0.8333333333333333
sg37
F1.0
sg53
F0.6666666666666666
sg17
F0.75
sg26
F0.75
sg54
F0.6666666666666666
sg67
F0.75
sg56
F0.625
sg36
F0.75
sg8
F1.0
sg19
F0.6875
sg20
F0.6666666666666666
ssS'st945Ucdi6'
p269
(dp270
sS'5yasLi1Avt'
p271
(dp272
sg51
(dp273
g10
F0.8
sg4
F0.875
sg5
F0.9027777777777778
sg52
F1.0
sg241
F1.0
sg41
F1.0
sg53
F0.8571428571428572
sg17
F0.8333333333333334
sg26
F1.0
sg36
F0.875
sg7
F1.0
sg240
F0.8125
sg39
F1.0
sg84
F1.0
sg19
F1.0
sg9
F0.75
sg24
F1.0
sg16
F1.0
sg56
F0.875
sg40
F1.0
sg11
F0.8333333333333333
sg6
F1.0
sg57
F1.0
sg37
F1.0
sg14
F1.0
sg15
F1.0
sg38
F1.0
sg60
F1.0
sg20
F1.0
sg13
F0.625
sg62
F0.7777777777777777
sg63
F1.0
sg64
F1.0
sg66
F0.75
sg67
F1.0
ssg4
(dp274
g51
F0.8611111111111112
sg1
F0.7777777777777778
sg86
F0.8333333333333334
sg5
F0.7740740740740741
sg52
F0.8214285714285714
sg24
F1.0
sg8
F0.75
sg34
F0.7000000000000001
sg3
F0.8285714285714285
sg53
F0.890625
sg17
F0.7142857142857143
sg26
F0.8571428571428572
sg10
F0.7
sg54
F1.0
sg36
F0.8409090909090909
sg7
F0.85
sg39
F0.8571428571428571
sg84
F0.8333333333333334
sg112
F1.0
sg9
F0.75
sg16
F1.0
sg56
F0.9285714285714286
sg40
F0.9166666666666666
sg41
F0.8611111111111112
sg87
F0.7777777777777777
sg11
F0.8283333333333334
sg6
F0.8393939393939394
sg57
F0.8611111111111112
sg122
F0.85
sg88
F0.75
sg97
F1.0
sg37
F1.0
sg14
F0.76
sg15
F0.7645502645502646
sg38
F1.0
sg19
F1.0
sg20
F0.8730158730158729
sg13
F0.6071428571428571
sg61
F1.0
sg139
F0.8775510204081634
sg18
F1.0
sS'ck0GIf31rJ'
p275
F1.0
sg12
F0.8571428571428571
sg124
F0.8
sg113
F1.0
sg64
F1.0
sg66
F0.9
sg67
F0.8611111111111112
ssg5
(dp276
g51
F0.75
sg1
F0.5333333333333333
sg86
F1.0
sg52
F0.75
sg24
F1.0
sg8
F0.7777777777777777
sg34
F0.75
sg3
F0.625
sg53
F0.9027777777777778
sg4
F0.8888888888888888
sg26
F0.8333333333333333
sg10
F0.8333333333333333
sg54
F1.0
sg36
F1.0
sg7
F0.8400000000000001
sg39
F0.75
sg84
F1.0
sg9
F0.8333333333333334
sg16
F1.0
sg56
F1.0
sg40
F0.9
sg41
F0.75
sg87
F0.75
sg11
F0.8148148148148148
sg6
F0.783882783882784
sg57
F0.8125
sg37
F1.0
sg14
F0.6875
sg15
F0.825
sg38
F1.0
sg19
F1.0
sg20
F1.0
sg13
F0.7333333333333334
sg61
F1.0
sg18
F1.0
sg275
F0.75
sg17
F0.7857142857142857
sg64
F1.0
sg66
F0.7916666666666666
sg67
F0.8571428571428571
ssS'tyU2s0MBzm'
p277
(dp278
sg52
(dp279
g51
F0.7777777777777778
sg10
F1.0
sg4
F0.825
sg5
F0.8333333333333333
sg169
F1.0
sg24
F1.0
sg41
F1.0
sg3
F1.0
sg53
F0.7777777777777777
sg17
F1.0
sg26
F0.8125
sg54
F0.6666666666666666
sg36
F0.6666666666666666
sg7
F0.75
sg39
F1.0
sg84
F1.0
sg16
F1.0
sg56
F0.8666666666666667
sg40
F0.75
sg8
F1.0
sg87
F1.0
sg11
F0.7999999999999999
sg6
F1.0
sg57
F1.0
sg37
F1.0
sg15
F1.0
sg19
F0.75
sg20
F0.6666666666666666
sg101
F1.0
sg64
F1.0
sg66
F1.0
sg67
F1.0
ssS'81E41tTtV9'
p280
(dp281
sg241
(dp282
g240
F0.75
sg51
F0.8888888888888888
sg62
F0.75
ssg41
(dp283
g51
F1.0
sg10
F0.6666666666666666
sg4
F1.0
sg5
F1.0
sg52
F0.6666666666666666
sg24
F1.0
sg8
F1.0
sg34
F1.0
sg3
F1.0
sg53
F1.0
sg17
F1.0
sg26
F1.0
sg36
F1.0
sg7
F1.0
sg39
F1.0
sg84
F0.75
sg9
F1.0
sg16
F1.0
sg56
F0.7916666666666667
sg40
F0.75
sg18
F0.75
sg87
F0.75
sg11
F1.0
sg6
F1.0
sg57
F1.0
sg88
F0.8333333333333334
sg37
F1.0
sg14
F1.0
sg15
F1.0
sg38
F1.0
sg20
F1.0
sg12
F0.75
sg67
F1.0
ssS'Uml72Q91Du'
p284
(dp285
sS'7o7172ufx2'
p286
(dp287
sg53
(dp288
g51
F1.0
sg10
F1.0
sg4
F1.0
sg5
F1.0
sg52
F1.0
sg24
F1.0
sg8
F1.0
sS'80nlN05JQ6'
p289
F1.0
sg17
F1.0
sg26
F1.0
sg54
F1.0
sg36
F1.0
sg7
F1.0
sg39
F1.0
sg84
F1.0
sg16
F1.0
sg56
F1.0
sg40
F1.0
sg41
F1.0
sg11
F1.0
sg6
F1.0
sg57
F1.0
sg97
F1.0
sg37
F1.0
sg14
F1.0
sg15
F1.0
sg38
F1.0
sg19
F1.0
sg20
F1.0
sg13
F1.0
sg61
F1.0
sg64
F1.0
sg66
F1.0
sg67
F1.0
ssS'6ghrwY35fW'
p290
(dp291
sg289
(dp292
g53
F0.75
sS'y8BlGe62E7'
p293
F1.0
ssg63
(dp294
g51
F0.8888888888888888
sg87
F1.0
sg169
F0.65
sg240
F0.75
sg62
F0.8
sg26
F0.75
sg59
F1.0
sg60
F1.0
ssS'ey9rvMnU57'
p295
(dp296
sg254
(dp297
g252
F1.0
ssS'5LMy832c47'
p298
(dp299
sS'dTIQk6Xt3r'
p300
(dp301
sS'Rl6LafSUXj'
p302
(dp303
sS'k4gaj1r2bT'
p304
(dp305
sS'12ws2Vy47j'
p306
(dp307
sg19
(dp308
g51
F1.0
sg1
F0.625
sg4
F1.0
sg5
F1.0
sg23
F0.7777777777777778
sg8
F0.75
sg53
F1.0
sg17
F1.0
sg26
F1.0
sg54
F1.0
sg36
F0.8333333333333334
sg27
F1.0
sg7
F0.8
sg52
F1.0
sg39
F1.0
sg16
F1.0
sg56
F1.0
sg40
F1.0
sg18
F0.9166666666666666
sg11
F1.0
sg6
F0.8571428571428571
sg57
F0.75
sg37
F0.8
sg14
F0.7777777777777777
sg15
F1.0
sg20
F1.0
sg113
F1.0
sg64
F0.8125
sg66
F0.75
sg67
F1.0
ssS'hwF4tyWU50'
p309
(dp310
sS'Si4v9635O3'
p311
(dp312
g183
F0.7777777777777778
ssg116
(dp313
g114
F1.0
sg3
F1.0
sg157
F1.0
sg20
F1.0
ssS'Qb2LYvN3zF'
p314
(dp315
sS'5rwOvj7Gu3'
p316
(dp317
sS'dVqVsN8nD8'
p318
(dp319
sg67
(dp320
g51
F1.0
sg10
F0.75
sg4
F0.8888888888888888
sg5
F0.85
sg52
F1.0
sg24
F1.0
sg8
F1.0
sg53
F0.8400000000000001
sg17
F0.8400000000000001
sg26
F1.0
sg54
F1.0
sg36
F0.8333333333333334
sg7
F1.0
sg9
F0.7777777777777777
sg16
F1.0
sg56
F1.0
sg40
F1.0
sg41
F1.0
sg3
F1.0
sg11
F0.8833333333333333
sg6
F1.0
sg57
F1.0
sg97
F1.0
sg14
F1.0
sg15
F0.9166666666666666
sg162
F1.0
sg38
F1.0
sg19
F1.0
sg20
F1.0
sg18
F1.0
sg64
F1.0
sg66
F1.0
ssg18
(dp321
g1
F1.0
sg4
F1.0
sg5
F1.0
sg41
F1.0
sg10
F1.0
sg17
F1.0
sg36
F1.0
sg7
F1.0
sg112
F1.0
sg9
F1.0
sg56
F1.0
sg40
F1.0
sg87
F1.0
sg11
F1.0
sg6
F1.0
sg57
F0.7777777777777777
sg37
F0.85
sg14
F0.7777777777777777
sg15
F1.0
sg38
F1.0
sg19
F1.0
sg67
F1.0
sg20
F1.0
sg12
F0.7777777777777777
ssS'K8b2FfNFdp'
p322
(dp323
sg157
(dp324
g3
F1.0
sg145
F1.0
sg116
F1.0
sg155
F0.8
sg20
F0.6666666666666666
ssS't4K5z0e2NZ'
p325
(dp326
sg58
(dp327
g26
F1.0
sg23
F1.0
ssS'52vEY7f17k'
p328
(dp329
sS'tLgc420s9N'
p330
(dp331
sg15
(dp332
g51
F1.0
sg1
F1.0
sg4
F0.9259259259259258
sg5
F0.9
sg52
F1.0
sg24
F1.0
sg41
F1.0
sg34
F1.0
sg10
F0.8125
sg53
F0.7777777777777778
sg17
F0.8400000000000001
sg26
F1.0
sg54
F1.0
sg36
F0.875
sg7
F1.0
sg39
F1.0
sg84
F1.0
sg112
F1.0
sg9
F0.8333333333333333
sg16
F1.0
sg56
F1.0
sg40
F1.0
sg18
F1.0
sg3
F1.0
sg11
F0.8833333333333333
sg6
F1.0
sg57
F1.0
sg37
F1.0
sg66
F0.8333333333333334
sg38
F1.0
sg19
F1.0
sg20
F1.0
sg13
F0.6666666666666666
sg61
F1.0
sg12
F1.0
sg67
F1.0
ssS'Y5XkapASsg'
p333
(dp334
sg163
(dp335
g3
F0.75
sg56
F1.0
sg10
F1.0
sg57
F1.0
ssS's3u68VfdSa'
p336
(dp337
sg60
(dp338
g51
F1.0
sg87
F1.0
sg240
F1.0
sg62
F1.0
sg63
F0.8333333333333334
sg26
F0.7777777777777777
sg65
F1.0
sg59
F1.0
ssS'PUu32klgfP'
p339
(dp340
sS'l8kuAhlIWI'
p341
(dp342
sS'Kt1mv62gCP'
p343
(dp344
sg255
(dp345
g252
F1.0
ssg275
(dp346
g4
F0.75
sg5
F0.75
ssS'i5dD6Xy8jL'
p347
(dp348
sS'T4367PFG7C'
p349
(dp350
sS'MCA1W52H2T'
p351
(dp352
sS'c3Ee3W8hyq'
p353
(dp354
sS'wz0V4oY4Z2'
p355
(dp356
sg23
(dp357
g21
F1.0
sg24
F1.0
sg58
F1.0
sg55
F1.0
sg26
F1.0
sg27
F1.0
sg19
F0.8333333333333334
ssg171
(dp358
g11
F0.7999999999999999
sg169
F0.75
ssg8
(dp359
g1
F1.0
sg4
F1.0
sg5
F1.0
sg6
F1.0
sg7
F1.0
sg57
F1.0
sg67
F1.0
sg24
F1.0
sg41
F1.0
sg52
F1.0
sg3
F1.0
sg11
F1.0
sg53
F1.0
sg17
F0.7777777777777778
sg26
F1.0
sg36
F1.0
sg64
F1.0
sg56
F0.75
sg40
F0.8333333333333334
sg19
F1.0
sg66
F1.0
ssg158
(dp360
g155
F1.0
ssS'tlJn3I40bf'
p361
(dp362
sS'lKsX609E6x'
p363
(dp364
sS'bcoY3s64sj'
p365
(dp366
sg238
(dp367
g17
F1.0
sg14
F1.0
ssg17
(dp368
g51
F1.0
sg1
F1.0
sg86
F1.0
sg5
F1.0
sg52
F1.0
sg24
F1.0
sg8
F1.0
sg34
F1.0
sg10
F1.0
sg53
F1.0
sg238
F0.75
sg4
F1.0
sg26
F1.0
sg36
F1.0
sg7
F1.0
sg39
F1.0
sg84
F1.0
sg9
F1.0
sg16
F1.0
sg56
F1.0
sg40
F0.7777777777777777
sg41
F1.0
sg3
F1.0
sg11
F1.0
sg6
F1.0
sg57
F0.8400000000000001
sg88
F1.0
sg37
F0.85
sg14
F0.8125
sg15
F1.0
sg19
F1.0
sg20
F1.0
sg18
F1.0
sg12
F0.75
sg113
F1.0
sg64
F1.0
sg66
F0.7916666666666667
sg67
F1.0
ssS'38a8p8Zl0z'
p369
(dp370
sS'doWQeQ3VZC'
p371
(dp372
sS'QUcO70Q91P'
p373
(dp374
sS'x47TgqKQDL'
p375
(dp376
sS'gPaagaJ8aq'
p377
(dp378
sS'uz40H610bF'
p379
(dp380
sS'1wJ0kz1I0l'
p381
(dp382
sg25
(dp383
g56
F0.7777777777777778
sg21
F1.0
ssS'39Uc7ru04l'
p384
(dp385
sS'YtB3X13RXe'
p386
(dp387
sg240
(dp388
g51
F1.0
sg241
F1.0
sg63
F0.7777777777777777
sg60
F0.75
sg62
F0.761904761904762
ssS'l8bH01vT7z'
p389
(dp390
sS'EV28POlwE4'
p391
(dp392
sg39
(dp393
g51
F0.7777777777777778
sg10
F0.8888888888888888
sg4
F0.8690476190476191
sg5
F0.75
sg52
F1.0
sg24
F1.0
sg41
F1.0
sg34
F1.0
sg53
F0.75
sg17
F1.0
sg26
F0.75
sg36
F0.875
sg7
F0.8
sg84
F1.0
sg16
F1.0
sg56
F0.875
sg40
F0.6666666666666666
sg11
F0.7999999999999999
sg6
F1.0
sg57
F1.0
sg37
F1.0
sg15
F1.0
sg162
F1.0
sg38
F1.0
sg19
F0.75
sg20
F0.6666666666666666
sg86
F0.7222222222222223
sg66
F1.0
ssg16
(dp394
g51
F0.7777777777777777
sg1
F1.0
sg4
F0.8333333333333334
sg5
F0.8333333333333333
sg52
F0.6666666666666666
sg24
F1.0
sg41
F1.0
sg34
F1.0
sg10
F0.75
sg53
F0.8125
sg17
F0.8125
sg36
F1.0
sg27
F1.0
sg7
F0.75
sg39
F0.75
sg9
F1.0
sg56
F0.7777777777777777
sg66
F1.0
sg11
F1.0
sg6
F1.0
sg37
F0.8125
sg14
F1.0
sg15
F0.8055555555555556
sg38
F0.8125
sg19
F1.0
sg20
F1.0
sg101
F0.75
sg61
F1.0
sg67
F1.0
ssg145
(dp395
g3
F1.0
sg11
F0.7777777777777778
sg157
F0.75
sg169
F1.0
sg144
F1.0
sg205
F1.0
sg117
F1.0
sg155
F0.8
ssS'9QD9297moO'
p396
(dp397
sS'Hd9GW3f95j'
p398
(dp399
sS'f45jOmRd4S'
p400
(dp401
sS'wY56ZI2gyL'
p402
(dp403
sg11
(dp404
g51
F1.0
sg1
F1.0
sg4
F0.925
sg5
F0.8968253968253967
sg169
F1.0
sg52
F1.0
sg24
F1.0
sg8
F1.0
sg34
F0.8
sg10
F1.0
sg53
F1.0
sg17
F0.8400000000000001
sg26
F1.0
sg54
F1.0
sg36
F0.8714285714285713
sg7
F0.8571428571428572
sg39
F1.0
sg112
F1.0
sg9
F1.0
sg171
F1.0
sg16
F1.0
sg56
F1.0
sg40
F1.0
sg41
F1.0
sg3
F1.0
sg6
F1.0
sg57
F1.0
sg66
F1.0
sg37
F1.0
sg14
F1.0
sg15
F1.0
sg38
F1.0
sg19
F1.0
sg20
F1.0
sg13
F1.0
sg61
F1.0
sg18
F1.0
sg12
F1.0
sg64
F1.0
sg145
F0.7333333333333334
sg67
F1.0
ssg178
(dp405
g176
F1.0
ssS'56dTCKdr74'
p406
(dp407
sg293
(dp408
g289
F1.0
ssg144
(dp409
g145
F1.0
sg117
F1.0
sg155
F1.0
ssS'11fnXrq9Jf'
p410
(dp411
sS'0ccXSz8Bk8'
p412
(dp413
sS'183ppvOXp8'
p414
(dp415
sg88
(dp416
g10
F0.75
sg4
F0.8333333333333334
sg6
F1.0
sg7
F1.0
sg57
F1.0
sg41
F1.0
sg84
F0.8333333333333334
sg12
F1.0
sg17
F0.75
sg14
F1.0
sg56
F1.0
sg36
F0.875
ssg183
(dp417
g181
F0.75
sg311
F0.7333333333333334
ssg37
(dp418
g51
F0.7777777777777777
sg10
F1.0
sg86
F1.0
sg5
F0.8333333333333334
sg52
F1.0
sg24
F1.0
sg41
F1.0
sg34
F0.75
sg53
F0.7777777777777778
sg4
F0.7983193277310924
sg26
F0.75
sg36
F0.72
sg7
F0.7678571428571429
sg39
F1.0
sg84
F1.0
sg112
F1.0
sg9
F0.6666666666666666
sg16
F1.0
sg56
F0.8095238095238094
sg40
F0.64
sg18
F0.8
sg87
F1.0
sg11
F0.6666666666666667
sg6
F0.8186813186813187
sg57
F1.0
sg12
F0.8333333333333333
sg14
F1.0
sg15
F1.0
sg38
F1.0
sg19
F0.7333333333333333
sg20
F0.5833333333333334
sg17
F1.0
sg64
F1.0
sg66
F1.0
ssS'i0FfLG15di'
p419
(dp420
sg59
(dp421
g63
F1.0
sg87
F1.0
sg65
F1.0
sg26
F1.0
sg60
F1.0
ssg66
(dp422
g51
F0.75
sg10
F0.75
sg4
F0.8333333333333333
sg5
F0.75
sg52
F0.7333333333333334
sg24
F0.8333333333333334
sg8
F1.0
sg53
F0.6666666666666666
sg17
F0.65
sg26
F0.7777777777777777
sg36
F0.8333333333333334
sg7
F0.75
sg39
F0.75
sg84
F0.8333333333333333
sg16
F1.0
sg56
F0.75
sg3
F1.0
sg11
F0.8666666666666667
sg6
F0.8666666666666668
sg57
F0.7777777777777778
sg12
F1.0
sg15
F0.7777777777777778
sg38
F0.75
sg19
F1.0
sg67
F1.0
sg37
F0.75
ssS'9Ydzn1ubPe'
p423
(dp424
sS'i1pw14pRDH'
p425
(dp426
sS'04N6FdP4pd'
p427
(dp428
sS'H5p2L3L4hU'
p429
(dp430
sS'Wi92e1D7bp'
p431
(dp432
sg124
(dp433
g139
F0.8125
sg4
F0.875
sg122
F0.75
ssg65
(dp434
g59
F1.0
sg26
F1.0
sg60
F1.0
sg62
F1.0
ssS'rA9d62o2bb'
p435
(dp436
s.