(dp0
S'QER9PsCgBT'
p1
(dp2
S'Ugr5eIIEf0'
p3
F1.0
sS'tyU2s0MBzm'
p4
F1.0
sS'5ey2xUDZTA'
p5
F1.0
sS'879eYkR2Wu'
p6
F1.0
sS'dvG32rxRzQ'
p7
F1.0
sS'8rsfNQdio8'
p8
F1.0
ssS'A89Fye6g1o'
p9
(dp10
g7
F0.8333333333333333
ssg3
(dp11
g1
F1.0
sg7
F1.0
sS'l5eh0S53tB'
p12
F1.0
sS'Qwq8d0du28'
p13
F1.0
sS'C18qWKq212'
p14
F1.0
sg5
F1.0
sg6
F1.0
sg8
F1.0
ssg4
(dp15
g1
F1.0
sg7
F1.0
sg12
F1.0
sg14
F1.0
sg5
F1.0
sg6
F1.0
sS'IQ98biy227'
p16
F1.0
ssg13
(dp17
g3
F1.0
sg12
F1.0
sS'SOs6B7rb1m'
p18
F1.0
sg7
F1.0
sS'i8f2gg51r5'
p19
F1.0
sg8
F1.0
ssS'f1924U65I1'
p20
(dp21
g12
F1.0
ssg14
(dp22
g3
F1.0
sg12
F1.0
sg6
F1.0
sg7
F1.0
sg19
F1.0
sg16
F1.0
sg4
F1.0
ssg5
(dp23
g1
F1.0
sg3
F0.75
sg4
F1.0
sg7
F1.0
sg19
F1.0
sg8
F1.0
sg16
F1.0
sg12
F1.0
ssg7
(dp24
g1
F0.8333333333333334
sg3
F1.0
sg4
F0.75
sg13
F1.0
sg14
F0.8125
sg5
F0.8
sg6
F1.0
sg9
F1.0
sg19
F1.0
sg16
F0.8400000000000001
sg12
F1.0
ssg6
(dp25
g1
F0.8333333333333333
sg3
F1.0
sg4
F0.6666666666666666
sg14
F0.75
sg7
F1.0
sg8
F1.0
sg16
F0.75
sg12
F0.9333333333333332
ssg18
(dp26
g13
F1.0
ssS'QjpdTxl6ce'
p27
(dp28
sS'PpTLi2Qz8E'
p29
(dp30
sS'5S2tY93Oo1'
p31
(dp32
sg19
(dp33
g7
F1.0
sg12
F1.0
sg13
F1.0
sg14
F1.0
sg5
F1.0
sg16
F1.0
ssg8
(dp34
g1
F1.0
sg3
F1.0
sg12
F1.0
sg13
F1.0
sg5
F1.0
sg6
F1.0
ssg16
(dp35
g7
F0.8333333333333334
sg4
F1.0
sg14
F0.7777777777777778
sg5
F0.75
sg6
F1.0
sg19
F0.8
sg12
F1.0
ssg12
(dp36
g3
F1.0
sg4
F1.0
sg13
F1.0
sg20
F1.0
sg14
F1.0
sg5
F0.6666666666666666
sg6
F0.8400000000000001
sg7
F1.0
sg19
F1.0
sg8
F0.75
sg16
F1.0
ss.