(dp0
S'QER9PsCgBT'
p1
(dp2
S'Ugr5eIIEf0'
p3
F1.0
sS'XL0eQIoG72'
p4
F1.0
sS'tyU2s0MBzm'
p5
F1.0
sS'Qwq8d0du28'
p6
F1.0
sS'f1924U65I1'
p7
F1.0
sS'879eYkR2Wu'
p8
F1.0
sS'dvG32rxRzQ'
p9
F1.0
sS'i8f2gg51r5'
p10
F1.0
sS'8rsfNQdio8'
p11
F1.0
sS'l5eh0S53tB'
p12
F1.0
ssS'A89Fye6g1o'
p13
(dp14
g9
F0.8333333333333333
ssg3
(dp15
g11
F0.8125
sg1
F0.7777777777777777
sg4
F1.0
sg5
F1.0
sg6
F1.0
ssg4
(dp16
g1
F1.0
sg3
F0.75
sg5
F0.8333333333333334
sg6
F0.7777777777777777
sg7
F1.0
sS'C18qWKq212'
p17
F0.7777777777777777
sg8
F1.0
sS'QjpdTxl6ce'
p18
F1.0
sg9
F0.75
sg10
F0.7916666666666667
sg11
F1.0
sS'IQ98biy227'
p19
F1.0
sg12
F1.0
ssg5
(dp20
g1
F1.0
sg3
F1.0
sg4
F1.0
sg12
F1.0
sg6
F1.0
sg17
F1.0
sS'5ey2xUDZTA'
p21
F1.0
sg9
F1.0
sg8
F1.0
sS'PpTLi2Qz8E'
p22
F1.0
sg10
F1.0
sg11
F1.0
sg19
F1.0
ssg6
(dp23
g1
F0.7777777777777778
sg3
F1.0
sg4
F1.0
sg5
F0.8
sS'SOs6B7rb1m'
p24
F1.0
sg9
F1.0
sg10
F1.0
sg11
F1.0
sg12
F0.8333333333333333
ssg7
(dp25
g1
F1.0
sg17
F1.0
sg4
F1.0
sg12
F1.0
sg8
F1.0
ssg17
(dp26
g9
F1.0
sg4
F1.0
sg5
F1.0
sg7
F1.0
sg21
F1.0
sg10
F1.0
sg12
F1.0
ssg21
(dp27
g17
F1.0
sg9
F1.0
sg5
F0.75
sg10
F1.0
sg8
F1.0
ssg9
(dp28
g1
F1.0
sg13
F1.0
sg4
F1.0
sg5
F1.0
sg6
F1.0
sg17
F1.0
sg21
F1.0
sg8
F1.0
sg10
F1.0
sg11
F1.0
sg19
F1.0
sg12
F1.0
ssg8
(dp29
g1
F0.7777777777777777
sg9
F1.0
sg4
F0.75
sg5
F0.75
sg7
F0.6666666666666666
sg21
F0.7777777777777777
sg19
F1.0
sg12
F0.8333333333333334
ssg24
(dp30
g6
F1.0
ssg18
(dp31
g4
F1.0
ssg22
(dp32
g5
F0.6666666666666666
sg10
F0.75
sg12
F0.75
ssS'5S2tY93Oo1'
p33
(dp34
sg10
(dp35
g1
F1.0
sg22
F1.0
sg4
F1.0
sg5
F1.0
sg6
F1.0
sg17
F1.0
sg21
F1.0
sg9
F1.0
sg11
F1.0
sg19
F1.0
sg12
F1.0
ssg11
(dp36
g1
F0.8611111111111112
sg3
F1.0
sg4
F1.0
sg5
F0.8125
sg6
F1.0
sg9
F1.0
sg10
F1.0
sg19
F0.75
sg12
F0.8666666666666667
ssg19
(dp37
g9
F1.0
sg4
F1.0
sg12
F1.0
sg8
F1.0
sg10
F1.0
sg11
F1.0
sg5
F1.0
ssg12
(dp38
g1
F0.7777777777777777
sg22
F0.6666666666666666
sg4
F0.875
sg5
F0.7666666666666666
sg6
F0.65
sg7
F0.75
sg17
F0.7777777777777778
sg8
F0.8611111111111112
sg9
F0.85
sg10
F0.7333333333333333
sg11
F0.75
sg19
F1.0
ss.