(dp0
S'XJyS25Yg27'
p1
(dp2
S'7cEjwssz1R'
p3
F1.0
sS'ajPRq0Q08b'
p4
F1.0
sS'XL0eQIoG72'
p5
F1.0
sS'l5eh0S53tB'
p6
F1.0
sS'y5009rpZ12'
p7
F1.0
sS'Hd9GW3f95j'
p8
F1.0
sS'80nlN05JQ6'
p9
F1.0
sS'h0UbH181l8'
p10
F1.0
sS'EfN583275t'
p11
F1.0
sS'i8f2gg51r5'
p12
F1.0
sS'ZP886G3Z76'
p13
F1.0
sS'78t79xOebG'
p14
F1.0
ssS'Ugr5eIIEf0'
p15
(dp16
S'QER9PsCgBT'
p17
F1.0
sS'c1zVCHxCEz'
p18
F1.0
sS'879eYkR2Wu'
p19
F1.0
sS'5a5qA8VLfI'
p20
F1.0
sS'C18qWKq212'
p21
F1.0
sS'8rsfNQdio8'
p22
F1.0
sS'6A16l70g5Q'
p23
F1.0
ssS'b2W4ZO3uLV'
p24
(dp25
g21
F1.0
sg9
F1.0
sg10
F1.0
sg12
F1.0
sS'6jCygPdswz'
p26
F1.0
sS'1bJbgQ32E3'
p27
F1.0
ssS'tyU2s0MBzm'
p28
(dp29
g17
F1.0
sS'IQ98biy227'
p30
F1.0
sg10
F1.0
sS'z9svx3mA4s'
p31
F1.0
sg7
F1.0
ssS'Qwq8d0du28'
p32
(dp33
S'02i5jCrfQK'
p34
F1.0
ssg34
(dp35
S'dvG32rxRzQ'
p36
F1.0
sg5
F1.0
sg6
F1.0
sg32
F1.0
sg20
F1.0
sS'4X3016rdOZ'
p37
F1.0
ssS'9493h91NUB'
p38
(dp39
g4
F1.0
sg23
F1.0
sS'5ey2xUDZTA'
p40
F1.0
sg6
F1.0
sS'qL6HDg57R9'
p41
F1.0
ssg18
(dp42
S'Gwk4z777oU'
p43
F1.0
sg15
F1.0
sg19
F1.0
sg20
F1.0
sS'6Ax4SKe470'
p44
F1.0
sS'0U9x5pNv8t'
p45
F1.0
ssS'2oNLCndtam'
p46
(dp47
g36
F0.75
ssg43
(dp48
S'X5eS5kvC8h'
p49
F1.0
sg4
F1.0
sg6
F1.0
sg18
F1.0
sg40
F1.0
sg19
F1.0
sg22
F1.0
sg26
F1.0
sg30
F1.0
sg44
F1.0
sS'XNEgfvXx50'
p50
F1.0
ssS'yDO9pl8GC0'
p51
(dp52
sg9
(dp53
g1
F1.0
sg24
F1.0
sg6
F1.0
ssg10
(dp54
g17
F1.0
sg1
F0.75
sg4
F1.0
sg24
F0.7777777777777778
sg28
F1.0
sS'AQfVkV1aEx'
p55
F1.0
sg21
F0.75
sS'5SXHhHKGxC'
p56
F1.0
sg36
F0.75
sS'3hSu07XfGd'
p57
F0.75
sg41
F0.75
sS'4pzSijxuK6'
p58
F1.0
sg12
F0.75
sg30
F0.75
sg20
F0.7777777777777778
sg5
F0.8333333333333333
sg26
F0.7777777777777777
sg27
F0.8333333333333333
sg6
F0.8333333333333333
sg7
F0.75
ssg5
(dp59
g17
F1.0
sg3
F0.75
sg1
F0.75
sg4
F0.7777777777777778
sg6
F0.6666666666666666
sg7
F1.0
sg34
F0.6666666666666666
sg21
F0.7777777777777778
sg36
F0.7777777777777778
sg31
F1.0
sg41
F1.0
sg57
F1.0
sS'XUwJ9E07Zd'
p60
F0.75
sg10
F1.0
sg11
F0.75
sS'0jSb6S70X1'
p61
F1.0
sg20
F1.0
sg30
F1.0
sg37
F0.75
sg27
F0.6666666666666666
sg50
F0.75
ssS'5LMy832c47'
p62
(dp63
sg30
(dp64
g13
F1.0
sg43
F1.0
sg4
F1.0
sg5
F1.0
sg28
F1.0
sg7
F1.0
sg21
F1.0
sS'0u17bw7v7w'
p65
F1.0
sg31
F1.0
sg36
F1.0
sg19
F1.0
sS'YNGlv7F45C'
p66
F1.0
sg41
F1.0
sg26
F1.0
sg12
F1.0
sg20
F1.0
sS'F25axtfCKG'
p67
F1.0
sg10
F1.0
sS'PE6x6PxZ42'
p68
F1.0
sg6
F1.0
ssg44
(dp69
g18
F1.0
sg43
F1.0
sg36
F1.0
sg11
F1.0
ssg50
(dp70
g43
F1.0
sg5
F0.75
sg40
F1.0
sg19
F1.0
sg22
F0.7777777777777778
sg65
F1.0
ssS'bt0ZuHaCGY'
p71
(dp72
sS'MrZ99Q697y'
p73
(dp74
g57
F0.75
ssS'88Uhb8760x'
p75
(dp76
sS'6Kbx2aEeUm'
p77
(dp78
sg7
(dp79
g1
F1.0
sg4
F1.0
sg5
F1.0
sg28
F1.0
sS'9aw67h1Z47'
p80
F1.0
sg21
F1.0
sg36
F1.0
sg31
F1.0
sg41
F1.0
sg19
F1.0
sg10
F1.0
sg58
F1.0
sg12
F1.0
sS'8ZPoEJbXB7'
p81
F1.0
sg68
F1.0
sg30
F1.0
sg13
F1.0
sg6
F1.0
ssS'1kKxS8urAH'
p82
(dp83
g20
F0.75
sg4
F0.7857142857142857
sg6
F1.0
sg19
F1.0
ssg21
(dp84
g15
F1.0
sg24
F1.0
sg7
F1.0
sg4
F1.0
sg40
F1.0
sg36
F1.0
sg57
F1.0
sS'CZDz8OSRfI'
p85
F1.0
sg10
F1.0
sg20
F1.0
sg5
F1.0
sg26
F1.0
sg30
F1.0
sg68
F1.0
ssS'8gH5u019ZH'
p86
(dp87
g23
F1.0
ssS'EaUoBdvBdC'
p88
(dp89
sS'hwF4tyWU50'
p90
(dp91
sS'jdT9cZAxyb'
p92
(dp93
sS'VHCF3iE0a4'
p94
(dp95
sg20
(dp96
g17
F1.0
sg15
F1.0
sg5
F1.0
sg6
F1.0
sg55
F1.0
sg34
F1.0
sg82
F1.0
sg21
F1.0
sg4
F1.0
sg41
F1.0
sg57
F1.0
sg10
F1.0
sg18
F1.0
sg26
F1.0
sg30
F1.0
sg66
F1.0
ssg81
(dp97
g22
F1.0
sg17
F0.8333333333333333
sg7
F0.75
ssg23
(dp98
g38
F0.75
sg15
F1.0
sg86
F1.0
ssg26
(dp99
g49
F1.0
sg4
F1.0
sg24
F1.0
sS't4K5z0e2NZ'
p100
F1.0
sg30
F1.0
sg21
F1.0
sg31
F1.0
sg43
F1.0
sg36
F1.0
sg57
F1.0
sg85
F1.0
sg66
F1.0
sg10
F1.0
sg58
F1.0
sg20
F1.0
sg27
F1.0
sS'E38It7fjg0'
p101
F0.75
sg6
F1.0
ssg27
(dp102
g4
F0.75
sg24
F0.75
sg6
F1.0
sg41
F1.0
sS'saNy7ix5ZY'
p103
F1.0
sg36
F1.0
sg5
F1.0
sg26
F0.7777777777777778
sg10
F0.75
sg45
F1.0
ssg101
(dp104
g26
F0.75
sg31
F0.75
ssg8
(dp105
g1
F1.0
sg4
F1.0
ssS'0KS4yy9G96'
p106
(dp107
sg17
(dp108
g15
F1.0
sg5
F1.0
sg28
F1.0
sg56
F1.0
sg19
F1.0
sg20
F1.0
sg10
F1.0
sg22
F1.0
sg81
F1.0
ssg3
(dp109
g1
F1.0
sg4
F1.0
sg5
F1.0
ssg49
(dp110
g43
F1.0
sg4
F1.0
sg26
F1.0
sg6
F1.0
sg45
F1.0
ssS'iyLqACAFyl'
p111
(dp112
sS'12M70dm49w'
p113
(dp114
sg100
(dp115
g26
F1.0
ssg55
(dp116
g4
F1.0
sg20
F1.0
sg10
F1.0
sg6
F1.0
sg57
F0.75
ssS'm9a501e1MM'
p117
(dp118
sg80
(dp119
g7
F1.0
ssS'11fnXrq9Jf'
p120
(dp121
sg60
(dp122
g36
F1.0
sg5
F1.0
ssg40
(dp123
g43
F1.0
sg4
F0.9166666666666666
sg6
F1.0
sg38
F0.75
sg21
F1.0
sg36
F1.0
sg41
F1.0
sg22
F1.0
sg65
F1.0
sg50
F1.0
ssg31
(dp124
g36
F0.75
sg5
F1.0
sg28
F1.0
sg7
F1.0
sg68
F1.0
sg85
F1.0
sg41
F1.0
sg58
F1.0
sg26
F1.0
sg30
F1.0
sg101
F0.75
ssS'b4NIYojEYn'
p125
(dp126
sg36
(dp127
g31
F0.75
sg4
F0.6666666666666666
sg5
F0.75
sg7
F0.75
sg34
F1.0
sg21
F0.7777777777777777
sg60
F0.75
sg40
F0.75
sg46
F1.0
sg41
F1.0
sg57
F1.0
sg10
F0.75
sg68
F0.75
sg26
F1.0
sg30
F0.75
sg19
F1.0
sg27
F1.0
sg44
F1.0
sg11
F1.0
ssg37
(dp128
g5
F0.8333333333333333
sg6
F0.8333333333333333
sg34
F0.8333333333333333
ssg41
(dp129
g4
F0.8333333333333333
sg5
F1.0
sg6
F0.8666666666666667
sg7
F0.7777777777777777
sg38
F1.0
sg30
F0.75
sg40
F0.75
sg31
F1.0
sg36
F0.75
sg103
F0.8333333333333333
sg10
F1.0
sg20
F1.0
sg27
F0.5833333333333334
sg13
F0.75
sg45
F0.75
ssg11
(dp130
g1
F0.75
sg4
F1.0
sg5
F0.8333333333333333
sg44
F0.75
sg36
F0.75
ssg12
(dp131
g1
F1.0
sg4
F1.0
sg24
F1.0
sg7
F1.0
sg10
F1.0
sg30
F1.0
ssS'MPqJdqnPtc'
p132
(dp133
g6
F0.75
ssg57
(dp134
g73
F1.0
sg4
F1.0
sg5
F1.0
sg6
F1.0
sg55
F1.0
sg21
F1.0
sg36
F1.0
sg20
F1.0
sg26
F1.0
sg10
F1.0
ssg66
(dp135
S'g209g5Vve6'
p136
F1.0
sg4
F1.0
sg6
F0.8333333333333333
sg103
F1.0
sg20
F0.75
sg26
F0.75
sg30
F0.75
sg13
F0.75
ssS'075kbY53c1'
p137
(dp138
sg45
(dp139
g49
F1.0
sg4
F1.0
sg6
F1.0
sg18
F1.0
sg103
F1.0
sg41
F1.0
sg61
F1.0
sg27
F1.0
ssg136
(dp140
g6
F1.0
sg66
F1.0
ssS'PpTLi2Qz8E'
p141
(dp142
sg13
(dp143
g1
F1.0
sg4
F1.0
sg6
F1.0
sg7
F1.0
sg103
F1.0
sg41
F1.0
sg30
F1.0
sg66
F1.0
ssg4
(dp144
g43
F0.75
sg5
F0.8333333333333334
sg38
F0.75
sg1
F0.75
sg57
F0.75
sg10
F0.8888888888888888
sg30
F0.75
sg7
F0.7777777777777778
sg82
F1.0
sg21
F0.75
sg20
F0.75
sg26
F0.75
sg27
F0.8333333333333334
sg13
F0.75
sg8
F0.75
sg3
F0.75
sg49
F0.8333333333333333
sg36
F0.75
sg6
F0.8333333333333333
sg55
F1.0
sg40
F0.875
sg41
F0.75
sg11
F1.0
sg12
F0.75
sg66
F1.0
sg45
F0.75
sg68
F0.75
sg19
F0.8333333333333334
sg103
F1.0
sg61
F0.75
sg65
F1.0
ssS'55jl7IFg3z'
p145
(dp146
sg56
(dp147
g17
F1.0
sg10
F1.0
ssS'QS4cvQ8w0o'
p148
(dp149
sg19
(dp150
g17
F0.8333333333333333
sg43
F1.0
sg15
F1.0
sg6
F0.9166666666666666
sg7
F0.75
sg82
F1.0
sg18
F1.0
sg65
F1.0
sg36
F1.0
sg4
F0.8888888888888888
sg22
F1.0
sg68
F0.75
sg30
F0.75
sg50
F1.0
ssg85
(dp151
g21
F1.0
sg26
F0.75
sg31
F0.75
sg58
F1.0
ssS'694Y3fju01'
p152
(dp153
sg103
(dp154
g4
F1.0
sg6
F0.75
sg13
F0.75
sg41
F0.75
sg61
F0.75
sg27
F0.8333333333333333
sg66
F1.0
sg45
F0.75
ssg58
(dp155
g85
F1.0
sg10
F1.0
sg31
F0.75
sg26
F0.75
sg7
F1.0
ssg14
(dp156
g1
F1.0
ssg61
(dp157
g103
F0.8333333333333333
sg4
F0.8333333333333333
sg5
F1.0
sg6
F1.0
sg45
F0.8888888888888888
ssS'pI9Tpj13ty'
p158
(dp159
sg22
(dp160
g17
F1.0
sg43
F1.0
sg15
F1.0
sg40
F1.0
sg19
F1.0
sg81
F1.0
sg50
F1.0
ssg67
(dp161
g68
F1.0
sg30
F1.0
ssg68
(dp162
g4
F1.0
sg7
F1.0
sg21
F1.0
sg31
F1.0
sg19
F1.0
sg36
F1.0
sg67
F1.0
sg30
F1.0
ssg6
(dp163
g1
F1.0
sg4
F0.65
sg5
F1.0
sg34
F1.0
sg38
F0.75
sg43
F0.75
sg57
F1.0
sg9
F1.0
sg10
F1.0
sg30
F1.0
sg7
F1.0
sg82
F1.0
sg20
F1.0
sg26
F1.0
sg27
F0.6666666666666666
sg13
F1.0
sg49
F0.6666666666666666
sg55
F0.75
sg40
F0.75
sg41
F0.8333333333333334
sg37
F1.0
sg132
F1.0
sg66
F1.0
sg45
F0.75
sg136
F1.0
sg19
F0.8125
sg103
F0.8333333333333333
sg61
F1.0
ssg65
(dp164
g50
F1.0
sg40
F0.75
sg30
F0.75
sg4
F1.0
sg19
F1.0
ss.