(dp0
S'FD5m13We02'
p1
(dp2
sS'Ugr5eIIEf0'
p3
(dp4
S'QER9PsCgBT'
p5
F1.0
sS'C18qWKq212'
p6
F1.0
sS'5ey2xUDZTA'
p7
F1.0
sS'879eYkR2Wu'
p8
F1.0
sS'8rsfNQdio8'
p9
F1.0
sS'6Ax4SKe470'
p10
F1.0
ssS'b2W4ZO3uLV'
p11
(dp12
g6
F0.7777777777777777
sS'IQ98biy227'
p13
F1.0
sS'l5eh0S53tB'
p14
F0.6666666666666666
sS'i8f2gg51r5'
p15
F0.7777777777777777
ssS'tyU2s0MBzm'
p16
(dp17
g5
F1.0
sg14
F1.0
sg6
F1.0
sg7
F1.0
sg8
F1.0
sg13
F1.0
ssS'Qwq8d0du28'
p18
(dp19
S'iyLqACAFyl'
p20
F1.0
sS'XL0eQIoG72'
p21
F1.0
sg15
F1.0
sS'dvG32rxRzQ'
p22
F1.0
sg14
F1.0
ssS'0YvZonpLW8'
p23
(dp24
sS'8a0vIMw4At'
p25
(dp26
sS'JP20cryBg8'
p27
(dp28
sg20
(dp29
g5
F1.0
sg18
F1.0
sg7
F1.0
sg10
F1.0
sg22
F1.0
ssS'pg8uPBYamG'
p30
(dp31
sS'90o991hXMa'
p32
(dp33
g6
F0.75
sg22
F1.0
sg21
F0.6666666666666666
sg13
F0.75
ssS'5ddRYL0LBA'
p34
(dp35
sg13
(dp36
g22
F1.0
sg11
F1.0
sg16
F1.0
sg6
F1.0
sg8
F1.0
sg15
F1.0
sg32
F1.0
sg21
F1.0
sg14
F1.0
sS'XNEgfvXx50'
p37
F1.0
ssg10
(dp38
g9
F1.0
sg3
F1.0
sg22
F1.0
sg7
F1.0
sg20
F1.0
ssg37
(dp39
g21
F0.75
sg14
F1.0
sg7
F1.0
sg8
F1.0
sg9
F0.7777777777777778
sg13
F1.0
ssS'A89Fye6g1o'
p40
(dp41
sg21
(dp42
g5
F1.0
sg22
F0.7777777777777778
sg14
F0.6666666666666666
sg18
F0.75
sS'f1924U65I1'
p43
F0.75
sg6
F0.7777777777777778
sg32
F1.0
sg13
F1.0
sg37
F0.75
ssg43
(dp44
g21
F1.0
sg14
F1.0
ssg6
(dp45
g3
F1.0
sg11
F1.0
sg16
F1.0
sS'C0qLCIhI0O'
p46
F1.0
sg7
F1.0
sg8
F1.0
sg22
F1.0
sg15
F1.0
sg32
F1.0
sg21
F1.0
sg13
F1.0
sg14
F1.0
ssS'e95f4UtF4I'
p47
(dp48
sS'B5VRXIQ2Ji'
p49
(dp50
sS'LQDsuDw2tX'
p51
(dp52
sS'8r7mHkuKX9'
p53
(dp54
sS'cua2tdf6zb'
p55
(dp56
sS'XBhl87k165'
p57
(dp58
sS'5S2tY93Oo1'
p59
(dp60
sS'9NY3vclR8e'
p61
(dp62
sg5
(dp63
g3
F1.0
sg21
F1.0
sg16
F1.0
sg22
F1.0
sg8
F1.0
sg20
F1.0
sg9
F1.0
ssg22
(dp64
g5
F0.8333333333333333
sg20
F1.0
sg21
F0.75
sg14
F1.0
sg18
F1.0
sg6
F0.7777777777777777
sg46
F1.0
sg7
F0.75
sg8
F1.0
sg15
F1.0
sg32
F1.0
sg13
F0.7777777777777777
sg10
F1.0
ssg46
(dp65
g6
F1.0
sg22
F1.0
ssg14
(dp66
g22
F1.0
sg11
F1.0
sg16
F1.0
sg18
F1.0
sg43
F1.0
sg6
F1.0
sg7
F0.75
sS'HujcxU5LVb'
p67
F1.0
sg8
F0.8125
sg15
F1.0
sg21
F1.0
sg13
F1.0
sg37
F0.7777777777777777
ssS'29U6L12O3k'
p68
(dp69
sg7
(dp70
g3
F0.75
sg16
F1.0
sg6
F1.0
sg22
F1.0
sg8
F1.0
sg20
F1.0
sg15
F1.0
sg9
F1.0
sg10
F0.75
sg14
F1.0
sg37
F1.0
ssg15
(dp71
g22
F1.0
sg11
F1.0
sg14
F1.0
sg18
F1.0
sg6
F1.0
sg7
F1.0
sg13
F1.0
ssS'5gtqSDwEt1'
p72
(dp73
sS'wkQxI30ZH6'
p74
(dp75
sS'oSV25Eb2y9'
p76
(dp77
sS'ub1y4M34bR'
p78
(dp79
sS'PpTLi2Qz8E'
p80
(dp81
sg67
(dp82
g14
F0.6666666666666666
ssS'3Whv9UbPsR'
p83
(dp84
sg8
(dp85
g5
F0.8333333333333333
sg3
F1.0
sg16
F0.6666666666666666
sg6
F0.75
sg7
F0.7777777777777778
sg22
F1.0
sg9
F1.0
sg13
F0.75
sg14
F1.0
sg37
F1.0
ssS'XrH5AAPdtj'
p86
(dp87
sg9
(dp88
g5
F1.0
sg3
F1.0
sg7
F1.0
sg8
F1.0
sg10
F1.0
sg37
F1.0
ssS'D431zXkvuC'
p89
(dp90
s.