(dp0
S'Ugr5eIIEf0'
p1
(dp2
S'QER9PsCgBT'
p3
F0.7777777777777777
sS'dvG32rxRzQ'
p4
F0.7333333333333334
sS'b2W4ZO3uLV'
p5
F1.0
sS'l5eh0S53tB'
p6
F0.75
sS'02i5jCrfQK'
p7
F1.0
sS'C18qWKq212'
p8
F1.0
sS'5ey2xUDZTA'
p9
F1.0
sS'8rsfNQdio8'
p10
F0.8125
sS'XL0eQIoG72'
p11
F1.0
sS'6jCygPdswz'
p12
F1.0
sS'6Ax4SKe470'
p13
F0.7777777777777778
sS'XNEgfvXx50'
p14
F1.0
ssg5
(dp15
g3
F1.0
sg4
F1.0
sg11
F1.0
sS'y5009rpZ12'
p16
F1.0
sg7
F1.0
sg8
F1.0
sg1
F1.0
sS'i8f2gg51r5'
p17
F1.0
sg12
F1.0
sS'IQ98biy227'
p18
F1.0
ssS'tyU2s0MBzm'
p19
(dp20
g3
F1.0
sg6
F1.0
sg16
F1.0
sg9
F1.0
sS'Qwq8d0du28'
p21
F1.0
sg10
F1.0
sg12
F1.0
sg18
F1.0
sg14
F1.0
ssg21
(dp22
g3
F0.75
sS'iyLqACAFyl'
p23
F0.7777777777777777
sg11
F1.0
sg19
F0.75
sg16
F0.7777777777777777
sg7
F1.0
sg10
F1.0
sS'PE6x6PxZ42'
p24
F1.0
sg6
F0.8333333333333333
ssg7
(dp25
g4
F0.7999999999999999
sg5
F0.75
sg6
F1.0
sg16
F0.75
sg21
F1.0
sg1
F0.7777777777777778
sg11
F0.75
sg12
F0.875
sg18
F0.75
sg13
F1.0
sg14
F1.0
ssS'2oNLCndtam'
p26
(dp27
g4
F0.75
ssg4
(dp28
g3
F1.0
sg1
F1.0
sg5
F1.0
sg6
F1.0
sg16
F1.0
sg7
F1.0
sg8
F1.0
sg9
F1.0
sg26
F1.0
sS'879eYkR2Wu'
p29
F1.0
sg17
F1.0
sg11
F1.0
sg12
F1.0
sg18
F1.0
sg13
F1.0
sg14
F1.0
ssg11
(dp30
g4
F0.8
sg5
F1.0
sg6
F0.6666666666666666
sg16
F0.7777777777777777
sg7
F0.75
sg8
F0.7777777777777777
sg21
F0.75
sg1
F1.0
sg17
F1.0
sg12
F1.0
sg18
F1.0
sg13
F1.0
ssg18
(dp31
g4
F0.75
sg5
F1.0
sg19
F1.0
sg16
F1.0
sg7
F1.0
sg8
F0.75
sg9
F0.6666666666666666
sg24
F1.0
sg17
F0.7777777777777778
sg11
F0.75
sg12
F0.8666666666666667
sg13
F1.0
sg6
F1.0
sg14
F0.8
ssg13
(dp32
g3
F1.0
sg1
F1.0
sg11
F0.6666666666666666
sg6
F1.0
sg16
F1.0
sg7
F1.0
sg8
F0.75
sg9
F0.7777777777777777
sg4
F0.8125
sg29
F1.0
sg23
F1.0
sg17
F0.7333333333333334
sg10
F1.0
sg12
F0.75
sg18
F1.0
ssg14
(dp33
g3
F0.6666666666666666
sg4
F0.75
sg19
F1.0
sg16
F0.8125
sg7
F1.0
sg8
F1.0
sg1
F1.0
sg17
F0.875
sg12
F1.0
sg18
F1.0
sg6
F0.7916666666666666
ssg16
(dp34
g3
F1.0
sg23
F1.0
sg5
F1.0
sg19
F1.0
sg21
F1.0
sg7
F1.0
sg8
F1.0
sg9
F1.0
sg29
F1.0
sg4
F1.0
sg17
F1.0
sg10
F1.0
sg11
F1.0
sg12
F1.0
sg18
F1.0
sg13
F1.0
sg6
F1.0
sg14
F1.0
ssg8
(dp35
g1
F1.0
sg5
F1.0
sg6
F1.0
sg16
F1.0
sg9
F1.0
sg4
F1.0
sg17
F1.0
sg11
F1.0
sg12
F1.0
sg18
F1.0
sg13
F1.0
sg14
F1.0
ssg12
(dp36
g3
F1.0
sg23
F1.0
sg5
F1.0
sg19
F1.0
sg16
F1.0
sg7
F1.0
sg8
F1.0
sg4
F1.0
sg1
F1.0
sg17
F1.0
sg10
F1.0
sg11
F1.0
sg18
F1.0
sg13
F1.0
sg6
F1.0
sg14
F1.0
ssg24
(dp37
g10
F1.0
sg18
F1.0
sg21
F1.0
ssg3
(dp38
g1
F1.0
sg5
F1.0
sg19
F1.0
sg16
F1.0
sg9
F1.0
sg4
F1.0
sg29
F1.0
sg23
F1.0
sg21
F1.0
sg17
F1.0
sg10
F1.0
sg12
F1.0
sg13
F1.0
sg6
F1.0
sg14
F1.0
ssg23
(dp39
g3
F1.0
sg21
F1.0
sg16
F1.0
sg10
F1.0
sg12
F1.0
sg13
F1.0
ssg6
(dp40
g3
F1.0
sg1
F1.0
sg11
F1.0
sg19
F1.0
sg16
F1.0
sg7
F1.0
sg8
F1.0
sg9
F0.5833333333333334
sg21
F1.0
sg29
F0.8611111111111112
sg4
F1.0
sg17
F1.0
sg10
F0.7777777777777777
sg12
F1.0
sg18
F1.0
sg13
F1.0
sg14
F0.8125
ssg9
(dp41
g3
F0.75
sg1
F0.75
sg19
F0.75
sg16
F0.75
sg8
F1.0
sg29
F1.0
sg4
F1.0
sg17
F1.0
sg18
F0.75
sg13
F0.7777777777777777
sg6
F0.7999999999999999
ssg17
(dp42
g3
F1.0
sg4
F1.0
sg5
F1.0
sg6
F1.0
sg16
F1.0
sg8
F1.0
sg9
F1.0
sg29
F1.0
sg11
F1.0
sg12
F1.0
sg18
F1.0
sg13
F1.0
sg14
F1.0
ssS'PpTLi2Qz8E'
p43
(dp44
sg29
(dp45
g3
F1.0
sg4
F1.0
sg6
F0.9444444444444443
sg16
F1.0
sg9
F0.7777777777777777
sg17
F1.0
sg10
F1.0
sg13
F1.0
ssg10
(dp46
g3
F0.8400000000000001
sg1
F1.0
sg19
F0.75
sg16
F0.75
sg21
F1.0
sg29
F1.0
sg23
F0.75
sg24
F1.0
sg12
F0.875
sg13
F1.0
sg6
F0.8333333333333334
ss.